; ModuleID = 'C:/Users/yakup/workspace/bitirme_v4/src/Lane.cpp'
source_filename = "C:/Users/yakup/workspace/bitirme_v4/src/Lane.cpp"
target datalayout = "e-m:e-p:32:32-i64:64-v128:64:128-a:0:32-n32-S64"
target triple = "armv7--linux-gnueabihf"

%"class.std::ios_base::Init" = type { i8 }
%class.Lane = type { i32, i32, i32, i32, i32, i8, i8, i8, i32, i32, i32, [3 x float], [3 x float], float*, float*, %"class.std::vector", %"class.std::vector", [3 x float], [3 x float], i32*, i32*, %"class.std::vector.0", %"class.std::vector.0", i32*, %"class.std::vector.0", i32*, i32*, %"class.std::vector.0", %"class.std::vector.0" }
%"class.std::vector" = type { %"struct.std::_Vector_base" }
%"struct.std::_Vector_base" = type { %"struct.std::_Vector_base<float *, std::allocator<float *> >::_Vector_impl" }
%"struct.std::_Vector_base<float *, std::allocator<float *> >::_Vector_impl" = type { float**, float**, float** }
%"class.std::vector.0" = type { %"struct.std::_Vector_base.1" }
%"struct.std::_Vector_base.1" = type { %"struct.std::_Vector_base<int *, std::allocator<int *> >::_Vector_impl" }
%"struct.std::_Vector_base<int *, std::allocator<int *> >::_Vector_impl" = type { i32**, i32**, i32** }
%"class.std::allocator.2" = type { i8 }
%"class.std::allocator" = type { i8 }
%"class.__gnu_cxx::new_allocator" = type { i8 }
%"class.__gnu_cxx::new_allocator.3" = type { i8 }
%"class.std::move_iterator" = type { float** }
%"class.std::move_iterator.5" = type { i32** }

$_ZNSt6vectorIPfSaIS0_EEC2Ev = comdat any

$_ZNSt6vectorIPiSaIS0_EEC2Ev = comdat any

$_ZNSt6vectorIPfSaIS0_EE6resizeEj = comdat any

$_ZNSt6vectorIPiSaIS0_EE6resizeEj = comdat any

$_ZNSt6vectorIPiSaIS0_EED2Ev = comdat any

$_ZNSt6vectorIPfSaIS0_EED2Ev = comdat any

$_ZSt3powIiiEN9__gnu_cxx11__promote_2IT_T0_NS0_9__promoteIS2_Xsr3std12__is_integerIS2_EE7__valueEE6__typeENS4_IS3_Xsr3std12__is_integerIS3_EE7__valueEE6__typeEE6__typeES2_S3_ = comdat any

$_ZNSt6vectorIPiSaIS0_EEixEj = comdat any

$_ZNSt6vectorIPfSaIS0_EEixEj = comdat any

$_ZNSt12_Vector_baseIPfSaIS0_EEC2Ev = comdat any

$__clang_call_terminate = comdat any

$_ZNSt12_Vector_baseIPfSaIS0_EE12_Vector_implC2Ev = comdat any

$_ZNSaIPfEC2Ev = comdat any

$_ZN9__gnu_cxx13new_allocatorIPfEC2Ev = comdat any

$_ZNSt12_Vector_baseIPiSaIS0_EEC2Ev = comdat any

$_ZNSt12_Vector_baseIPiSaIS0_EE12_Vector_implC2Ev = comdat any

$_ZNSaIPiEC2Ev = comdat any

$_ZN9__gnu_cxx13new_allocatorIPiEC2Ev = comdat any

$_ZSt8_DestroyIPPfS0_EvT_S2_RSaIT0_E = comdat any

$_ZNSt12_Vector_baseIPfSaIS0_EE19_M_get_Tp_allocatorEv = comdat any

$_ZNSt12_Vector_baseIPfSaIS0_EED2Ev = comdat any

$_ZSt8_DestroyIPPfEvT_S2_ = comdat any

$_ZNSt12_Destroy_auxILb1EE9__destroyIPPfEEvT_S4_ = comdat any

$_ZNSt12_Vector_baseIPfSaIS0_EE13_M_deallocateEPS0_j = comdat any

$_ZNSt12_Vector_baseIPfSaIS0_EE12_Vector_implD2Ev = comdat any

$_ZNSt16allocator_traitsISaIPfEE10deallocateERS1_PS0_j = comdat any

$_ZN9__gnu_cxx13new_allocatorIPfE10deallocateEPS1_j = comdat any

$_ZNSaIPfED2Ev = comdat any

$_ZN9__gnu_cxx13new_allocatorIPfED2Ev = comdat any

$_ZSt8_DestroyIPPiS0_EvT_S2_RSaIT0_E = comdat any

$_ZNSt12_Vector_baseIPiSaIS0_EE19_M_get_Tp_allocatorEv = comdat any

$_ZNSt12_Vector_baseIPiSaIS0_EED2Ev = comdat any

$_ZSt8_DestroyIPPiEvT_S2_ = comdat any

$_ZNSt12_Destroy_auxILb1EE9__destroyIPPiEEvT_S4_ = comdat any

$_ZNSt12_Vector_baseIPiSaIS0_EE13_M_deallocateEPS0_j = comdat any

$_ZNSt12_Vector_baseIPiSaIS0_EE12_Vector_implD2Ev = comdat any

$_ZNSt16allocator_traitsISaIPiEE10deallocateERS1_PS0_j = comdat any

$_ZN9__gnu_cxx13new_allocatorIPiE10deallocateEPS1_j = comdat any

$_ZNSaIPiED2Ev = comdat any

$_ZN9__gnu_cxx13new_allocatorIPiED2Ev = comdat any

$_ZNKSt6vectorIPfSaIS0_EE4sizeEv = comdat any

$_ZNSt6vectorIPfSaIS0_EE17_M_default_appendEj = comdat any

$_ZNSt6vectorIPfSaIS0_EE15_M_erase_at_endEPS0_ = comdat any

$_ZSt27__uninitialized_default_n_aIPPfjS0_ET_S2_T0_RSaIT1_E = comdat any

$_ZNKSt6vectorIPfSaIS0_EE12_M_check_lenEjPKc = comdat any

$_ZNSt12_Vector_baseIPfSaIS0_EE11_M_allocateEj = comdat any

$_ZSt34__uninitialized_move_if_noexcept_aIPPfS1_SaIS0_EET0_T_S4_S3_RT1_ = comdat any

$_ZSt25__uninitialized_default_nIPPfjET_S2_T0_ = comdat any

$_ZNSt27__uninitialized_default_n_1ILb1EE18__uninit_default_nIPPfjEET_S4_T0_ = comdat any

$_ZSt6fill_nIPPfjS0_ET_S2_T0_RKT1_ = comdat any

$_ZSt10__fill_n_aIPPfjS0_EN9__gnu_cxx11__enable_ifIXsr11__is_scalarIT1_EE7__valueET_E6__typeES5_T0_RKS4_ = comdat any

$_ZSt12__niter_baseIPPfET_S2_ = comdat any

$_ZNKSt6vectorIPfSaIS0_EE8max_sizeEv = comdat any

$_ZSt3maxIjERKT_S2_S2_ = comdat any

$_ZNSt16allocator_traitsISaIPfEE8max_sizeERKS1_ = comdat any

$_ZNKSt12_Vector_baseIPfSaIS0_EE19_M_get_Tp_allocatorEv = comdat any

$_ZNK9__gnu_cxx13new_allocatorIPfE8max_sizeEv = comdat any

$_ZNSt16allocator_traitsISaIPfEE8allocateERS1_j = comdat any

$_ZN9__gnu_cxx13new_allocatorIPfE8allocateEjPKv = comdat any

$_ZSt22__uninitialized_copy_aISt13move_iteratorIPPfES2_S1_ET0_T_S5_S4_RSaIT1_E = comdat any

$_ZSt32__make_move_if_noexcept_iteratorIPfSt13move_iteratorIPS0_EET0_PT_ = comdat any

$_ZSt18uninitialized_copyISt13move_iteratorIPPfES2_ET0_T_S5_S4_ = comdat any

$_ZNSt20__uninitialized_copyILb1EE13__uninit_copyISt13move_iteratorIPPfES4_EET0_T_S7_S6_ = comdat any

$_ZSt4copyISt13move_iteratorIPPfES2_ET0_T_S5_S4_ = comdat any

$_ZSt14__copy_move_a2ILb1EPPfS1_ET1_T0_S3_S2_ = comdat any

$_ZSt12__miter_baseIPPfEDTcl12__miter_basecldtfp_4baseEEESt13move_iteratorIT_E = comdat any

$_ZSt13__copy_move_aILb1EPPfS1_ET1_T0_S3_S2_ = comdat any

$_ZNSt11__copy_moveILb1ELb1ESt26random_access_iterator_tagE8__copy_mIPfEEPT_PKS4_S7_S5_ = comdat any

$_ZSt12__miter_baseIPPfET_S2_ = comdat any

$_ZNKSt13move_iteratorIPPfE4baseEv = comdat any

$_ZNSt13move_iteratorIPPfEC2ES1_ = comdat any

$_ZNKSt6vectorIPiSaIS0_EE4sizeEv = comdat any

$_ZNSt6vectorIPiSaIS0_EE17_M_default_appendEj = comdat any

$_ZNSt6vectorIPiSaIS0_EE15_M_erase_at_endEPS0_ = comdat any

$_ZSt27__uninitialized_default_n_aIPPijS0_ET_S2_T0_RSaIT1_E = comdat any

$_ZNKSt6vectorIPiSaIS0_EE12_M_check_lenEjPKc = comdat any

$_ZNSt12_Vector_baseIPiSaIS0_EE11_M_allocateEj = comdat any

$_ZSt34__uninitialized_move_if_noexcept_aIPPiS1_SaIS0_EET0_T_S4_S3_RT1_ = comdat any

$_ZSt25__uninitialized_default_nIPPijET_S2_T0_ = comdat any

$_ZNSt27__uninitialized_default_n_1ILb1EE18__uninit_default_nIPPijEET_S4_T0_ = comdat any

$_ZSt6fill_nIPPijS0_ET_S2_T0_RKT1_ = comdat any

$_ZSt10__fill_n_aIPPijS0_EN9__gnu_cxx11__enable_ifIXsr11__is_scalarIT1_EE7__valueET_E6__typeES5_T0_RKS4_ = comdat any

$_ZSt12__niter_baseIPPiET_S2_ = comdat any

$_ZNKSt6vectorIPiSaIS0_EE8max_sizeEv = comdat any

$_ZNSt16allocator_traitsISaIPiEE8max_sizeERKS1_ = comdat any

$_ZNKSt12_Vector_baseIPiSaIS0_EE19_M_get_Tp_allocatorEv = comdat any

$_ZNK9__gnu_cxx13new_allocatorIPiE8max_sizeEv = comdat any

$_ZNSt16allocator_traitsISaIPiEE8allocateERS1_j = comdat any

$_ZN9__gnu_cxx13new_allocatorIPiE8allocateEjPKv = comdat any

$_ZSt22__uninitialized_copy_aISt13move_iteratorIPPiES2_S1_ET0_T_S5_S4_RSaIT1_E = comdat any

$_ZSt32__make_move_if_noexcept_iteratorIPiSt13move_iteratorIPS0_EET0_PT_ = comdat any

$_ZSt18uninitialized_copyISt13move_iteratorIPPiES2_ET0_T_S5_S4_ = comdat any

$_ZNSt20__uninitialized_copyILb1EE13__uninit_copyISt13move_iteratorIPPiES4_EET0_T_S7_S6_ = comdat any

$_ZSt4copyISt13move_iteratorIPPiES2_ET0_T_S5_S4_ = comdat any

$_ZSt14__copy_move_a2ILb1EPPiS1_ET1_T0_S3_S2_ = comdat any

$_ZSt12__miter_baseIPPiEDTcl12__miter_basecldtfp_4baseEEESt13move_iteratorIT_E = comdat any

$_ZSt13__copy_move_aILb1EPPiS1_ET1_T0_S3_S2_ = comdat any

$_ZNSt11__copy_moveILb1ELb1ESt26random_access_iterator_tagE8__copy_mIPiEEPT_PKS4_S7_S5_ = comdat any

$_ZSt12__miter_baseIPPiET_S2_ = comdat any

$_ZNKSt13move_iteratorIPPiE4baseEv = comdat any

$_ZNSt13move_iteratorIPPiEC2ES1_ = comdat any

@_ZStL8__ioinit = internal global %"class.std::ios_base::Init" zeroinitializer, align 1
@__dso_handle = external global i8
@.str = private unnamed_addr constant [26 x i8] c"vector::_M_default_append\00", align 1
@llvm.global_ctors = appending global [1 x { i32, void ()*, i8* }] [{ i32, void ()*, i8* } { i32 65535, void ()* @_GLOBAL__sub_I_Lane.cpp, i8* null }]

@_ZN4LaneC1Eii = alias %class.Lane* (%class.Lane*, i32, i32), %class.Lane* (%class.Lane*, i32, i32)* @_ZN4LaneC2Eii

define internal void @__cxx_global_var_init() #0 section ".text.startup" !dbg !1758 {
  %1 = call %"class.std::ios_base::Init"* @_ZNSt8ios_base4InitC1Ev(%"class.std::ios_base::Init"* @_ZStL8__ioinit), !dbg !1759
  %2 = call i32 @__cxa_atexit(void (i8*)* bitcast (%"class.std::ios_base::Init"* (%"class.std::ios_base::Init"*)* @_ZNSt8ios_base4InitD1Ev to void (i8*)*), i8* getelementptr inbounds (%"class.std::ios_base::Init", %"class.std::ios_base::Init"* @_ZStL8__ioinit, i32 0, i32 0), i8* @__dso_handle) #3, !dbg !1760
  ret void, !dbg !1759
}

declare !xidane.fname !1762 !xidane.function_declaration_type !1763 !xidane.function_declaration_filename !1764 %"class.std::ios_base::Init"* @_ZNSt8ios_base4InitC1Ev(%"class.std::ios_base::Init"* returned) unnamed_addr #1

; Function Attrs: nounwind
declare !xidane.fname !1765 !xidane.function_declaration_type !1763 !xidane.function_declaration_filename !1764 %"class.std::ios_base::Init"* @_ZNSt8ios_base4InitD1Ev(%"class.std::ios_base::Init"* returned) unnamed_addr #2

; Function Attrs: nounwind
declare i32 @__cxa_atexit(void (i8*)*, i8*, i8*) #3

define %class.Lane* @_ZN4LaneC2Eii(%class.Lane* returned, i32, i32) unnamed_addr #0 align 2 personality i8* bitcast (i32 (...)* @__gxx_personality_v0 to i8*) !dbg !1766 !xidane.fname !2231 !xidane.function_declaration_type !2232 !xidane.function_declaration_filename !2233 {
  %4 = alloca %class.Lane*, align 4
  %5 = alloca i32, align 4
  %6 = alloca i32, align 4
  %7 = alloca i8*
  %8 = alloca i32
  store %class.Lane* %0, %class.Lane** %4, align 4
  call void @llvm.dbg.declare(metadata %class.Lane** %4, metadata !2234, metadata !2236), !dbg !2237
  store i32 %1, i32* %5, align 4
  call void @llvm.dbg.declare(metadata i32* %5, metadata !2238, metadata !2236), !dbg !2239
  store i32 %2, i32* %6, align 4
  call void @llvm.dbg.declare(metadata i32* %6, metadata !2240, metadata !2236), !dbg !2241
  %9 = load %class.Lane*, %class.Lane** %4, align 4
  %10 = getelementptr inbounds %class.Lane, %class.Lane* %9, i32 0, i32 15, !dbg !2242
  %11 = call %"class.std::vector"* @_ZNSt6vectorIPfSaIS0_EEC2Ev(%"class.std::vector"* %10) #3, !dbg !2242
  %12 = getelementptr inbounds %class.Lane, %class.Lane* %9, i32 0, i32 16, !dbg !2242
  %13 = call %"class.std::vector"* @_ZNSt6vectorIPfSaIS0_EEC2Ev(%"class.std::vector"* %12) #3, !dbg !2243
  %14 = getelementptr inbounds %class.Lane, %class.Lane* %9, i32 0, i32 21, !dbg !2242
  %15 = call %"class.std::vector.0"* @_ZNSt6vectorIPiSaIS0_EEC2Ev(%"class.std::vector.0"* %14) #3, !dbg !2245
  %16 = getelementptr inbounds %class.Lane, %class.Lane* %9, i32 0, i32 22, !dbg !2242
  %17 = call %"class.std::vector.0"* @_ZNSt6vectorIPiSaIS0_EEC2Ev(%"class.std::vector.0"* %16) #3, !dbg !2247
  %18 = getelementptr inbounds %class.Lane, %class.Lane* %9, i32 0, i32 24, !dbg !2242
  %19 = call %"class.std::vector.0"* @_ZNSt6vectorIPiSaIS0_EEC2Ev(%"class.std::vector.0"* %18) #3, !dbg !2249
  %20 = getelementptr inbounds %class.Lane, %class.Lane* %9, i32 0, i32 27, !dbg !2242
  %21 = call %"class.std::vector.0"* @_ZNSt6vectorIPiSaIS0_EEC2Ev(%"class.std::vector.0"* %20) #3, !dbg !2251
  %22 = getelementptr inbounds %class.Lane, %class.Lane* %9, i32 0, i32 28, !dbg !2242
  %23 = call %"class.std::vector.0"* @_ZNSt6vectorIPiSaIS0_EEC2Ev(%"class.std::vector.0"* %22) #3, !dbg !2253
  %24 = getelementptr inbounds %class.Lane, %class.Lane* %9, i32 0, i32 0, !dbg !2255
  store i32 10, i32* %24, align 4, !dbg !2257
  %25 = getelementptr inbounds %class.Lane, %class.Lane* %9, i32 0, i32 1, !dbg !2258
  store i32 -1, i32* %25, align 4, !dbg !2259
  %26 = getelementptr inbounds %class.Lane, %class.Lane* %9, i32 0, i32 4, !dbg !2260
  store i32 -1, i32* %26, align 4, !dbg !2261
  %27 = getelementptr inbounds %class.Lane, %class.Lane* %9, i32 0, i32 2, !dbg !2262
  store i32 -1, i32* %27, align 4, !dbg !2263
  %28 = getelementptr inbounds %class.Lane, %class.Lane* %9, i32 0, i32 3, !dbg !2264
  store i32 -1, i32* %28, align 4, !dbg !2265
  %29 = getelementptr inbounds %class.Lane, %class.Lane* %9, i32 0, i32 5, !dbg !2266
  store i8 0, i8* %29, align 4, !dbg !2267
  %30 = getelementptr inbounds %class.Lane, %class.Lane* %9, i32 0, i32 6, !dbg !2268
  store i8 0, i8* %30, align 1, !dbg !2269
  %31 = getelementptr inbounds %class.Lane, %class.Lane* %9, i32 0, i32 7, !dbg !2270
  store i8 1, i8* %31, align 2, !dbg !2271
  %32 = load i32, i32* %5, align 4, !dbg !2272
  %33 = getelementptr inbounds %class.Lane, %class.Lane* %9, i32 0, i32 8, !dbg !2273
  store i32 %32, i32* %33, align 4, !dbg !2274
  %34 = load i32, i32* %6, align 4, !dbg !2275
  %35 = getelementptr inbounds %class.Lane, %class.Lane* %9, i32 0, i32 9, !dbg !2276
  store i32 %34, i32* %35, align 4, !dbg !2277
  %36 = getelementptr inbounds %class.Lane, %class.Lane* %9, i32 0, i32 9, !dbg !2278
  %37 = load i32, i32* %36, align 4, !dbg !2278
  %38 = sdiv i32 %37, 2, !dbg !2279
  %39 = getelementptr inbounds %class.Lane, %class.Lane* %9, i32 0, i32 10, !dbg !2280
  store i32 %38, i32* %39, align 4, !dbg !2281
  %40 = getelementptr inbounds %class.Lane, %class.Lane* %9, i32 0, i32 15, !dbg !2282
  %41 = getelementptr inbounds %class.Lane, %class.Lane* %9, i32 0, i32 0, !dbg !2283
  %42 = load i32, i32* %41, align 4, !dbg !2283
  invoke void @_ZNSt6vectorIPfSaIS0_EE6resizeEj(%"class.std::vector"* %40, i32 %42)
          to label %43 unwind label %68, !dbg !2284

; <label>:43:                                     ; preds = %3
  %44 = getelementptr inbounds %class.Lane, %class.Lane* %9, i32 0, i32 16, !dbg !2285
  %45 = getelementptr inbounds %class.Lane, %class.Lane* %9, i32 0, i32 0, !dbg !2286
  %46 = load i32, i32* %45, align 4, !dbg !2286
  invoke void @_ZNSt6vectorIPfSaIS0_EE6resizeEj(%"class.std::vector"* %44, i32 %46)
          to label %47 unwind label %68, !dbg !2287

; <label>:47:                                     ; preds = %43
  %48 = getelementptr inbounds %class.Lane, %class.Lane* %9, i32 0, i32 27, !dbg !2288
  %49 = getelementptr inbounds %class.Lane, %class.Lane* %9, i32 0, i32 0, !dbg !2289
  %50 = load i32, i32* %49, align 4, !dbg !2289
  invoke void @_ZNSt6vectorIPiSaIS0_EE6resizeEj(%"class.std::vector.0"* %48, i32 %50)
          to label %51 unwind label %68, !dbg !2290

; <label>:51:                                     ; preds = %47
  %52 = getelementptr inbounds %class.Lane, %class.Lane* %9, i32 0, i32 28, !dbg !2291
  %53 = getelementptr inbounds %class.Lane, %class.Lane* %9, i32 0, i32 0, !dbg !2292
  %54 = load i32, i32* %53, align 4, !dbg !2292
  invoke void @_ZNSt6vectorIPiSaIS0_EE6resizeEj(%"class.std::vector.0"* %52, i32 %54)
          to label %55 unwind label %68, !dbg !2293

; <label>:55:                                     ; preds = %51
  %56 = getelementptr inbounds %class.Lane, %class.Lane* %9, i32 0, i32 21, !dbg !2294
  %57 = getelementptr inbounds %class.Lane, %class.Lane* %9, i32 0, i32 0, !dbg !2295
  %58 = load i32, i32* %57, align 4, !dbg !2295
  invoke void @_ZNSt6vectorIPiSaIS0_EE6resizeEj(%"class.std::vector.0"* %56, i32 %58)
          to label %59 unwind label %68, !dbg !2296

; <label>:59:                                     ; preds = %55
  %60 = getelementptr inbounds %class.Lane, %class.Lane* %9, i32 0, i32 22, !dbg !2297
  %61 = getelementptr inbounds %class.Lane, %class.Lane* %9, i32 0, i32 0, !dbg !2298
  %62 = load i32, i32* %61, align 4, !dbg !2298
  invoke void @_ZNSt6vectorIPiSaIS0_EE6resizeEj(%"class.std::vector.0"* %60, i32 %62)
          to label %63 unwind label %68, !dbg !2299

; <label>:63:                                     ; preds = %59
  %64 = getelementptr inbounds %class.Lane, %class.Lane* %9, i32 0, i32 24, !dbg !2300
  %65 = getelementptr inbounds %class.Lane, %class.Lane* %9, i32 0, i32 0, !dbg !2301
  %66 = load i32, i32* %65, align 4, !dbg !2301
  invoke void @_ZNSt6vectorIPiSaIS0_EE6resizeEj(%"class.std::vector.0"* %64, i32 %66)
          to label %67 unwind label %68, !dbg !2302

; <label>:67:                                     ; preds = %63
  ret %class.Lane* %9, !dbg !2303

; <label>:68:                                     ; preds = %63, %59, %55, %51, %47, %43, %3
  %69 = landingpad { i8*, i32 }
          cleanup, !dbg !2304
  %70 = extractvalue { i8*, i32 } %69, 0, !dbg !2304
  store i8* %70, i8** %7, align 4, !dbg !2304
  %71 = extractvalue { i8*, i32 } %69, 1, !dbg !2304
  store i32 %71, i32* %8, align 4, !dbg !2304
  %72 = call %"class.std::vector.0"* @_ZNSt6vectorIPiSaIS0_EED2Ev(%"class.std::vector.0"* %22) #3, !dbg !2304
  %73 = call %"class.std::vector.0"* @_ZNSt6vectorIPiSaIS0_EED2Ev(%"class.std::vector.0"* %20) #3, !dbg !2306
  %74 = call %"class.std::vector.0"* @_ZNSt6vectorIPiSaIS0_EED2Ev(%"class.std::vector.0"* %18) #3, !dbg !2308
  %75 = call %"class.std::vector.0"* @_ZNSt6vectorIPiSaIS0_EED2Ev(%"class.std::vector.0"* %16) #3, !dbg !2310
  %76 = call %"class.std::vector.0"* @_ZNSt6vectorIPiSaIS0_EED2Ev(%"class.std::vector.0"* %14) #3, !dbg !2312
  %77 = call %"class.std::vector"* @_ZNSt6vectorIPfSaIS0_EED2Ev(%"class.std::vector"* %12) #3, !dbg !2314
  %78 = call %"class.std::vector"* @_ZNSt6vectorIPfSaIS0_EED2Ev(%"class.std::vector"* %10) #3, !dbg !2316
  br label %79, !dbg !2304

; <label>:79:                                     ; preds = %68
  %80 = load i8*, i8** %7, align 4, !dbg !2318
  %81 = load i32, i32* %8, align 4, !dbg !2318
  %82 = insertvalue { i8*, i32 } undef, i8* %80, 0, !dbg !2318
  %83 = insertvalue { i8*, i32 } %82, i32 %81, 1, !dbg !2318
  resume { i8*, i32 } %83, !dbg !2318
}

; Function Attrs: nounwind readnone
declare void @llvm.dbg.declare(metadata, metadata, metadata) #4

; Function Attrs: nounwind
define linkonce_odr %"class.std::vector"* @_ZNSt6vectorIPfSaIS0_EEC2Ev(%"class.std::vector"* returned) unnamed_addr #5 comdat align 2 personality i8* bitcast (i32 (...)* @__gxx_personality_v0 to i8*) !dbg !2320 !xidane.fname !2321 !xidane.function_declaration_type !1763 !xidane.function_declaration_filename !2322 {
  %2 = alloca %"class.std::vector"*, align 4
  store %"class.std::vector"* %0, %"class.std::vector"** %2, align 4
  call void @llvm.dbg.declare(metadata %"class.std::vector"** %2, metadata !2323, metadata !2236), !dbg !2325
  %3 = load %"class.std::vector"*, %"class.std::vector"** %2, align 4
  %4 = bitcast %"class.std::vector"* %3 to %"struct.std::_Vector_base"*, !dbg !2326
  %5 = invoke %"struct.std::_Vector_base"* @_ZNSt12_Vector_baseIPfSaIS0_EEC2Ev(%"struct.std::_Vector_base"* %4)
          to label %6 unwind label %7, !dbg !2327

; <label>:6:                                      ; preds = %1
  ret %"class.std::vector"* %3, !dbg !2328

; <label>:7:                                      ; preds = %1
  %8 = landingpad { i8*, i32 }
          catch i8* null, !dbg !2330
  %9 = extractvalue { i8*, i32 } %8, 0, !dbg !2330
  call void @__clang_call_terminate(i8* %9) #14, !dbg !2330
  unreachable, !dbg !2330
}

; Function Attrs: nounwind
define linkonce_odr %"class.std::vector.0"* @_ZNSt6vectorIPiSaIS0_EEC2Ev(%"class.std::vector.0"* returned) unnamed_addr #5 comdat align 2 personality i8* bitcast (i32 (...)* @__gxx_personality_v0 to i8*) !dbg !2332 !xidane.fname !2321 !xidane.function_declaration_type !1763 !xidane.function_declaration_filename !2322 {
  %2 = alloca %"class.std::vector.0"*, align 4
  store %"class.std::vector.0"* %0, %"class.std::vector.0"** %2, align 4
  call void @llvm.dbg.declare(metadata %"class.std::vector.0"** %2, metadata !2333, metadata !2236), !dbg !2335
  %3 = load %"class.std::vector.0"*, %"class.std::vector.0"** %2, align 4
  %4 = bitcast %"class.std::vector.0"* %3 to %"struct.std::_Vector_base.1"*, !dbg !2336
  %5 = invoke %"struct.std::_Vector_base.1"* @_ZNSt12_Vector_baseIPiSaIS0_EEC2Ev(%"struct.std::_Vector_base.1"* %4)
          to label %6 unwind label %7, !dbg !2337

; <label>:6:                                      ; preds = %1
  ret %"class.std::vector.0"* %3, !dbg !2338

; <label>:7:                                      ; preds = %1
  %8 = landingpad { i8*, i32 }
          catch i8* null, !dbg !2340
  %9 = extractvalue { i8*, i32 } %8, 0, !dbg !2340
  call void @__clang_call_terminate(i8* %9) #14, !dbg !2340
  unreachable, !dbg !2340
}

define linkonce_odr void @_ZNSt6vectorIPfSaIS0_EE6resizeEj(%"class.std::vector"*, i32) #0 comdat align 2 !dbg !2342 !xidane.fname !2343 !xidane.function_declaration_type !2344 !xidane.function_declaration_filename !2322 {
  %3 = alloca %"class.std::vector"*, align 4
  %4 = alloca i32, align 4
  store %"class.std::vector"* %0, %"class.std::vector"** %3, align 4
  call void @llvm.dbg.declare(metadata %"class.std::vector"** %3, metadata !2345, metadata !2236), !dbg !2346
  store i32 %1, i32* %4, align 4
  call void @llvm.dbg.declare(metadata i32* %4, metadata !2347, metadata !2236), !dbg !2348
  %5 = load %"class.std::vector"*, %"class.std::vector"** %3, align 4
  %6 = load i32, i32* %4, align 4, !dbg !2349
  %7 = call i32 @_ZNKSt6vectorIPfSaIS0_EE4sizeEv(%"class.std::vector"* %5) #3, !dbg !2351
  %8 = icmp ugt i32 %6, %7, !dbg !2352
  br i1 %8, label %9, label %13, !dbg !2353

; <label>:9:                                      ; preds = %2
  %10 = load i32, i32* %4, align 4, !dbg !2354
  %11 = call i32 @_ZNKSt6vectorIPfSaIS0_EE4sizeEv(%"class.std::vector"* %5) #3, !dbg !2355
  %12 = sub i32 %10, %11, !dbg !2356
  call void @_ZNSt6vectorIPfSaIS0_EE17_M_default_appendEj(%"class.std::vector"* %5, i32 %12), !dbg !2357
  br label %25, !dbg !2359

; <label>:13:                                     ; preds = %2
  %14 = load i32, i32* %4, align 4, !dbg !2360
  %15 = call i32 @_ZNKSt6vectorIPfSaIS0_EE4sizeEv(%"class.std::vector"* %5) #3, !dbg !2362
  %16 = icmp ult i32 %14, %15, !dbg !2363
  br i1 %16, label %17, label %24, !dbg !2364

; <label>:17:                                     ; preds = %13
  %18 = bitcast %"class.std::vector"* %5 to %"struct.std::_Vector_base"*, !dbg !2365
  %19 = getelementptr inbounds %"struct.std::_Vector_base", %"struct.std::_Vector_base"* %18, i32 0, i32 0, !dbg !2365
  %20 = getelementptr inbounds %"struct.std::_Vector_base<float *, std::allocator<float *> >::_Vector_impl", %"struct.std::_Vector_base<float *, std::allocator<float *> >::_Vector_impl"* %19, i32 0, i32 0, !dbg !2366
  %21 = load float**, float*** %20, align 4, !dbg !2366
  %22 = load i32, i32* %4, align 4, !dbg !2367
  %23 = getelementptr inbounds float*, float** %21, i32 %22, !dbg !2368
  call void @_ZNSt6vectorIPfSaIS0_EE15_M_erase_at_endEPS0_(%"class.std::vector"* %5, float** %23) #3, !dbg !2369
  br label %24, !dbg !2369

; <label>:24:                                     ; preds = %17, %13
  br label %25

; <label>:25:                                     ; preds = %24, %9
  ret void, !dbg !2370
}

declare i32 @__gxx_personality_v0(...)

define linkonce_odr void @_ZNSt6vectorIPiSaIS0_EE6resizeEj(%"class.std::vector.0"*, i32) #0 comdat align 2 !dbg !2371 !xidane.fname !2343 !xidane.function_declaration_type !2344 !xidane.function_declaration_filename !2322 {
  %3 = alloca %"class.std::vector.0"*, align 4
  %4 = alloca i32, align 4
  store %"class.std::vector.0"* %0, %"class.std::vector.0"** %3, align 4
  call void @llvm.dbg.declare(metadata %"class.std::vector.0"** %3, metadata !2372, metadata !2236), !dbg !2373
  store i32 %1, i32* %4, align 4
  call void @llvm.dbg.declare(metadata i32* %4, metadata !2374, metadata !2236), !dbg !2375
  %5 = load %"class.std::vector.0"*, %"class.std::vector.0"** %3, align 4
  %6 = load i32, i32* %4, align 4, !dbg !2376
  %7 = call i32 @_ZNKSt6vectorIPiSaIS0_EE4sizeEv(%"class.std::vector.0"* %5) #3, !dbg !2378
  %8 = icmp ugt i32 %6, %7, !dbg !2379
  br i1 %8, label %9, label %13, !dbg !2380

; <label>:9:                                      ; preds = %2
  %10 = load i32, i32* %4, align 4, !dbg !2381
  %11 = call i32 @_ZNKSt6vectorIPiSaIS0_EE4sizeEv(%"class.std::vector.0"* %5) #3, !dbg !2382
  %12 = sub i32 %10, %11, !dbg !2383
  call void @_ZNSt6vectorIPiSaIS0_EE17_M_default_appendEj(%"class.std::vector.0"* %5, i32 %12), !dbg !2384
  br label %25, !dbg !2386

; <label>:13:                                     ; preds = %2
  %14 = load i32, i32* %4, align 4, !dbg !2387
  %15 = call i32 @_ZNKSt6vectorIPiSaIS0_EE4sizeEv(%"class.std::vector.0"* %5) #3, !dbg !2389
  %16 = icmp ult i32 %14, %15, !dbg !2390
  br i1 %16, label %17, label %24, !dbg !2391

; <label>:17:                                     ; preds = %13
  %18 = bitcast %"class.std::vector.0"* %5 to %"struct.std::_Vector_base.1"*, !dbg !2392
  %19 = getelementptr inbounds %"struct.std::_Vector_base.1", %"struct.std::_Vector_base.1"* %18, i32 0, i32 0, !dbg !2392
  %20 = getelementptr inbounds %"struct.std::_Vector_base<int *, std::allocator<int *> >::_Vector_impl", %"struct.std::_Vector_base<int *, std::allocator<int *> >::_Vector_impl"* %19, i32 0, i32 0, !dbg !2393
  %21 = load i32**, i32*** %20, align 4, !dbg !2393
  %22 = load i32, i32* %4, align 4, !dbg !2394
  %23 = getelementptr inbounds i32*, i32** %21, i32 %22, !dbg !2395
  call void @_ZNSt6vectorIPiSaIS0_EE15_M_erase_at_endEPS0_(%"class.std::vector.0"* %5, i32** %23) #3, !dbg !2396
  br label %24, !dbg !2396

; <label>:24:                                     ; preds = %17, %13
  br label %25

; <label>:25:                                     ; preds = %24, %9
  ret void, !dbg !2397
}

; Function Attrs: nounwind
define linkonce_odr %"class.std::vector.0"* @_ZNSt6vectorIPiSaIS0_EED2Ev(%"class.std::vector.0"* returned) unnamed_addr #5 comdat align 2 personality i8* bitcast (i32 (...)* @__gxx_personality_v0 to i8*) !dbg !2398 !xidane.fname !2399 !xidane.function_declaration_type !1763 !xidane.function_declaration_filename !2322 {
  %2 = alloca %"class.std::vector.0"*, align 4
  %3 = alloca i8*
  %4 = alloca i32
  store %"class.std::vector.0"* %0, %"class.std::vector.0"** %2, align 4
  call void @llvm.dbg.declare(metadata %"class.std::vector.0"** %2, metadata !2400, metadata !2236), !dbg !2401
  %5 = load %"class.std::vector.0"*, %"class.std::vector.0"** %2, align 4
  %6 = bitcast %"class.std::vector.0"* %5 to %"struct.std::_Vector_base.1"*, !dbg !2402
  %7 = getelementptr inbounds %"struct.std::_Vector_base.1", %"struct.std::_Vector_base.1"* %6, i32 0, i32 0, !dbg !2402
  %8 = getelementptr inbounds %"struct.std::_Vector_base<int *, std::allocator<int *> >::_Vector_impl", %"struct.std::_Vector_base<int *, std::allocator<int *> >::_Vector_impl"* %7, i32 0, i32 0, !dbg !2404
  %9 = load i32**, i32*** %8, align 4, !dbg !2404
  %10 = bitcast %"class.std::vector.0"* %5 to %"struct.std::_Vector_base.1"*, !dbg !2405
  %11 = getelementptr inbounds %"struct.std::_Vector_base.1", %"struct.std::_Vector_base.1"* %10, i32 0, i32 0, !dbg !2405
  %12 = getelementptr inbounds %"struct.std::_Vector_base<int *, std::allocator<int *> >::_Vector_impl", %"struct.std::_Vector_base<int *, std::allocator<int *> >::_Vector_impl"* %11, i32 0, i32 1, !dbg !2406
  %13 = load i32**, i32*** %12, align 4, !dbg !2406
  %14 = bitcast %"class.std::vector.0"* %5 to %"struct.std::_Vector_base.1"*, !dbg !2407
  %15 = call dereferenceable(1) %"class.std::allocator.2"* @_ZNSt12_Vector_baseIPiSaIS0_EE19_M_get_Tp_allocatorEv(%"struct.std::_Vector_base.1"* %14) #3, !dbg !2407
  invoke void @_ZSt8_DestroyIPPiS0_EvT_S2_RSaIT0_E(i32** %9, i32** %13, %"class.std::allocator.2"* dereferenceable(1) %15)
          to label %16 unwind label %19, !dbg !2408

; <label>:16:                                     ; preds = %1
  %17 = bitcast %"class.std::vector.0"* %5 to %"struct.std::_Vector_base.1"*, !dbg !2409
  %18 = call %"struct.std::_Vector_base.1"* @_ZNSt12_Vector_baseIPiSaIS0_EED2Ev(%"struct.std::_Vector_base.1"* %17) #3, !dbg !2409
  ret %"class.std::vector.0"* %5, !dbg !2409

; <label>:19:                                     ; preds = %1
  %20 = landingpad { i8*, i32 }
          catch i8* null, !dbg !2411
  %21 = extractvalue { i8*, i32 } %20, 0, !dbg !2411
  store i8* %21, i8** %3, align 4, !dbg !2411
  %22 = extractvalue { i8*, i32 } %20, 1, !dbg !2411
  store i32 %22, i32* %4, align 4, !dbg !2411
  %23 = bitcast %"class.std::vector.0"* %5 to %"struct.std::_Vector_base.1"*, !dbg !2411
  %24 = call %"struct.std::_Vector_base.1"* @_ZNSt12_Vector_baseIPiSaIS0_EED2Ev(%"struct.std::_Vector_base.1"* %23) #3, !dbg !2411
  br label %25, !dbg !2411

; <label>:25:                                     ; preds = %19
  %26 = load i8*, i8** %3, align 4, !dbg !2413
  call void @__clang_call_terminate(i8* %26) #14, !dbg !2413
  unreachable, !dbg !2413
}

; Function Attrs: nounwind
define linkonce_odr %"class.std::vector"* @_ZNSt6vectorIPfSaIS0_EED2Ev(%"class.std::vector"* returned) unnamed_addr #5 comdat align 2 personality i8* bitcast (i32 (...)* @__gxx_personality_v0 to i8*) !dbg !2415 !xidane.fname !2399 !xidane.function_declaration_type !1763 !xidane.function_declaration_filename !2322 {
  %2 = alloca %"class.std::vector"*, align 4
  %3 = alloca i8*
  %4 = alloca i32
  store %"class.std::vector"* %0, %"class.std::vector"** %2, align 4
  call void @llvm.dbg.declare(metadata %"class.std::vector"** %2, metadata !2416, metadata !2236), !dbg !2417
  %5 = load %"class.std::vector"*, %"class.std::vector"** %2, align 4
  %6 = bitcast %"class.std::vector"* %5 to %"struct.std::_Vector_base"*, !dbg !2418
  %7 = getelementptr inbounds %"struct.std::_Vector_base", %"struct.std::_Vector_base"* %6, i32 0, i32 0, !dbg !2418
  %8 = getelementptr inbounds %"struct.std::_Vector_base<float *, std::allocator<float *> >::_Vector_impl", %"struct.std::_Vector_base<float *, std::allocator<float *> >::_Vector_impl"* %7, i32 0, i32 0, !dbg !2420
  %9 = load float**, float*** %8, align 4, !dbg !2420
  %10 = bitcast %"class.std::vector"* %5 to %"struct.std::_Vector_base"*, !dbg !2421
  %11 = getelementptr inbounds %"struct.std::_Vector_base", %"struct.std::_Vector_base"* %10, i32 0, i32 0, !dbg !2421
  %12 = getelementptr inbounds %"struct.std::_Vector_base<float *, std::allocator<float *> >::_Vector_impl", %"struct.std::_Vector_base<float *, std::allocator<float *> >::_Vector_impl"* %11, i32 0, i32 1, !dbg !2422
  %13 = load float**, float*** %12, align 4, !dbg !2422
  %14 = bitcast %"class.std::vector"* %5 to %"struct.std::_Vector_base"*, !dbg !2423
  %15 = call dereferenceable(1) %"class.std::allocator"* @_ZNSt12_Vector_baseIPfSaIS0_EE19_M_get_Tp_allocatorEv(%"struct.std::_Vector_base"* %14) #3, !dbg !2423
  invoke void @_ZSt8_DestroyIPPfS0_EvT_S2_RSaIT0_E(float** %9, float** %13, %"class.std::allocator"* dereferenceable(1) %15)
          to label %16 unwind label %19, !dbg !2424

; <label>:16:                                     ; preds = %1
  %17 = bitcast %"class.std::vector"* %5 to %"struct.std::_Vector_base"*, !dbg !2425
  %18 = call %"struct.std::_Vector_base"* @_ZNSt12_Vector_baseIPfSaIS0_EED2Ev(%"struct.std::_Vector_base"* %17) #3, !dbg !2425
  ret %"class.std::vector"* %5, !dbg !2425

; <label>:19:                                     ; preds = %1
  %20 = landingpad { i8*, i32 }
          catch i8* null, !dbg !2427
  %21 = extractvalue { i8*, i32 } %20, 0, !dbg !2427
  store i8* %21, i8** %3, align 4, !dbg !2427
  %22 = extractvalue { i8*, i32 } %20, 1, !dbg !2427
  store i32 %22, i32* %4, align 4, !dbg !2427
  %23 = bitcast %"class.std::vector"* %5 to %"struct.std::_Vector_base"*, !dbg !2427
  %24 = call %"struct.std::_Vector_base"* @_ZNSt12_Vector_baseIPfSaIS0_EED2Ev(%"struct.std::_Vector_base"* %23) #3, !dbg !2427
  br label %25, !dbg !2427

; <label>:25:                                     ; preds = %19
  %26 = load i8*, i8** %3, align 4, !dbg !2429
  call void @__clang_call_terminate(i8* %26) #14, !dbg !2429
  unreachable, !dbg !2429
}

define i32 @_ZN4Lane9GetXValueEPfi(%class.Lane*, float*, i32) #0 align 2 !dbg !2431 !xidane.fname !2432 !xidane.function_declaration_type !2433 !xidane.function_declaration_filename !2233 {
  %4 = alloca %class.Lane*, align 4
  %5 = alloca float*, align 4
  %6 = alloca i32, align 4
  store %class.Lane* %0, %class.Lane** %4, align 4
  call void @llvm.dbg.declare(metadata %class.Lane** %4, metadata !2434, metadata !2236), !dbg !2435
  store float* %1, float** %5, align 4
  call void @llvm.dbg.declare(metadata float** %5, metadata !2436, metadata !2236), !dbg !2437
  store i32 %2, i32* %6, align 4
  call void @llvm.dbg.declare(metadata i32* %6, metadata !2438, metadata !2236), !dbg !2439
  %7 = load %class.Lane*, %class.Lane** %4, align 4
  %8 = load float*, float** %5, align 4, !dbg !2440
  %9 = getelementptr inbounds float, float* %8, i32 0, !dbg !2440
  %10 = load float, float* %9, align 4, !dbg !2440
  %11 = fpext float %10 to double, !dbg !2440
  %12 = load i32, i32* %6, align 4, !dbg !2441
  %13 = call double @_ZSt3powIiiEN9__gnu_cxx11__promote_2IT_T0_NS0_9__promoteIS2_Xsr3std12__is_integerIS2_EE7__valueEE6__typeENS4_IS3_Xsr3std12__is_integerIS3_EE7__valueEE6__typeEE6__typeES2_S3_(i32 %12, i32 2), !dbg !2442
  %14 = fmul double %11, %13, !dbg !2443
  %15 = load float*, float** %5, align 4, !dbg !2444
  %16 = getelementptr inbounds float, float* %15, i32 1, !dbg !2444
  %17 = load float, float* %16, align 4, !dbg !2444
  %18 = load i32, i32* %6, align 4, !dbg !2445
  %19 = sitofp i32 %18 to float, !dbg !2445
  %20 = fmul float %17, %19, !dbg !2446
  %21 = fpext float %20 to double, !dbg !2444
  %22 = fadd double %14, %21, !dbg !2447
  %23 = load float*, float** %5, align 4, !dbg !2448
  %24 = getelementptr inbounds float, float* %23, i32 2, !dbg !2448
  %25 = load float, float* %24, align 4, !dbg !2448
  %26 = fpext float %25 to double, !dbg !2448
  %27 = fadd double %22, %26, !dbg !2449
  %28 = fptosi double %27 to i32, !dbg !2440
  ret i32 %28, !dbg !2450
}

; Function Attrs: inlinehint nounwind
define linkonce_odr double @_ZSt3powIiiEN9__gnu_cxx11__promote_2IT_T0_NS0_9__promoteIS2_Xsr3std12__is_integerIS2_EE7__valueEE6__typeENS4_IS3_Xsr3std12__is_integerIS3_EE7__valueEE6__typeEE6__typeES2_S3_(i32, i32) #6 comdat !dbg !24 !xidane.fname !2451 !xidane.function_declaration_type !2452 !xidane.function_declaration_filename !2453 {
  %3 = alloca i32, align 4
  %4 = alloca i32, align 4
  store i32 %0, i32* %3, align 4
  call void @llvm.dbg.declare(metadata i32* %3, metadata !2454, metadata !2236), !dbg !2455
  store i32 %1, i32* %4, align 4
  call void @llvm.dbg.declare(metadata i32* %4, metadata !2456, metadata !2236), !dbg !2457
  %5 = load i32, i32* %3, align 4, !dbg !2458
  %6 = sitofp i32 %5 to double, !dbg !2458
  %7 = load i32, i32* %4, align 4, !dbg !2459
  %8 = sitofp i32 %7 to double, !dbg !2459
  %9 = call double @pow(double %6, double %8) #3, !dbg !2460
  ret double %9, !dbg !2461
}

define zeroext i1 @_ZN4Lane13CheckIsItLaneEPfS0_(%class.Lane*, float*, float*) #0 align 2 !dbg !2462 !xidane.fname !2463 !xidane.function_declaration_type !2464 !xidane.function_declaration_filename !2233 {
  %4 = alloca i1, align 1
  %5 = alloca %class.Lane*, align 4
  %6 = alloca float*, align 4
  %7 = alloca float*, align 4
  %8 = alloca i32, align 4
  %9 = alloca [3 x i32], align 4
  %10 = alloca [3 x i32], align 4
  %11 = alloca i32, align 4
  %12 = alloca i32, align 4
  %13 = alloca [3 x i32], align 4
  %14 = alloca i32, align 4
  %15 = alloca [3 x i32], align 4
  %16 = alloca [3 x i32], align 4
  %17 = alloca i32, align 4
  %18 = alloca i32, align 4
  %19 = alloca i32, align 4
  %20 = alloca i32, align 4
  %21 = alloca i32, align 4
  store %class.Lane* %0, %class.Lane** %5, align 4
  call void @llvm.dbg.declare(metadata %class.Lane** %5, metadata !2465, metadata !2236), !dbg !2466
  store float* %1, float** %6, align 4
  call void @llvm.dbg.declare(metadata float** %6, metadata !2467, metadata !2236), !dbg !2468
  store float* %2, float** %7, align 4
  call void @llvm.dbg.declare(metadata float** %7, metadata !2469, metadata !2236), !dbg !2470
  %22 = load %class.Lane*, %class.Lane** %5, align 4
  call void @llvm.dbg.declare(metadata i32* %8, metadata !2471, metadata !2236), !dbg !2472
  store i32 60, i32* %8, align 4, !dbg !2472
  call void @llvm.dbg.declare(metadata [3 x i32]* %9, metadata !2473, metadata !2236), !dbg !2475
  call void @llvm.dbg.declare(metadata [3 x i32]* %10, metadata !2476, metadata !2236), !dbg !2477
  %23 = load float*, float** %6, align 4, !dbg !2478
  %24 = getelementptr inbounds %class.Lane, %class.Lane* %22, i32 0, i32 8, !dbg !2479
  %25 = load i32, i32* %24, align 4, !dbg !2479
  %26 = call i32 @_ZN4Lane9GetXValueEPfi(%class.Lane* %22, float* %23, i32 %25), !dbg !2480
  %27 = getelementptr inbounds [3 x i32], [3 x i32]* %9, i32 0, i32 0, !dbg !2481
  store i32 %26, i32* %27, align 4, !dbg !2482
  %28 = load float*, float** %7, align 4, !dbg !2483
  %29 = getelementptr inbounds %class.Lane, %class.Lane* %22, i32 0, i32 8, !dbg !2484
  %30 = load i32, i32* %29, align 4, !dbg !2484
  %31 = call i32 @_ZN4Lane9GetXValueEPfi(%class.Lane* %22, float* %28, i32 %30), !dbg !2485
  %32 = getelementptr inbounds [3 x i32], [3 x i32]* %10, i32 0, i32 0, !dbg !2486
  store i32 %31, i32* %32, align 4, !dbg !2487
  %33 = load float*, float** %6, align 4, !dbg !2488
  %34 = getelementptr inbounds %class.Lane, %class.Lane* %22, i32 0, i32 8, !dbg !2489
  %35 = load i32, i32* %34, align 4, !dbg !2489
  %36 = mul nsw i32 %35, 80, !dbg !2490
  %37 = sdiv i32 %36, 100, !dbg !2491
  %38 = call i32 @_ZN4Lane9GetXValueEPfi(%class.Lane* %22, float* %33, i32 %37), !dbg !2492
  %39 = getelementptr inbounds [3 x i32], [3 x i32]* %9, i32 0, i32 1, !dbg !2493
  store i32 %38, i32* %39, align 4, !dbg !2494
  %40 = load float*, float** %7, align 4, !dbg !2495
  %41 = getelementptr inbounds %class.Lane, %class.Lane* %22, i32 0, i32 8, !dbg !2496
  %42 = load i32, i32* %41, align 4, !dbg !2496
  %43 = mul nsw i32 %42, 80, !dbg !2497
  %44 = sdiv i32 %43, 100, !dbg !2498
  %45 = call i32 @_ZN4Lane9GetXValueEPfi(%class.Lane* %22, float* %40, i32 %44), !dbg !2499
  %46 = getelementptr inbounds [3 x i32], [3 x i32]* %10, i32 0, i32 1, !dbg !2500
  store i32 %45, i32* %46, align 4, !dbg !2501
  %47 = load float*, float** %6, align 4, !dbg !2502
  %48 = getelementptr inbounds %class.Lane, %class.Lane* %22, i32 0, i32 8, !dbg !2503
  %49 = load i32, i32* %48, align 4, !dbg !2503
  %50 = mul nsw i32 %49, 50, !dbg !2504
  %51 = sdiv i32 %50, 100, !dbg !2505
  %52 = call i32 @_ZN4Lane9GetXValueEPfi(%class.Lane* %22, float* %47, i32 %51), !dbg !2506
  %53 = getelementptr inbounds [3 x i32], [3 x i32]* %9, i32 0, i32 2, !dbg !2507
  store i32 %52, i32* %53, align 4, !dbg !2508
  %54 = load float*, float** %7, align 4, !dbg !2509
  %55 = getelementptr inbounds %class.Lane, %class.Lane* %22, i32 0, i32 8, !dbg !2510
  %56 = load i32, i32* %55, align 4, !dbg !2510
  %57 = mul nsw i32 %56, 50, !dbg !2511
  %58 = sdiv i32 %57, 100, !dbg !2512
  %59 = call i32 @_ZN4Lane9GetXValueEPfi(%class.Lane* %22, float* %54, i32 %58), !dbg !2513
  %60 = getelementptr inbounds [3 x i32], [3 x i32]* %10, i32 0, i32 2, !dbg !2514
  store i32 %59, i32* %60, align 4, !dbg !2515
  call void @llvm.dbg.declare(metadata i32* %11, metadata !2516, metadata !2236), !dbg !2517
  call void @llvm.dbg.declare(metadata i32* %12, metadata !2518, metadata !2236), !dbg !2519
  call void @llvm.dbg.declare(metadata [3 x i32]* %13, metadata !2520, metadata !2236), !dbg !2521
  %61 = getelementptr inbounds [3 x i32], [3 x i32]* %10, i32 0, i32 0, !dbg !2522
  %62 = load i32, i32* %61, align 4, !dbg !2522
  %63 = getelementptr inbounds [3 x i32], [3 x i32]* %9, i32 0, i32 0, !dbg !2523
  %64 = load i32, i32* %63, align 4, !dbg !2523
  %65 = sub nsw i32 %62, %64, !dbg !2524
  %66 = getelementptr inbounds [3 x i32], [3 x i32]* %13, i32 0, i32 0, !dbg !2525
  store i32 %65, i32* %66, align 4, !dbg !2526
  store i32 %65, i32* %12, align 4, !dbg !2527
  store i32 %65, i32* %11, align 4, !dbg !2528
  %67 = getelementptr inbounds [3 x i32], [3 x i32]* %10, i32 0, i32 1, !dbg !2529
  %68 = load i32, i32* %67, align 4, !dbg !2529
  %69 = getelementptr inbounds [3 x i32], [3 x i32]* %9, i32 0, i32 1, !dbg !2530
  %70 = load i32, i32* %69, align 4, !dbg !2530
  %71 = sub nsw i32 %68, %70, !dbg !2531
  %72 = getelementptr inbounds [3 x i32], [3 x i32]* %13, i32 0, i32 1, !dbg !2532
  store i32 %71, i32* %72, align 4, !dbg !2533
  %73 = getelementptr inbounds [3 x i32], [3 x i32]* %10, i32 0, i32 2, !dbg !2534
  %74 = load i32, i32* %73, align 4, !dbg !2534
  %75 = getelementptr inbounds [3 x i32], [3 x i32]* %9, i32 0, i32 2, !dbg !2535
  %76 = load i32, i32* %75, align 4, !dbg !2535
  %77 = sub nsw i32 %74, %76, !dbg !2536
  %78 = getelementptr inbounds [3 x i32], [3 x i32]* %13, i32 0, i32 2, !dbg !2537
  store i32 %77, i32* %78, align 4, !dbg !2538
  call void @llvm.dbg.declare(metadata i32* %14, metadata !2539, metadata !2236), !dbg !2541
  store i32 1, i32* %14, align 4, !dbg !2541
  br label %79, !dbg !2542

; <label>:79:                                     ; preds = %103, %3
  %80 = load i32, i32* %14, align 4, !dbg !2543
  %81 = icmp slt i32 %80, 3, !dbg !2546
  br i1 %81, label %82, label %106, !dbg !2547

; <label>:82:                                     ; preds = %79
  %83 = load i32, i32* %14, align 4, !dbg !2548
  %84 = getelementptr inbounds [3 x i32], [3 x i32]* %13, i32 0, i32 %83, !dbg !2551
  %85 = load i32, i32* %84, align 4, !dbg !2551
  %86 = load i32, i32* %12, align 4, !dbg !2552
  %87 = icmp sgt i32 %85, %86, !dbg !2553
  br i1 %87, label %88, label %92, !dbg !2554

; <label>:88:                                     ; preds = %82
  %89 = load i32, i32* %14, align 4, !dbg !2555
  %90 = getelementptr inbounds [3 x i32], [3 x i32]* %13, i32 0, i32 %89, !dbg !2557
  %91 = load i32, i32* %90, align 4, !dbg !2557
  store i32 %91, i32* %12, align 4, !dbg !2558
  br label %92, !dbg !2559

; <label>:92:                                     ; preds = %88, %82
  %93 = load i32, i32* %14, align 4, !dbg !2560
  %94 = getelementptr inbounds [3 x i32], [3 x i32]* %13, i32 0, i32 %93, !dbg !2562
  %95 = load i32, i32* %94, align 4, !dbg !2562
  %96 = load i32, i32* %11, align 4, !dbg !2563
  %97 = icmp slt i32 %95, %96, !dbg !2564
  br i1 %97, label %98, label %102, !dbg !2565

; <label>:98:                                     ; preds = %92
  %99 = load i32, i32* %14, align 4, !dbg !2566
  %100 = getelementptr inbounds [3 x i32], [3 x i32]* %13, i32 0, i32 %99, !dbg !2568
  %101 = load i32, i32* %100, align 4, !dbg !2568
  store i32 %101, i32* %11, align 4, !dbg !2569
  br label %102, !dbg !2570

; <label>:102:                                    ; preds = %98, %92
  br label %103, !dbg !2571

; <label>:103:                                    ; preds = %102
  %104 = load i32, i32* %14, align 4, !dbg !2572
  %105 = add nsw i32 %104, 1, !dbg !2572
  store i32 %105, i32* %14, align 4, !dbg !2572
  br label %79, !dbg !2574, !llvm.loop !2575

; <label>:106:                                    ; preds = %79
  call void @llvm.dbg.declare(metadata [3 x i32]* %15, metadata !2577, metadata !2236), !dbg !2578
  call void @llvm.dbg.declare(metadata [3 x i32]* %16, metadata !2579, metadata !2236), !dbg !2580
  call void @llvm.dbg.declare(metadata i32* %17, metadata !2581, metadata !2236), !dbg !2582
  call void @llvm.dbg.declare(metadata i32* %18, metadata !2583, metadata !2236), !dbg !2584
  %107 = getelementptr inbounds [3 x i32], [3 x i32]* %9, i32 0, i32 0, !dbg !2585
  %108 = load i32, i32* %107, align 4, !dbg !2585
  %109 = getelementptr inbounds %class.Lane, %class.Lane* %22, i32 0, i32 22, !dbg !2586
  %110 = getelementptr inbounds %class.Lane, %class.Lane* %22, i32 0, i32 2, !dbg !2587
  %111 = load i32, i32* %110, align 4, !dbg !2587
  %112 = call dereferenceable(4) i32** @_ZNSt6vectorIPiSaIS0_EEixEj(%"class.std::vector.0"* %109, i32 %111) #3, !dbg !2586
  %113 = load i32*, i32** %112, align 4, !dbg !2586
  %114 = getelementptr inbounds i32, i32* %113, i32 0, !dbg !2586
  %115 = load i32, i32* %114, align 4, !dbg !2586
  %116 = sub nsw i32 %108, %115, !dbg !2588
  %117 = call i32 @abs(i32 %116) #4, !dbg !2589
  %118 = getelementptr inbounds [3 x i32], [3 x i32]* %15, i32 0, i32 0, !dbg !2591
  store i32 %117, i32* %118, align 4, !dbg !2592
  store i32 %117, i32* %18, align 4, !dbg !2593
  store i32 %117, i32* %17, align 4, !dbg !2594
  %119 = getelementptr inbounds [3 x i32], [3 x i32]* %9, i32 0, i32 1, !dbg !2595
  %120 = load i32, i32* %119, align 4, !dbg !2595
  %121 = getelementptr inbounds %class.Lane, %class.Lane* %22, i32 0, i32 22, !dbg !2596
  %122 = getelementptr inbounds %class.Lane, %class.Lane* %22, i32 0, i32 2, !dbg !2597
  %123 = load i32, i32* %122, align 4, !dbg !2597
  %124 = call dereferenceable(4) i32** @_ZNSt6vectorIPiSaIS0_EEixEj(%"class.std::vector.0"* %121, i32 %123) #3, !dbg !2596
  %125 = load i32*, i32** %124, align 4, !dbg !2596
  %126 = getelementptr inbounds i32, i32* %125, i32 1, !dbg !2596
  %127 = load i32, i32* %126, align 4, !dbg !2596
  %128 = sub nsw i32 %120, %127, !dbg !2598
  %129 = call i32 @abs(i32 %128) #4, !dbg !2599
  %130 = getelementptr inbounds [3 x i32], [3 x i32]* %15, i32 0, i32 1, !dbg !2600
  store i32 %129, i32* %130, align 4, !dbg !2601
  %131 = getelementptr inbounds [3 x i32], [3 x i32]* %9, i32 0, i32 2, !dbg !2602
  %132 = load i32, i32* %131, align 4, !dbg !2602
  %133 = getelementptr inbounds %class.Lane, %class.Lane* %22, i32 0, i32 22, !dbg !2603
  %134 = getelementptr inbounds %class.Lane, %class.Lane* %22, i32 0, i32 2, !dbg !2604
  %135 = load i32, i32* %134, align 4, !dbg !2604
  %136 = call dereferenceable(4) i32** @_ZNSt6vectorIPiSaIS0_EEixEj(%"class.std::vector.0"* %133, i32 %135) #3, !dbg !2603
  %137 = load i32*, i32** %136, align 4, !dbg !2603
  %138 = getelementptr inbounds i32, i32* %137, i32 2, !dbg !2603
  %139 = load i32, i32* %138, align 4, !dbg !2603
  %140 = sub nsw i32 %132, %139, !dbg !2605
  %141 = call i32 @abs(i32 %140) #4, !dbg !2606
  %142 = getelementptr inbounds [3 x i32], [3 x i32]* %15, i32 0, i32 2, !dbg !2607
  store i32 %141, i32* %142, align 4, !dbg !2608
  call void @llvm.dbg.declare(metadata i32* %19, metadata !2609, metadata !2236), !dbg !2610
  call void @llvm.dbg.declare(metadata i32* %20, metadata !2611, metadata !2236), !dbg !2612
  %143 = getelementptr inbounds [3 x i32], [3 x i32]* %10, i32 0, i32 0, !dbg !2613
  %144 = load i32, i32* %143, align 4, !dbg !2613
  %145 = getelementptr inbounds %class.Lane, %class.Lane* %22, i32 0, i32 21, !dbg !2614
  %146 = getelementptr inbounds %class.Lane, %class.Lane* %22, i32 0, i32 3, !dbg !2615
  %147 = load i32, i32* %146, align 4, !dbg !2615
  %148 = call dereferenceable(4) i32** @_ZNSt6vectorIPiSaIS0_EEixEj(%"class.std::vector.0"* %145, i32 %147) #3, !dbg !2614
  %149 = load i32*, i32** %148, align 4, !dbg !2614
  %150 = getelementptr inbounds i32, i32* %149, i32 0, !dbg !2614
  %151 = load i32, i32* %150, align 4, !dbg !2614
  %152 = sub nsw i32 %144, %151, !dbg !2616
  %153 = call i32 @abs(i32 %152) #4, !dbg !2617
  %154 = getelementptr inbounds [3 x i32], [3 x i32]* %16, i32 0, i32 0, !dbg !2618
  store i32 %153, i32* %154, align 4, !dbg !2619
  store i32 %153, i32* %20, align 4, !dbg !2620
  store i32 %153, i32* %19, align 4, !dbg !2621
  %155 = getelementptr inbounds [3 x i32], [3 x i32]* %10, i32 0, i32 1, !dbg !2622
  %156 = load i32, i32* %155, align 4, !dbg !2622
  %157 = getelementptr inbounds %class.Lane, %class.Lane* %22, i32 0, i32 21, !dbg !2623
  %158 = getelementptr inbounds %class.Lane, %class.Lane* %22, i32 0, i32 3, !dbg !2624
  %159 = load i32, i32* %158, align 4, !dbg !2624
  %160 = call dereferenceable(4) i32** @_ZNSt6vectorIPiSaIS0_EEixEj(%"class.std::vector.0"* %157, i32 %159) #3, !dbg !2623
  %161 = load i32*, i32** %160, align 4, !dbg !2623
  %162 = getelementptr inbounds i32, i32* %161, i32 1, !dbg !2623
  %163 = load i32, i32* %162, align 4, !dbg !2623
  %164 = sub nsw i32 %156, %163, !dbg !2625
  %165 = call i32 @abs(i32 %164) #4, !dbg !2626
  %166 = getelementptr inbounds [3 x i32], [3 x i32]* %16, i32 0, i32 1, !dbg !2627
  store i32 %165, i32* %166, align 4, !dbg !2628
  %167 = getelementptr inbounds [3 x i32], [3 x i32]* %10, i32 0, i32 2, !dbg !2629
  %168 = load i32, i32* %167, align 4, !dbg !2629
  %169 = getelementptr inbounds %class.Lane, %class.Lane* %22, i32 0, i32 21, !dbg !2630
  %170 = getelementptr inbounds %class.Lane, %class.Lane* %22, i32 0, i32 3, !dbg !2631
  %171 = load i32, i32* %170, align 4, !dbg !2631
  %172 = call dereferenceable(4) i32** @_ZNSt6vectorIPiSaIS0_EEixEj(%"class.std::vector.0"* %169, i32 %171) #3, !dbg !2630
  %173 = load i32*, i32** %172, align 4, !dbg !2630
  %174 = getelementptr inbounds i32, i32* %173, i32 2, !dbg !2630
  %175 = load i32, i32* %174, align 4, !dbg !2630
  %176 = sub nsw i32 %168, %175, !dbg !2632
  %177 = call i32 @abs(i32 %176) #4, !dbg !2633
  %178 = getelementptr inbounds [3 x i32], [3 x i32]* %16, i32 0, i32 2, !dbg !2634
  store i32 %177, i32* %178, align 4, !dbg !2635
  call void @llvm.dbg.declare(metadata i32* %21, metadata !2636, metadata !2236), !dbg !2638
  store i32 1, i32* %21, align 4, !dbg !2638
  br label %179, !dbg !2639

; <label>:179:                                    ; preds = %223, %106
  %180 = load i32, i32* %21, align 4, !dbg !2640
  %181 = icmp slt i32 %180, 3, !dbg !2643
  br i1 %181, label %182, label %226, !dbg !2644

; <label>:182:                                    ; preds = %179
  %183 = load i32, i32* %21, align 4, !dbg !2645
  %184 = getelementptr inbounds [3 x i32], [3 x i32]* %15, i32 0, i32 %183, !dbg !2648
  %185 = load i32, i32* %184, align 4, !dbg !2648
  %186 = load i32, i32* %18, align 4, !dbg !2649
  %187 = icmp sgt i32 %185, %186, !dbg !2650
  br i1 %187, label %188, label %192, !dbg !2651

; <label>:188:                                    ; preds = %182
  %189 = load i32, i32* %21, align 4, !dbg !2652
  %190 = getelementptr inbounds [3 x i32], [3 x i32]* %15, i32 0, i32 %189, !dbg !2654
  %191 = load i32, i32* %190, align 4, !dbg !2654
  store i32 %191, i32* %18, align 4, !dbg !2655
  br label %192, !dbg !2656

; <label>:192:                                    ; preds = %188, %182
  %193 = load i32, i32* %21, align 4, !dbg !2657
  %194 = getelementptr inbounds [3 x i32], [3 x i32]* %15, i32 0, i32 %193, !dbg !2659
  %195 = load i32, i32* %194, align 4, !dbg !2659
  %196 = load i32, i32* %17, align 4, !dbg !2660
  %197 = icmp slt i32 %195, %196, !dbg !2661
  br i1 %197, label %198, label %202, !dbg !2662

; <label>:198:                                    ; preds = %192
  %199 = load i32, i32* %21, align 4, !dbg !2663
  %200 = getelementptr inbounds [3 x i32], [3 x i32]* %15, i32 0, i32 %199, !dbg !2665
  %201 = load i32, i32* %200, align 4, !dbg !2665
  store i32 %201, i32* %17, align 4, !dbg !2666
  br label %202, !dbg !2667

; <label>:202:                                    ; preds = %198, %192
  %203 = load i32, i32* %21, align 4, !dbg !2668
  %204 = getelementptr inbounds [3 x i32], [3 x i32]* %16, i32 0, i32 %203, !dbg !2670
  %205 = load i32, i32* %204, align 4, !dbg !2670
  %206 = load i32, i32* %20, align 4, !dbg !2671
  %207 = icmp sgt i32 %205, %206, !dbg !2672
  br i1 %207, label %208, label %212, !dbg !2673

; <label>:208:                                    ; preds = %202
  %209 = load i32, i32* %21, align 4, !dbg !2674
  %210 = getelementptr inbounds [3 x i32], [3 x i32]* %16, i32 0, i32 %209, !dbg !2676
  %211 = load i32, i32* %210, align 4, !dbg !2676
  store i32 %211, i32* %20, align 4, !dbg !2677
  br label %212, !dbg !2678

; <label>:212:                                    ; preds = %208, %202
  %213 = load i32, i32* %21, align 4, !dbg !2679
  %214 = getelementptr inbounds [3 x i32], [3 x i32]* %16, i32 0, i32 %213, !dbg !2681
  %215 = load i32, i32* %214, align 4, !dbg !2681
  %216 = load i32, i32* %19, align 4, !dbg !2682
  %217 = icmp slt i32 %215, %216, !dbg !2683
  br i1 %217, label %218, label %222, !dbg !2684

; <label>:218:                                    ; preds = %212
  %219 = load i32, i32* %21, align 4, !dbg !2685
  %220 = getelementptr inbounds [3 x i32], [3 x i32]* %16, i32 0, i32 %219, !dbg !2687
  %221 = load i32, i32* %220, align 4, !dbg !2687
  store i32 %221, i32* %19, align 4, !dbg !2688
  br label %222, !dbg !2689

; <label>:222:                                    ; preds = %218, %212
  br label %223, !dbg !2690

; <label>:223:                                    ; preds = %222
  %224 = load i32, i32* %21, align 4, !dbg !2691
  %225 = add nsw i32 %224, 1, !dbg !2691
  store i32 %225, i32* %21, align 4, !dbg !2691
  br label %179, !dbg !2693, !llvm.loop !2694

; <label>:226:                                    ; preds = %179
  %227 = load i32, i32* %12, align 4, !dbg !2696
  %228 = load i32, i32* %11, align 4, !dbg !2698
  %229 = sub nsw i32 %227, %228, !dbg !2699
  %230 = icmp sgt i32 %229, 350, !dbg !2700
  br i1 %230, label %237, label %231, !dbg !2701

; <label>:231:                                    ; preds = %226
  %232 = load i32, i32* %11, align 4, !dbg !2702
  %233 = icmp slt i32 %232, 200, !dbg !2704
  br i1 %233, label %237, label %234, !dbg !2705

; <label>:234:                                    ; preds = %231
  %235 = load i32, i32* %12, align 4, !dbg !2706
  %236 = icmp sgt i32 %235, 975, !dbg !2708
  br i1 %236, label %237, label %238, !dbg !2709

; <label>:237:                                    ; preds = %234, %231, %226
  store i1 false, i1* %4, align 1, !dbg !2710
  br label %239, !dbg !2710

; <label>:238:                                    ; preds = %234
  store i1 true, i1* %4, align 1, !dbg !2712
  br label %239, !dbg !2712

; <label>:239:                                    ; preds = %238, %237
  %240 = load i1, i1* %4, align 1, !dbg !2714
  ret i1 %240, !dbg !2714
}

; Function Attrs: nounwind readnone
declare !xidane.fname !2715 !xidane.function_declaration_type !2716 !xidane.function_declaration_filename !2717 !xidane.ExternC !2718 i32 @abs(i32) #7

; Function Attrs: nounwind
define linkonce_odr dereferenceable(4) i32** @_ZNSt6vectorIPiSaIS0_EEixEj(%"class.std::vector.0"*, i32) #5 comdat align 2 !dbg !2719 !xidane.fname !2720 !xidane.function_declaration_type !2721 !xidane.function_declaration_filename !2322 {
  %3 = alloca %"class.std::vector.0"*, align 4
  %4 = alloca i32, align 4
  store %"class.std::vector.0"* %0, %"class.std::vector.0"** %3, align 4
  call void @llvm.dbg.declare(metadata %"class.std::vector.0"** %3, metadata !2722, metadata !2236), !dbg !2723
  store i32 %1, i32* %4, align 4
  call void @llvm.dbg.declare(metadata i32* %4, metadata !2724, metadata !2236), !dbg !2725
  %5 = load %"class.std::vector.0"*, %"class.std::vector.0"** %3, align 4
  %6 = bitcast %"class.std::vector.0"* %5 to %"struct.std::_Vector_base.1"*, !dbg !2726
  %7 = getelementptr inbounds %"struct.std::_Vector_base.1", %"struct.std::_Vector_base.1"* %6, i32 0, i32 0, !dbg !2726
  %8 = getelementptr inbounds %"struct.std::_Vector_base<int *, std::allocator<int *> >::_Vector_impl", %"struct.std::_Vector_base<int *, std::allocator<int *> >::_Vector_impl"* %7, i32 0, i32 0, !dbg !2727
  %9 = load i32**, i32*** %8, align 4, !dbg !2727
  %10 = load i32, i32* %4, align 4, !dbg !2728
  %11 = getelementptr inbounds i32*, i32** %9, i32 %10, !dbg !2729
  ret i32** %11, !dbg !2730
}

define void @_ZN4Lane13AddCoefficentEPfS0_(%class.Lane*, float*, float*) #0 align 2 !dbg !2731 !xidane.fname !2732 !xidane.function_declaration_type !2733 !xidane.function_declaration_filename !2233 {
  %4 = alloca %class.Lane*, align 4
  %5 = alloca float*, align 4
  %6 = alloca float*, align 4
  %7 = alloca float*, align 4
  %8 = alloca float*, align 4
  store %class.Lane* %0, %class.Lane** %4, align 4
  call void @llvm.dbg.declare(metadata %class.Lane** %4, metadata !2734, metadata !2236), !dbg !2735
  store float* %1, float** %5, align 4
  call void @llvm.dbg.declare(metadata float** %5, metadata !2736, metadata !2236), !dbg !2737
  store float* %2, float** %6, align 4
  call void @llvm.dbg.declare(metadata float** %6, metadata !2738, metadata !2236), !dbg !2739
  %9 = load %class.Lane*, %class.Lane** %4, align 4
  %10 = getelementptr inbounds %class.Lane, %class.Lane* %9, i32 0, i32 3, !dbg !2740
  %11 = load i32, i32* %10, align 4, !dbg !2740
  %12 = icmp eq i32 %11, -1, !dbg !2742
  br i1 %12, label %17, label %13, !dbg !2743

; <label>:13:                                     ; preds = %3
  %14 = getelementptr inbounds %class.Lane, %class.Lane* %9, i32 0, i32 2, !dbg !2744
  %15 = load i32, i32* %14, align 4, !dbg !2744
  %16 = icmp eq i32 %15, -1, !dbg !2746
  br i1 %16, label %17, label %22, !dbg !2747

; <label>:17:                                     ; preds = %13, %3
  %18 = getelementptr inbounds %class.Lane, %class.Lane* %9, i32 0, i32 5, !dbg !2748
  store i8 1, i8* %18, align 4, !dbg !2750
  %19 = getelementptr inbounds %class.Lane, %class.Lane* %9, i32 0, i32 6, !dbg !2751
  store i8 1, i8* %19, align 1, !dbg !2752
  %20 = load float*, float** %5, align 4, !dbg !2753
  %21 = load float*, float** %6, align 4, !dbg !2754
  call void @_ZN4Lane22CalculateLineDistancesEPfS0_(%class.Lane* %9, float* %20, float* %21), !dbg !2755
  br label %22, !dbg !2756

; <label>:22:                                     ; preds = %17, %13
  %23 = load float*, float** %5, align 4, !dbg !2757
  %24 = load float*, float** %6, align 4, !dbg !2759
  %25 = call zeroext i1 @_ZN4Lane13CheckIsItLaneEPfS0_(%class.Lane* %9, float* %23, float* %24), !dbg !2760
  br i1 %25, label %26, label %372, !dbg !2761

; <label>:26:                                     ; preds = %22
  %27 = load float*, float** %5, align 4, !dbg !2762
  %28 = getelementptr inbounds float, float* %27, i32 0, !dbg !2762
  %29 = load float, float* %28, align 4, !dbg !2762
  %30 = getelementptr inbounds %class.Lane, %class.Lane* %9, i32 0, i32 11, !dbg !2764
  %31 = getelementptr inbounds [3 x float], [3 x float]* %30, i32 0, i32 0, !dbg !2764
  store float %29, float* %31, align 4, !dbg !2765
  %32 = load float*, float** %5, align 4, !dbg !2766
  %33 = getelementptr inbounds float, float* %32, i32 1, !dbg !2766
  %34 = load float, float* %33, align 4, !dbg !2766
  %35 = getelementptr inbounds %class.Lane, %class.Lane* %9, i32 0, i32 11, !dbg !2767
  %36 = getelementptr inbounds [3 x float], [3 x float]* %35, i32 0, i32 1, !dbg !2767
  store float %34, float* %36, align 4, !dbg !2768
  %37 = load float*, float** %5, align 4, !dbg !2769
  %38 = getelementptr inbounds float, float* %37, i32 2, !dbg !2769
  %39 = load float, float* %38, align 4, !dbg !2769
  %40 = getelementptr inbounds %class.Lane, %class.Lane* %9, i32 0, i32 11, !dbg !2770
  %41 = getelementptr inbounds [3 x float], [3 x float]* %40, i32 0, i32 2, !dbg !2770
  store float %39, float* %41, align 4, !dbg !2771
  %42 = load float*, float** %6, align 4, !dbg !2772
  %43 = getelementptr inbounds float, float* %42, i32 0, !dbg !2772
  %44 = load float, float* %43, align 4, !dbg !2772
  %45 = getelementptr inbounds %class.Lane, %class.Lane* %9, i32 0, i32 12, !dbg !2773
  %46 = getelementptr inbounds [3 x float], [3 x float]* %45, i32 0, i32 0, !dbg !2773
  store float %44, float* %46, align 4, !dbg !2774
  %47 = load float*, float** %6, align 4, !dbg !2775
  %48 = getelementptr inbounds float, float* %47, i32 1, !dbg !2775
  %49 = load float, float* %48, align 4, !dbg !2775
  %50 = getelementptr inbounds %class.Lane, %class.Lane* %9, i32 0, i32 12, !dbg !2776
  %51 = getelementptr inbounds [3 x float], [3 x float]* %50, i32 0, i32 1, !dbg !2776
  store float %49, float* %51, align 4, !dbg !2777
  %52 = load float*, float** %6, align 4, !dbg !2778
  %53 = getelementptr inbounds float, float* %52, i32 2, !dbg !2778
  %54 = load float, float* %53, align 4, !dbg !2778
  %55 = getelementptr inbounds %class.Lane, %class.Lane* %9, i32 0, i32 12, !dbg !2779
  %56 = getelementptr inbounds [3 x float], [3 x float]* %55, i32 0, i32 2, !dbg !2779
  store float %54, float* %56, align 4, !dbg !2780
  %57 = call i8* @_Znaj(i32 12) #15, !dbg !2781
  %58 = bitcast i8* %57 to float*, !dbg !2781
  %59 = getelementptr inbounds %class.Lane, %class.Lane* %9, i32 0, i32 13, !dbg !2782
  store float* %58, float** %59, align 4, !dbg !2783
  %60 = call i8* @_Znaj(i32 12) #15, !dbg !2784
  %61 = bitcast i8* %60 to float*, !dbg !2784
  %62 = getelementptr inbounds %class.Lane, %class.Lane* %9, i32 0, i32 14, !dbg !2785
  store float* %61, float** %62, align 4, !dbg !2786
  %63 = load float*, float** %5, align 4, !dbg !2787
  %64 = getelementptr inbounds float, float* %63, i32 0, !dbg !2787
  %65 = load float, float* %64, align 4, !dbg !2787
  %66 = getelementptr inbounds %class.Lane, %class.Lane* %9, i32 0, i32 13, !dbg !2788
  %67 = load float*, float** %66, align 4, !dbg !2788
  %68 = getelementptr inbounds float, float* %67, i32 0, !dbg !2788
  store float %65, float* %68, align 4, !dbg !2789
  %69 = load float*, float** %5, align 4, !dbg !2790
  %70 = getelementptr inbounds float, float* %69, i32 1, !dbg !2790
  %71 = load float, float* %70, align 4, !dbg !2790
  %72 = getelementptr inbounds %class.Lane, %class.Lane* %9, i32 0, i32 13, !dbg !2791
  %73 = load float*, float** %72, align 4, !dbg !2791
  %74 = getelementptr inbounds float, float* %73, i32 1, !dbg !2791
  store float %71, float* %74, align 4, !dbg !2792
  %75 = load float*, float** %5, align 4, !dbg !2793
  %76 = getelementptr inbounds float, float* %75, i32 2, !dbg !2793
  %77 = load float, float* %76, align 4, !dbg !2793
  %78 = getelementptr inbounds %class.Lane, %class.Lane* %9, i32 0, i32 13, !dbg !2794
  %79 = load float*, float** %78, align 4, !dbg !2794
  %80 = getelementptr inbounds float, float* %79, i32 2, !dbg !2794
  store float %77, float* %80, align 4, !dbg !2795
  %81 = load float*, float** %6, align 4, !dbg !2796
  %82 = getelementptr inbounds float, float* %81, i32 0, !dbg !2796
  %83 = load float, float* %82, align 4, !dbg !2796
  %84 = getelementptr inbounds %class.Lane, %class.Lane* %9, i32 0, i32 14, !dbg !2797
  %85 = load float*, float** %84, align 4, !dbg !2797
  %86 = getelementptr inbounds float, float* %85, i32 0, !dbg !2797
  store float %83, float* %86, align 4, !dbg !2798
  %87 = load float*, float** %6, align 4, !dbg !2799
  %88 = getelementptr inbounds float, float* %87, i32 1, !dbg !2799
  %89 = load float, float* %88, align 4, !dbg !2799
  %90 = getelementptr inbounds %class.Lane, %class.Lane* %9, i32 0, i32 14, !dbg !2800
  %91 = load float*, float** %90, align 4, !dbg !2800
  %92 = getelementptr inbounds float, float* %91, i32 1, !dbg !2800
  store float %89, float* %92, align 4, !dbg !2801
  %93 = load float*, float** %6, align 4, !dbg !2802
  %94 = getelementptr inbounds float, float* %93, i32 2, !dbg !2802
  %95 = load float, float* %94, align 4, !dbg !2802
  %96 = getelementptr inbounds %class.Lane, %class.Lane* %9, i32 0, i32 14, !dbg !2803
  %97 = load float*, float** %96, align 4, !dbg !2803
  %98 = getelementptr inbounds float, float* %97, i32 2, !dbg !2803
  store float %95, float* %98, align 4, !dbg !2804
  %99 = getelementptr inbounds %class.Lane, %class.Lane* %9, i32 0, i32 1, !dbg !2805
  %100 = load i32, i32* %99, align 4, !dbg !2806
  %101 = add nsw i32 %100, 1, !dbg !2806
  store i32 %101, i32* %99, align 4, !dbg !2806
  %102 = getelementptr inbounds %class.Lane, %class.Lane* %9, i32 0, i32 0, !dbg !2807
  %103 = load i32, i32* %102, align 4, !dbg !2807
  %104 = getelementptr inbounds %class.Lane, %class.Lane* %9, i32 0, i32 1, !dbg !2808
  %105 = load i32, i32* %104, align 4, !dbg !2809
  %106 = srem i32 %105, %103, !dbg !2809
  store i32 %106, i32* %104, align 4, !dbg !2809
  %107 = getelementptr inbounds %class.Lane, %class.Lane* %9, i32 0, i32 16, !dbg !2810
  %108 = getelementptr inbounds %class.Lane, %class.Lane* %9, i32 0, i32 1, !dbg !2812
  %109 = load i32, i32* %108, align 4, !dbg !2812
  %110 = call dereferenceable(4) float** @_ZNSt6vectorIPfSaIS0_EEixEj(%"class.std::vector"* %107, i32 %109) #3, !dbg !2810
  %111 = load float*, float** %110, align 4, !dbg !2810
  %112 = icmp ne float* %111, null, !dbg !2813
  br i1 %112, label %113, label %220, !dbg !2814

; <label>:113:                                    ; preds = %26
  call void @llvm.dbg.declare(metadata float** %7, metadata !2815, metadata !2236), !dbg !2817
  %114 = getelementptr inbounds %class.Lane, %class.Lane* %9, i32 0, i32 16, !dbg !2818
  %115 = getelementptr inbounds %class.Lane, %class.Lane* %9, i32 0, i32 1, !dbg !2819
  %116 = load i32, i32* %115, align 4, !dbg !2819
  %117 = call dereferenceable(4) float** @_ZNSt6vectorIPfSaIS0_EEixEj(%"class.std::vector"* %114, i32 %116) #3, !dbg !2818
  %118 = load float*, float** %117, align 4, !dbg !2818
  store float* %118, float** %7, align 4, !dbg !2817
  call void @llvm.dbg.declare(metadata float** %8, metadata !2820, metadata !2236), !dbg !2821
  %119 = getelementptr inbounds %class.Lane, %class.Lane* %9, i32 0, i32 15, !dbg !2822
  %120 = getelementptr inbounds %class.Lane, %class.Lane* %9, i32 0, i32 1, !dbg !2823
  %121 = load i32, i32* %120, align 4, !dbg !2823
  %122 = call dereferenceable(4) float** @_ZNSt6vectorIPfSaIS0_EEixEj(%"class.std::vector"* %119, i32 %121) #3, !dbg !2822
  %123 = load float*, float** %122, align 4, !dbg !2822
  store float* %123, float** %8, align 4, !dbg !2821
  %124 = getelementptr inbounds %class.Lane, %class.Lane* %9, i32 0, i32 17, !dbg !2824
  %125 = getelementptr inbounds [3 x float], [3 x float]* %124, i32 0, i32 0, !dbg !2824
  %126 = load float, float* %125, align 4, !dbg !2824
  %127 = fmul float %126, 1.000000e+01, !dbg !2825
  %128 = getelementptr inbounds %class.Lane, %class.Lane* %9, i32 0, i32 13, !dbg !2826
  %129 = load float*, float** %128, align 4, !dbg !2826
  %130 = getelementptr inbounds float, float* %129, i32 0, !dbg !2826
  %131 = load float, float* %130, align 4, !dbg !2826
  %132 = fadd float %127, %131, !dbg !2827
  %133 = load float*, float** %8, align 4, !dbg !2828
  %134 = getelementptr inbounds float, float* %133, i32 0, !dbg !2828
  %135 = load float, float* %134, align 4, !dbg !2828
  %136 = fsub float %132, %135, !dbg !2829
  %137 = fdiv float %136, 1.000000e+01, !dbg !2830
  %138 = getelementptr inbounds %class.Lane, %class.Lane* %9, i32 0, i32 17, !dbg !2831
  %139 = getelementptr inbounds [3 x float], [3 x float]* %138, i32 0, i32 0, !dbg !2831
  store float %137, float* %139, align 4, !dbg !2832
  %140 = getelementptr inbounds %class.Lane, %class.Lane* %9, i32 0, i32 17, !dbg !2833
  %141 = getelementptr inbounds [3 x float], [3 x float]* %140, i32 0, i32 1, !dbg !2833
  %142 = load float, float* %141, align 4, !dbg !2833
  %143 = fmul float %142, 1.000000e+01, !dbg !2834
  %144 = getelementptr inbounds %class.Lane, %class.Lane* %9, i32 0, i32 13, !dbg !2835
  %145 = load float*, float** %144, align 4, !dbg !2835
  %146 = getelementptr inbounds float, float* %145, i32 1, !dbg !2835
  %147 = load float, float* %146, align 4, !dbg !2835
  %148 = fadd float %143, %147, !dbg !2836
  %149 = load float*, float** %8, align 4, !dbg !2837
  %150 = getelementptr inbounds float, float* %149, i32 1, !dbg !2837
  %151 = load float, float* %150, align 4, !dbg !2837
  %152 = fsub float %148, %151, !dbg !2838
  %153 = fdiv float %152, 1.000000e+01, !dbg !2839
  %154 = getelementptr inbounds %class.Lane, %class.Lane* %9, i32 0, i32 17, !dbg !2840
  %155 = getelementptr inbounds [3 x float], [3 x float]* %154, i32 0, i32 1, !dbg !2840
  store float %153, float* %155, align 4, !dbg !2841
  %156 = getelementptr inbounds %class.Lane, %class.Lane* %9, i32 0, i32 17, !dbg !2842
  %157 = getelementptr inbounds [3 x float], [3 x float]* %156, i32 0, i32 2, !dbg !2842
  %158 = load float, float* %157, align 4, !dbg !2842
  %159 = fmul float %158, 1.000000e+01, !dbg !2843
  %160 = getelementptr inbounds %class.Lane, %class.Lane* %9, i32 0, i32 13, !dbg !2844
  %161 = load float*, float** %160, align 4, !dbg !2844
  %162 = getelementptr inbounds float, float* %161, i32 2, !dbg !2844
  %163 = load float, float* %162, align 4, !dbg !2844
  %164 = fadd float %159, %163, !dbg !2845
  %165 = load float*, float** %8, align 4, !dbg !2846
  %166 = getelementptr inbounds float, float* %165, i32 2, !dbg !2846
  %167 = load float, float* %166, align 4, !dbg !2846
  %168 = fsub float %164, %167, !dbg !2847
  %169 = fdiv float %168, 1.000000e+01, !dbg !2848
  %170 = getelementptr inbounds %class.Lane, %class.Lane* %9, i32 0, i32 17, !dbg !2849
  %171 = getelementptr inbounds [3 x float], [3 x float]* %170, i32 0, i32 2, !dbg !2849
  store float %169, float* %171, align 4, !dbg !2850
  %172 = getelementptr inbounds %class.Lane, %class.Lane* %9, i32 0, i32 18, !dbg !2851
  %173 = getelementptr inbounds [3 x float], [3 x float]* %172, i32 0, i32 0, !dbg !2851
  %174 = load float, float* %173, align 4, !dbg !2851
  %175 = fmul float %174, 1.000000e+01, !dbg !2852
  %176 = getelementptr inbounds %class.Lane, %class.Lane* %9, i32 0, i32 14, !dbg !2853
  %177 = load float*, float** %176, align 4, !dbg !2853
  %178 = getelementptr inbounds float, float* %177, i32 0, !dbg !2853
  %179 = load float, float* %178, align 4, !dbg !2853
  %180 = fadd float %175, %179, !dbg !2854
  %181 = load float*, float** %7, align 4, !dbg !2855
  %182 = getelementptr inbounds float, float* %181, i32 0, !dbg !2855
  %183 = load float, float* %182, align 4, !dbg !2855
  %184 = fsub float %180, %183, !dbg !2856
  %185 = fdiv float %184, 1.000000e+01, !dbg !2857
  %186 = getelementptr inbounds %class.Lane, %class.Lane* %9, i32 0, i32 18, !dbg !2858
  %187 = getelementptr inbounds [3 x float], [3 x float]* %186, i32 0, i32 0, !dbg !2858
  store float %185, float* %187, align 4, !dbg !2859
  %188 = getelementptr inbounds %class.Lane, %class.Lane* %9, i32 0, i32 18, !dbg !2860
  %189 = getelementptr inbounds [3 x float], [3 x float]* %188, i32 0, i32 1, !dbg !2860
  %190 = load float, float* %189, align 4, !dbg !2860
  %191 = fmul float %190, 1.000000e+01, !dbg !2861
  %192 = getelementptr inbounds %class.Lane, %class.Lane* %9, i32 0, i32 14, !dbg !2862
  %193 = load float*, float** %192, align 4, !dbg !2862
  %194 = getelementptr inbounds float, float* %193, i32 1, !dbg !2862
  %195 = load float, float* %194, align 4, !dbg !2862
  %196 = fadd float %191, %195, !dbg !2863
  %197 = load float*, float** %7, align 4, !dbg !2864
  %198 = getelementptr inbounds float, float* %197, i32 1, !dbg !2864
  %199 = load float, float* %198, align 4, !dbg !2864
  %200 = fsub float %196, %199, !dbg !2865
  %201 = fdiv float %200, 1.000000e+01, !dbg !2866
  %202 = getelementptr inbounds %class.Lane, %class.Lane* %9, i32 0, i32 18, !dbg !2867
  %203 = getelementptr inbounds [3 x float], [3 x float]* %202, i32 0, i32 1, !dbg !2867
  store float %201, float* %203, align 4, !dbg !2868
  %204 = getelementptr inbounds %class.Lane, %class.Lane* %9, i32 0, i32 18, !dbg !2869
  %205 = getelementptr inbounds [3 x float], [3 x float]* %204, i32 0, i32 2, !dbg !2869
  %206 = load float, float* %205, align 4, !dbg !2869
  %207 = fmul float %206, 1.000000e+01, !dbg !2870
  %208 = getelementptr inbounds %class.Lane, %class.Lane* %9, i32 0, i32 14, !dbg !2871
  %209 = load float*, float** %208, align 4, !dbg !2871
  %210 = getelementptr inbounds float, float* %209, i32 2, !dbg !2871
  %211 = load float, float* %210, align 4, !dbg !2871
  %212 = fadd float %207, %211, !dbg !2872
  %213 = load float*, float** %7, align 4, !dbg !2873
  %214 = getelementptr inbounds float, float* %213, i32 2, !dbg !2873
  %215 = load float, float* %214, align 4, !dbg !2873
  %216 = fsub float %212, %215, !dbg !2874
  %217 = fdiv float %216, 1.000000e+01, !dbg !2875
  %218 = getelementptr inbounds %class.Lane, %class.Lane* %9, i32 0, i32 18, !dbg !2876
  %219 = getelementptr inbounds [3 x float], [3 x float]* %218, i32 0, i32 2, !dbg !2876
  store float %217, float* %219, align 4, !dbg !2877
  br label %335, !dbg !2878

; <label>:220:                                    ; preds = %26
  %221 = getelementptr inbounds %class.Lane, %class.Lane* %9, i32 0, i32 17, !dbg !2879
  %222 = getelementptr inbounds [3 x float], [3 x float]* %221, i32 0, i32 0, !dbg !2879
  %223 = load float, float* %222, align 4, !dbg !2879
  %224 = getelementptr inbounds %class.Lane, %class.Lane* %9, i32 0, i32 1, !dbg !2881
  %225 = load i32, i32* %224, align 4, !dbg !2881
  %226 = sitofp i32 %225 to float, !dbg !2881
  %227 = fmul float %223, %226, !dbg !2882
  %228 = getelementptr inbounds %class.Lane, %class.Lane* %9, i32 0, i32 13, !dbg !2883
  %229 = load float*, float** %228, align 4, !dbg !2883
  %230 = getelementptr inbounds float, float* %229, i32 0, !dbg !2883
  %231 = load float, float* %230, align 4, !dbg !2883
  %232 = fadd float %227, %231, !dbg !2884
  %233 = getelementptr inbounds %class.Lane, %class.Lane* %9, i32 0, i32 1, !dbg !2885
  %234 = load i32, i32* %233, align 4, !dbg !2885
  %235 = add nsw i32 %234, 1, !dbg !2886
  %236 = sitofp i32 %235 to float, !dbg !2887
  %237 = fdiv float %232, %236, !dbg !2888
  %238 = getelementptr inbounds %class.Lane, %class.Lane* %9, i32 0, i32 17, !dbg !2889
  %239 = getelementptr inbounds [3 x float], [3 x float]* %238, i32 0, i32 0, !dbg !2889
  store float %237, float* %239, align 4, !dbg !2890
  %240 = getelementptr inbounds %class.Lane, %class.Lane* %9, i32 0, i32 17, !dbg !2891
  %241 = getelementptr inbounds [3 x float], [3 x float]* %240, i32 0, i32 1, !dbg !2891
  %242 = load float, float* %241, align 4, !dbg !2891
  %243 = getelementptr inbounds %class.Lane, %class.Lane* %9, i32 0, i32 1, !dbg !2892
  %244 = load i32, i32* %243, align 4, !dbg !2892
  %245 = sitofp i32 %244 to float, !dbg !2892
  %246 = fmul float %242, %245, !dbg !2893
  %247 = getelementptr inbounds %class.Lane, %class.Lane* %9, i32 0, i32 13, !dbg !2894
  %248 = load float*, float** %247, align 4, !dbg !2894
  %249 = getelementptr inbounds float, float* %248, i32 1, !dbg !2894
  %250 = load float, float* %249, align 4, !dbg !2894
  %251 = fadd float %246, %250, !dbg !2895
  %252 = getelementptr inbounds %class.Lane, %class.Lane* %9, i32 0, i32 1, !dbg !2896
  %253 = load i32, i32* %252, align 4, !dbg !2896
  %254 = add nsw i32 %253, 1, !dbg !2897
  %255 = sitofp i32 %254 to float, !dbg !2898
  %256 = fdiv float %251, %255, !dbg !2899
  %257 = getelementptr inbounds %class.Lane, %class.Lane* %9, i32 0, i32 17, !dbg !2900
  %258 = getelementptr inbounds [3 x float], [3 x float]* %257, i32 0, i32 1, !dbg !2900
  store float %256, float* %258, align 4, !dbg !2901
  %259 = getelementptr inbounds %class.Lane, %class.Lane* %9, i32 0, i32 17, !dbg !2902
  %260 = getelementptr inbounds [3 x float], [3 x float]* %259, i32 0, i32 2, !dbg !2902
  %261 = load float, float* %260, align 4, !dbg !2902
  %262 = getelementptr inbounds %class.Lane, %class.Lane* %9, i32 0, i32 1, !dbg !2903
  %263 = load i32, i32* %262, align 4, !dbg !2903
  %264 = sitofp i32 %263 to float, !dbg !2903
  %265 = fmul float %261, %264, !dbg !2904
  %266 = getelementptr inbounds %class.Lane, %class.Lane* %9, i32 0, i32 13, !dbg !2905
  %267 = load float*, float** %266, align 4, !dbg !2905
  %268 = getelementptr inbounds float, float* %267, i32 2, !dbg !2905
  %269 = load float, float* %268, align 4, !dbg !2905
  %270 = fadd float %265, %269, !dbg !2906
  %271 = getelementptr inbounds %class.Lane, %class.Lane* %9, i32 0, i32 1, !dbg !2907
  %272 = load i32, i32* %271, align 4, !dbg !2907
  %273 = add nsw i32 %272, 1, !dbg !2908
  %274 = sitofp i32 %273 to float, !dbg !2909
  %275 = fdiv float %270, %274, !dbg !2910
  %276 = getelementptr inbounds %class.Lane, %class.Lane* %9, i32 0, i32 17, !dbg !2911
  %277 = getelementptr inbounds [3 x float], [3 x float]* %276, i32 0, i32 2, !dbg !2911
  store float %275, float* %277, align 4, !dbg !2912
  %278 = getelementptr inbounds %class.Lane, %class.Lane* %9, i32 0, i32 18, !dbg !2913
  %279 = getelementptr inbounds [3 x float], [3 x float]* %278, i32 0, i32 0, !dbg !2913
  %280 = load float, float* %279, align 4, !dbg !2913
  %281 = getelementptr inbounds %class.Lane, %class.Lane* %9, i32 0, i32 1, !dbg !2914
  %282 = load i32, i32* %281, align 4, !dbg !2914
  %283 = sitofp i32 %282 to float, !dbg !2914
  %284 = fmul float %280, %283, !dbg !2915
  %285 = getelementptr inbounds %class.Lane, %class.Lane* %9, i32 0, i32 14, !dbg !2916
  %286 = load float*, float** %285, align 4, !dbg !2916
  %287 = getelementptr inbounds float, float* %286, i32 0, !dbg !2916
  %288 = load float, float* %287, align 4, !dbg !2916
  %289 = fadd float %284, %288, !dbg !2917
  %290 = getelementptr inbounds %class.Lane, %class.Lane* %9, i32 0, i32 1, !dbg !2918
  %291 = load i32, i32* %290, align 4, !dbg !2918
  %292 = add nsw i32 %291, 1, !dbg !2919
  %293 = sitofp i32 %292 to float, !dbg !2920
  %294 = fdiv float %289, %293, !dbg !2921
  %295 = getelementptr inbounds %class.Lane, %class.Lane* %9, i32 0, i32 18, !dbg !2922
  %296 = getelementptr inbounds [3 x float], [3 x float]* %295, i32 0, i32 0, !dbg !2922
  store float %294, float* %296, align 4, !dbg !2923
  %297 = getelementptr inbounds %class.Lane, %class.Lane* %9, i32 0, i32 18, !dbg !2924
  %298 = getelementptr inbounds [3 x float], [3 x float]* %297, i32 0, i32 1, !dbg !2924
  %299 = load float, float* %298, align 4, !dbg !2924
  %300 = getelementptr inbounds %class.Lane, %class.Lane* %9, i32 0, i32 1, !dbg !2925
  %301 = load i32, i32* %300, align 4, !dbg !2925
  %302 = sitofp i32 %301 to float, !dbg !2925
  %303 = fmul float %299, %302, !dbg !2926
  %304 = getelementptr inbounds %class.Lane, %class.Lane* %9, i32 0, i32 14, !dbg !2927
  %305 = load float*, float** %304, align 4, !dbg !2927
  %306 = getelementptr inbounds float, float* %305, i32 1, !dbg !2927
  %307 = load float, float* %306, align 4, !dbg !2927
  %308 = fadd float %303, %307, !dbg !2928
  %309 = getelementptr inbounds %class.Lane, %class.Lane* %9, i32 0, i32 1, !dbg !2929
  %310 = load i32, i32* %309, align 4, !dbg !2929
  %311 = add nsw i32 %310, 1, !dbg !2930
  %312 = sitofp i32 %311 to float, !dbg !2931
  %313 = fdiv float %308, %312, !dbg !2932
  %314 = getelementptr inbounds %class.Lane, %class.Lane* %9, i32 0, i32 18, !dbg !2933
  %315 = getelementptr inbounds [3 x float], [3 x float]* %314, i32 0, i32 1, !dbg !2933
  store float %313, float* %315, align 4, !dbg !2934
  %316 = getelementptr inbounds %class.Lane, %class.Lane* %9, i32 0, i32 18, !dbg !2935
  %317 = getelementptr inbounds [3 x float], [3 x float]* %316, i32 0, i32 2, !dbg !2935
  %318 = load float, float* %317, align 4, !dbg !2935
  %319 = getelementptr inbounds %class.Lane, %class.Lane* %9, i32 0, i32 1, !dbg !2936
  %320 = load i32, i32* %319, align 4, !dbg !2936
  %321 = sitofp i32 %320 to float, !dbg !2936
  %322 = fmul float %318, %321, !dbg !2937
  %323 = getelementptr inbounds %class.Lane, %class.Lane* %9, i32 0, i32 14, !dbg !2938
  %324 = load float*, float** %323, align 4, !dbg !2938
  %325 = getelementptr inbounds float, float* %324, i32 2, !dbg !2938
  %326 = load float, float* %325, align 4, !dbg !2938
  %327 = fadd float %322, %326, !dbg !2939
  %328 = getelementptr inbounds %class.Lane, %class.Lane* %9, i32 0, i32 1, !dbg !2940
  %329 = load i32, i32* %328, align 4, !dbg !2940
  %330 = add nsw i32 %329, 1, !dbg !2941
  %331 = sitofp i32 %330 to float, !dbg !2942
  %332 = fdiv float %327, %331, !dbg !2943
  %333 = getelementptr inbounds %class.Lane, %class.Lane* %9, i32 0, i32 18, !dbg !2944
  %334 = getelementptr inbounds [3 x float], [3 x float]* %333, i32 0, i32 2, !dbg !2944
  store float %332, float* %334, align 4, !dbg !2945
  br label %335

; <label>:335:                                    ; preds = %220, %113
  %336 = getelementptr inbounds %class.Lane, %class.Lane* %9, i32 0, i32 15, !dbg !2946
  %337 = getelementptr inbounds %class.Lane, %class.Lane* %9, i32 0, i32 1, !dbg !2947
  %338 = load i32, i32* %337, align 4, !dbg !2947
  %339 = call dereferenceable(4) float** @_ZNSt6vectorIPfSaIS0_EEixEj(%"class.std::vector"* %336, i32 %338) #3, !dbg !2946
  %340 = load float*, float** %339, align 4, !dbg !2946
  %341 = icmp eq float* %340, null, !dbg !2948
  br i1 %341, label %344, label %342, !dbg !2948

; <label>:342:                                    ; preds = %335
  %343 = bitcast float* %340 to i8*, !dbg !2949
  call void @_ZdaPv(i8* %343) #16, !dbg !2949
  br label %344, !dbg !2949

; <label>:344:                                    ; preds = %342, %335
  %345 = getelementptr inbounds %class.Lane, %class.Lane* %9, i32 0, i32 16, !dbg !2951
  %346 = getelementptr inbounds %class.Lane, %class.Lane* %9, i32 0, i32 1, !dbg !2952
  %347 = load i32, i32* %346, align 4, !dbg !2952
  %348 = call dereferenceable(4) float** @_ZNSt6vectorIPfSaIS0_EEixEj(%"class.std::vector"* %345, i32 %347) #3, !dbg !2951
  %349 = load float*, float** %348, align 4, !dbg !2951
  %350 = icmp eq float* %349, null, !dbg !2953
  br i1 %350, label %353, label %351, !dbg !2953

; <label>:351:                                    ; preds = %344
  %352 = bitcast float* %349 to i8*, !dbg !2954
  call void @_ZdaPv(i8* %352) #16, !dbg !2954
  br label %353, !dbg !2954

; <label>:353:                                    ; preds = %351, %344
  %354 = getelementptr inbounds %class.Lane, %class.Lane* %9, i32 0, i32 13, !dbg !2955
  %355 = load float*, float** %354, align 4, !dbg !2955
  %356 = getelementptr inbounds %class.Lane, %class.Lane* %9, i32 0, i32 15, !dbg !2956
  %357 = getelementptr inbounds %class.Lane, %class.Lane* %9, i32 0, i32 1, !dbg !2957
  %358 = load i32, i32* %357, align 4, !dbg !2957
  %359 = call dereferenceable(4) float** @_ZNSt6vectorIPfSaIS0_EEixEj(%"class.std::vector"* %356, i32 %358) #3, !dbg !2956
  store float* %355, float** %359, align 4, !dbg !2958
  %360 = getelementptr inbounds %class.Lane, %class.Lane* %9, i32 0, i32 14, !dbg !2959
  %361 = load float*, float** %360, align 4, !dbg !2959
  %362 = getelementptr inbounds %class.Lane, %class.Lane* %9, i32 0, i32 16, !dbg !2960
  %363 = getelementptr inbounds %class.Lane, %class.Lane* %9, i32 0, i32 1, !dbg !2961
  %364 = load i32, i32* %363, align 4, !dbg !2961
  %365 = call dereferenceable(4) float** @_ZNSt6vectorIPfSaIS0_EEixEj(%"class.std::vector"* %362, i32 %364) #3, !dbg !2960
  store float* %361, float** %365, align 4, !dbg !2962
  %366 = getelementptr inbounds %class.Lane, %class.Lane* %9, i32 0, i32 6, !dbg !2963
  store i8 1, i8* %366, align 1, !dbg !2964
  %367 = getelementptr inbounds %class.Lane, %class.Lane* %9, i32 0, i32 5, !dbg !2965
  store i8 1, i8* %367, align 4, !dbg !2966
  %368 = getelementptr inbounds %class.Lane, %class.Lane* %9, i32 0, i32 11, !dbg !2967
  %369 = getelementptr inbounds [3 x float], [3 x float]* %368, i32 0, i32 0, !dbg !2967
  %370 = getelementptr inbounds %class.Lane, %class.Lane* %9, i32 0, i32 12, !dbg !2968
  %371 = getelementptr inbounds [3 x float], [3 x float]* %370, i32 0, i32 0, !dbg !2968
  call void @_ZN4Lane22CalculateLineDistancesEPfS0_(%class.Lane* %9, float* %369, float* %371), !dbg !2969
  br label %428, !dbg !2970

; <label>:372:                                    ; preds = %22
  %373 = getelementptr inbounds %class.Lane, %class.Lane* %9, i32 0, i32 17, !dbg !2971
  %374 = getelementptr inbounds [3 x float], [3 x float]* %373, i32 0, i32 0, !dbg !2971
  %375 = load float, float* %374, align 4, !dbg !2971
  %376 = getelementptr inbounds %class.Lane, %class.Lane* %9, i32 0, i32 11, !dbg !2973
  %377 = getelementptr inbounds [3 x float], [3 x float]* %376, i32 0, i32 0, !dbg !2973
  store float %375, float* %377, align 4, !dbg !2974
  %378 = getelementptr inbounds %class.Lane, %class.Lane* %9, i32 0, i32 17, !dbg !2975
  %379 = getelementptr inbounds [3 x float], [3 x float]* %378, i32 0, i32 1, !dbg !2975
  %380 = load float, float* %379, align 4, !dbg !2975
  %381 = getelementptr inbounds %class.Lane, %class.Lane* %9, i32 0, i32 11, !dbg !2976
  %382 = getelementptr inbounds [3 x float], [3 x float]* %381, i32 0, i32 1, !dbg !2976
  store float %380, float* %382, align 4, !dbg !2977
  %383 = getelementptr inbounds %class.Lane, %class.Lane* %9, i32 0, i32 17, !dbg !2978
  %384 = getelementptr inbounds [3 x float], [3 x float]* %383, i32 0, i32 2, !dbg !2978
  %385 = load float, float* %384, align 4, !dbg !2978
  %386 = getelementptr inbounds %class.Lane, %class.Lane* %9, i32 0, i32 11, !dbg !2979
  %387 = getelementptr inbounds [3 x float], [3 x float]* %386, i32 0, i32 2, !dbg !2979
  store float %385, float* %387, align 4, !dbg !2980
  %388 = getelementptr inbounds %class.Lane, %class.Lane* %9, i32 0, i32 18, !dbg !2981
  %389 = getelementptr inbounds [3 x float], [3 x float]* %388, i32 0, i32 0, !dbg !2981
  %390 = load float, float* %389, align 4, !dbg !2981
  %391 = getelementptr inbounds %class.Lane, %class.Lane* %9, i32 0, i32 12, !dbg !2982
  %392 = getelementptr inbounds [3 x float], [3 x float]* %391, i32 0, i32 0, !dbg !2982
  store float %390, float* %392, align 4, !dbg !2983
  %393 = getelementptr inbounds %class.Lane, %class.Lane* %9, i32 0, i32 18, !dbg !2984
  %394 = getelementptr inbounds [3 x float], [3 x float]* %393, i32 0, i32 1, !dbg !2984
  %395 = load float, float* %394, align 4, !dbg !2984
  %396 = getelementptr inbounds %class.Lane, %class.Lane* %9, i32 0, i32 12, !dbg !2985
  %397 = getelementptr inbounds [3 x float], [3 x float]* %396, i32 0, i32 1, !dbg !2985
  store float %395, float* %397, align 4, !dbg !2986
  %398 = getelementptr inbounds %class.Lane, %class.Lane* %9, i32 0, i32 18, !dbg !2987
  %399 = getelementptr inbounds [3 x float], [3 x float]* %398, i32 0, i32 2, !dbg !2987
  %400 = load float, float* %399, align 4, !dbg !2987
  %401 = getelementptr inbounds %class.Lane, %class.Lane* %9, i32 0, i32 12, !dbg !2988
  %402 = getelementptr inbounds [3 x float], [3 x float]* %401, i32 0, i32 2, !dbg !2988
  store float %400, float* %402, align 4, !dbg !2989
  %403 = getelementptr inbounds %class.Lane, %class.Lane* %9, i32 0, i32 17, !dbg !2990
  %404 = getelementptr inbounds [3 x float], [3 x float]* %403, i32 0, i32 0, !dbg !2990
  %405 = getelementptr inbounds %class.Lane, %class.Lane* %9, i32 0, i32 18, !dbg !2992
  %406 = getelementptr inbounds [3 x float], [3 x float]* %405, i32 0, i32 0, !dbg !2992
  %407 = call zeroext i1 @_ZN4Lane13CheckIsItLaneEPfS0_(%class.Lane* %9, float* %404, float* %406), !dbg !2993
  br i1 %407, label %421, label %408, !dbg !2994

; <label>:408:                                    ; preds = %372
  %409 = getelementptr inbounds %class.Lane, %class.Lane* %9, i32 0, i32 11, !dbg !2995
  %410 = getelementptr inbounds [3 x float], [3 x float]* %409, i32 0, i32 0, !dbg !2995
  store float 0.000000e+00, float* %410, align 4, !dbg !2997
  %411 = getelementptr inbounds %class.Lane, %class.Lane* %9, i32 0, i32 11, !dbg !2998
  %412 = getelementptr inbounds [3 x float], [3 x float]* %411, i32 0, i32 1, !dbg !2998
  store float 0.000000e+00, float* %412, align 4, !dbg !2999
  %413 = getelementptr inbounds %class.Lane, %class.Lane* %9, i32 0, i32 11, !dbg !3000
  %414 = getelementptr inbounds [3 x float], [3 x float]* %413, i32 0, i32 2, !dbg !3000
  store float 0.000000e+00, float* %414, align 4, !dbg !3001
  %415 = getelementptr inbounds %class.Lane, %class.Lane* %9, i32 0, i32 12, !dbg !3002
  %416 = getelementptr inbounds [3 x float], [3 x float]* %415, i32 0, i32 2, !dbg !3002
  store float 0.000000e+00, float* %416, align 4, !dbg !3003
  %417 = getelementptr inbounds %class.Lane, %class.Lane* %9, i32 0, i32 12, !dbg !3004
  %418 = getelementptr inbounds [3 x float], [3 x float]* %417, i32 0, i32 1, !dbg !3004
  store float 0.000000e+00, float* %418, align 4, !dbg !3005
  %419 = getelementptr inbounds %class.Lane, %class.Lane* %9, i32 0, i32 12, !dbg !3006
  %420 = getelementptr inbounds [3 x float], [3 x float]* %419, i32 0, i32 0, !dbg !3006
  store float 0.000000e+00, float* %420, align 4, !dbg !3007
  br label %421, !dbg !3008

; <label>:421:                                    ; preds = %408, %372
  %422 = getelementptr inbounds %class.Lane, %class.Lane* %9, i32 0, i32 5, !dbg !3009
  store i8 0, i8* %422, align 4, !dbg !3010
  %423 = getelementptr inbounds %class.Lane, %class.Lane* %9, i32 0, i32 6, !dbg !3011
  store i8 0, i8* %423, align 1, !dbg !3012
  %424 = getelementptr inbounds %class.Lane, %class.Lane* %9, i32 0, i32 11, !dbg !3013
  %425 = getelementptr inbounds [3 x float], [3 x float]* %424, i32 0, i32 0, !dbg !3013
  %426 = getelementptr inbounds %class.Lane, %class.Lane* %9, i32 0, i32 12, !dbg !3014
  %427 = getelementptr inbounds [3 x float], [3 x float]* %426, i32 0, i32 0, !dbg !3014
  call void @_ZN4Lane22CalculateLineDistancesEPfS0_(%class.Lane* %9, float* %425, float* %427), !dbg !3015
  br label %428

; <label>:428:                                    ; preds = %421, %353
  ret void, !dbg !3016
}

define void @_ZN4Lane22CalculateLineDistancesEPfS0_(%class.Lane*, float*, float*) #0 align 2 !dbg !3017 !xidane.fname !3018 !xidane.function_declaration_type !2733 !xidane.function_declaration_filename !2233 {
  %4 = alloca %class.Lane*, align 4
  %5 = alloca float*, align 4
  %6 = alloca float*, align 4
  %7 = alloca [3 x i32], align 4
  %8 = alloca [3 x i32], align 4
  store %class.Lane* %0, %class.Lane** %4, align 4
  call void @llvm.dbg.declare(metadata %class.Lane** %4, metadata !3019, metadata !2236), !dbg !3020
  store float* %1, float** %5, align 4
  call void @llvm.dbg.declare(metadata float** %5, metadata !3021, metadata !2236), !dbg !3022
  store float* %2, float** %6, align 4
  call void @llvm.dbg.declare(metadata float** %6, metadata !3023, metadata !2236), !dbg !3024
  %9 = load %class.Lane*, %class.Lane** %4, align 4
  call void @llvm.dbg.declare(metadata [3 x i32]* %7, metadata !3025, metadata !2236), !dbg !3026
  call void @llvm.dbg.declare(metadata [3 x i32]* %8, metadata !3027, metadata !2236), !dbg !3028
  %10 = load float*, float** %5, align 4, !dbg !3029
  %11 = getelementptr inbounds %class.Lane, %class.Lane* %9, i32 0, i32 8, !dbg !3030
  %12 = load i32, i32* %11, align 4, !dbg !3030
  %13 = call i32 @_ZN4Lane9GetXValueEPfi(%class.Lane* %9, float* %10, i32 %12), !dbg !3031
  %14 = getelementptr inbounds [3 x i32], [3 x i32]* %7, i32 0, i32 0, !dbg !3032
  store i32 %13, i32* %14, align 4, !dbg !3033
  %15 = load float*, float** %6, align 4, !dbg !3034
  %16 = getelementptr inbounds %class.Lane, %class.Lane* %9, i32 0, i32 8, !dbg !3035
  %17 = load i32, i32* %16, align 4, !dbg !3035
  %18 = call i32 @_ZN4Lane9GetXValueEPfi(%class.Lane* %9, float* %15, i32 %17), !dbg !3036
  %19 = getelementptr inbounds [3 x i32], [3 x i32]* %8, i32 0, i32 0, !dbg !3037
  store i32 %18, i32* %19, align 4, !dbg !3038
  %20 = load float*, float** %5, align 4, !dbg !3039
  %21 = getelementptr inbounds %class.Lane, %class.Lane* %9, i32 0, i32 8, !dbg !3040
  %22 = load i32, i32* %21, align 4, !dbg !3040
  %23 = mul nsw i32 %22, 80, !dbg !3041
  %24 = sdiv i32 %23, 100, !dbg !3042
  %25 = call i32 @_ZN4Lane9GetXValueEPfi(%class.Lane* %9, float* %20, i32 %24), !dbg !3043
  %26 = getelementptr inbounds [3 x i32], [3 x i32]* %7, i32 0, i32 1, !dbg !3044
  store i32 %25, i32* %26, align 4, !dbg !3045
  %27 = load float*, float** %6, align 4, !dbg !3046
  %28 = getelementptr inbounds %class.Lane, %class.Lane* %9, i32 0, i32 8, !dbg !3047
  %29 = load i32, i32* %28, align 4, !dbg !3047
  %30 = mul nsw i32 %29, 80, !dbg !3048
  %31 = sdiv i32 %30, 100, !dbg !3049
  %32 = call i32 @_ZN4Lane9GetXValueEPfi(%class.Lane* %9, float* %27, i32 %31), !dbg !3050
  %33 = getelementptr inbounds [3 x i32], [3 x i32]* %8, i32 0, i32 1, !dbg !3051
  store i32 %32, i32* %33, align 4, !dbg !3052
  %34 = load float*, float** %5, align 4, !dbg !3053
  %35 = getelementptr inbounds %class.Lane, %class.Lane* %9, i32 0, i32 8, !dbg !3054
  %36 = load i32, i32* %35, align 4, !dbg !3054
  %37 = mul nsw i32 %36, 40, !dbg !3055
  %38 = sdiv i32 %37, 100, !dbg !3056
  %39 = call i32 @_ZN4Lane9GetXValueEPfi(%class.Lane* %9, float* %34, i32 %38), !dbg !3057
  %40 = getelementptr inbounds [3 x i32], [3 x i32]* %7, i32 0, i32 2, !dbg !3058
  store i32 %39, i32* %40, align 4, !dbg !3059
  %41 = load float*, float** %6, align 4, !dbg !3060
  %42 = getelementptr inbounds %class.Lane, %class.Lane* %9, i32 0, i32 8, !dbg !3061
  %43 = load i32, i32* %42, align 4, !dbg !3061
  %44 = mul nsw i32 %43, 40, !dbg !3062
  %45 = sdiv i32 %44, 100, !dbg !3063
  %46 = call i32 @_ZN4Lane9GetXValueEPfi(%class.Lane* %9, float* %41, i32 %45), !dbg !3064
  %47 = getelementptr inbounds [3 x i32], [3 x i32]* %8, i32 0, i32 2, !dbg !3065
  store i32 %46, i32* %47, align 4, !dbg !3066
  %48 = getelementptr inbounds %class.Lane, %class.Lane* %9, i32 0, i32 5, !dbg !3067
  %49 = load i8, i8* %48, align 4, !dbg !3067
  %50 = trunc i8 %49 to i1, !dbg !3067
  %51 = zext i1 %50 to i32, !dbg !3067
  %52 = icmp eq i32 %51, 1, !dbg !3069
  br i1 %52, label %53, label %142, !dbg !3070

; <label>:53:                                     ; preds = %3
  %54 = getelementptr inbounds %class.Lane, %class.Lane* %9, i32 0, i32 6, !dbg !3071
  %55 = load i8, i8* %54, align 1, !dbg !3071
  %56 = trunc i8 %55 to i1, !dbg !3071
  %57 = zext i1 %56 to i32, !dbg !3071
  %58 = icmp eq i32 %57, 1, !dbg !3073
  br i1 %58, label %59, label %142, !dbg !3074

; <label>:59:                                     ; preds = %53
  %60 = call i8* @_Znaj(i32 12) #15, !dbg !3075
  %61 = bitcast i8* %60 to i32*, !dbg !3075
  %62 = getelementptr inbounds %class.Lane, %class.Lane* %9, i32 0, i32 19, !dbg !3077
  store i32* %61, i32** %62, align 4, !dbg !3078
  %63 = call i8* @_Znaj(i32 12) #15, !dbg !3079
  %64 = bitcast i8* %63 to i32*, !dbg !3079
  %65 = getelementptr inbounds %class.Lane, %class.Lane* %9, i32 0, i32 20, !dbg !3080
  store i32* %64, i32** %65, align 4, !dbg !3081
  %66 = getelementptr inbounds [3 x i32], [3 x i32]* %7, i32 0, i32 0, !dbg !3082
  %67 = load i32, i32* %66, align 4, !dbg !3082
  %68 = getelementptr inbounds %class.Lane, %class.Lane* %9, i32 0, i32 19, !dbg !3083
  %69 = load i32*, i32** %68, align 4, !dbg !3083
  %70 = getelementptr inbounds i32, i32* %69, i32 0, !dbg !3083
  store i32 %67, i32* %70, align 4, !dbg !3084
  %71 = getelementptr inbounds [3 x i32], [3 x i32]* %8, i32 0, i32 0, !dbg !3085
  %72 = load i32, i32* %71, align 4, !dbg !3085
  %73 = getelementptr inbounds %class.Lane, %class.Lane* %9, i32 0, i32 20, !dbg !3086
  %74 = load i32*, i32** %73, align 4, !dbg !3086
  %75 = getelementptr inbounds i32, i32* %74, i32 0, !dbg !3086
  store i32 %72, i32* %75, align 4, !dbg !3087
  %76 = getelementptr inbounds [3 x i32], [3 x i32]* %7, i32 0, i32 1, !dbg !3088
  %77 = load i32, i32* %76, align 4, !dbg !3088
  %78 = getelementptr inbounds %class.Lane, %class.Lane* %9, i32 0, i32 19, !dbg !3089
  %79 = load i32*, i32** %78, align 4, !dbg !3089
  %80 = getelementptr inbounds i32, i32* %79, i32 1, !dbg !3089
  store i32 %77, i32* %80, align 4, !dbg !3090
  %81 = getelementptr inbounds [3 x i32], [3 x i32]* %8, i32 0, i32 1, !dbg !3091
  %82 = load i32, i32* %81, align 4, !dbg !3091
  %83 = getelementptr inbounds %class.Lane, %class.Lane* %9, i32 0, i32 20, !dbg !3092
  %84 = load i32*, i32** %83, align 4, !dbg !3092
  %85 = getelementptr inbounds i32, i32* %84, i32 1, !dbg !3092
  store i32 %82, i32* %85, align 4, !dbg !3093
  %86 = getelementptr inbounds [3 x i32], [3 x i32]* %7, i32 0, i32 2, !dbg !3094
  %87 = load i32, i32* %86, align 4, !dbg !3094
  %88 = getelementptr inbounds %class.Lane, %class.Lane* %9, i32 0, i32 19, !dbg !3095
  %89 = load i32*, i32** %88, align 4, !dbg !3095
  %90 = getelementptr inbounds i32, i32* %89, i32 2, !dbg !3095
  store i32 %87, i32* %90, align 4, !dbg !3096
  %91 = getelementptr inbounds [3 x i32], [3 x i32]* %8, i32 0, i32 2, !dbg !3097
  %92 = load i32, i32* %91, align 4, !dbg !3097
  %93 = getelementptr inbounds %class.Lane, %class.Lane* %9, i32 0, i32 20, !dbg !3098
  %94 = load i32*, i32** %93, align 4, !dbg !3098
  %95 = getelementptr inbounds i32, i32* %94, i32 2, !dbg !3098
  store i32 %92, i32* %95, align 4, !dbg !3099
  %96 = getelementptr inbounds %class.Lane, %class.Lane* %9, i32 0, i32 2, !dbg !3100
  %97 = load i32, i32* %96, align 4, !dbg !3101
  %98 = add nsw i32 %97, 1, !dbg !3101
  store i32 %98, i32* %96, align 4, !dbg !3101
  %99 = getelementptr inbounds %class.Lane, %class.Lane* %9, i32 0, i32 3, !dbg !3102
  %100 = load i32, i32* %99, align 4, !dbg !3103
  %101 = add nsw i32 %100, 1, !dbg !3103
  store i32 %101, i32* %99, align 4, !dbg !3103
  %102 = getelementptr inbounds %class.Lane, %class.Lane* %9, i32 0, i32 0, !dbg !3104
  %103 = load i32, i32* %102, align 4, !dbg !3104
  %104 = getelementptr inbounds %class.Lane, %class.Lane* %9, i32 0, i32 2, !dbg !3105
  %105 = load i32, i32* %104, align 4, !dbg !3106
  %106 = srem i32 %105, %103, !dbg !3106
  store i32 %106, i32* %104, align 4, !dbg !3106
  %107 = getelementptr inbounds %class.Lane, %class.Lane* %9, i32 0, i32 0, !dbg !3107
  %108 = load i32, i32* %107, align 4, !dbg !3107
  %109 = getelementptr inbounds %class.Lane, %class.Lane* %9, i32 0, i32 3, !dbg !3108
  %110 = load i32, i32* %109, align 4, !dbg !3109
  %111 = srem i32 %110, %108, !dbg !3109
  store i32 %111, i32* %109, align 4, !dbg !3109
  %112 = getelementptr inbounds %class.Lane, %class.Lane* %9, i32 0, i32 22, !dbg !3110
  %113 = getelementptr inbounds %class.Lane, %class.Lane* %9, i32 0, i32 2, !dbg !3111
  %114 = load i32, i32* %113, align 4, !dbg !3111
  %115 = call dereferenceable(4) i32** @_ZNSt6vectorIPiSaIS0_EEixEj(%"class.std::vector.0"* %112, i32 %114) #3, !dbg !3110
  %116 = load i32*, i32** %115, align 4, !dbg !3110
  %117 = icmp eq i32* %116, null, !dbg !3112
  br i1 %117, label %120, label %118, !dbg !3112

; <label>:118:                                    ; preds = %59
  %119 = bitcast i32* %116 to i8*, !dbg !3113
  call void @_ZdaPv(i8* %119) #16, !dbg !3113
  br label %120, !dbg !3113

; <label>:120:                                    ; preds = %118, %59
  %121 = getelementptr inbounds %class.Lane, %class.Lane* %9, i32 0, i32 21, !dbg !3115
  %122 = getelementptr inbounds %class.Lane, %class.Lane* %9, i32 0, i32 3, !dbg !3116
  %123 = load i32, i32* %122, align 4, !dbg !3116
  %124 = call dereferenceable(4) i32** @_ZNSt6vectorIPiSaIS0_EEixEj(%"class.std::vector.0"* %121, i32 %123) #3, !dbg !3115
  %125 = load i32*, i32** %124, align 4, !dbg !3115
  %126 = icmp eq i32* %125, null, !dbg !3117
  br i1 %126, label %129, label %127, !dbg !3117

; <label>:127:                                    ; preds = %120
  %128 = bitcast i32* %125 to i8*, !dbg !3118
  call void @_ZdaPv(i8* %128) #16, !dbg !3118
  br label %129, !dbg !3118

; <label>:129:                                    ; preds = %127, %120
  %130 = getelementptr inbounds %class.Lane, %class.Lane* %9, i32 0, i32 19, !dbg !3119
  %131 = load i32*, i32** %130, align 4, !dbg !3119
  %132 = getelementptr inbounds %class.Lane, %class.Lane* %9, i32 0, i32 22, !dbg !3120
  %133 = getelementptr inbounds %class.Lane, %class.Lane* %9, i32 0, i32 2, !dbg !3121
  %134 = load i32, i32* %133, align 4, !dbg !3121
  %135 = call dereferenceable(4) i32** @_ZNSt6vectorIPiSaIS0_EEixEj(%"class.std::vector.0"* %132, i32 %134) #3, !dbg !3120
  store i32* %131, i32** %135, align 4, !dbg !3122
  %136 = getelementptr inbounds %class.Lane, %class.Lane* %9, i32 0, i32 20, !dbg !3123
  %137 = load i32*, i32** %136, align 4, !dbg !3123
  %138 = getelementptr inbounds %class.Lane, %class.Lane* %9, i32 0, i32 21, !dbg !3124
  %139 = getelementptr inbounds %class.Lane, %class.Lane* %9, i32 0, i32 3, !dbg !3125
  %140 = load i32, i32* %139, align 4, !dbg !3125
  %141 = call dereferenceable(4) i32** @_ZNSt6vectorIPiSaIS0_EEixEj(%"class.std::vector.0"* %138, i32 %140) #3, !dbg !3124
  store i32* %137, i32** %141, align 4, !dbg !3126
  br label %240, !dbg !3127

; <label>:142:                                    ; preds = %53, %3
  %143 = getelementptr inbounds %class.Lane, %class.Lane* %9, i32 0, i32 5, !dbg !3128
  %144 = load i8, i8* %143, align 4, !dbg !3128
  %145 = trunc i8 %144 to i1, !dbg !3128
  %146 = zext i1 %145 to i32, !dbg !3128
  %147 = icmp eq i32 %146, 1, !dbg !3130
  br i1 %147, label %148, label %190, !dbg !3131

; <label>:148:                                    ; preds = %142
  %149 = call i8* @_Znaj(i32 12) #15, !dbg !3132
  %150 = bitcast i8* %149 to i32*, !dbg !3132
  %151 = getelementptr inbounds %class.Lane, %class.Lane* %9, i32 0, i32 20, !dbg !3134
  store i32* %150, i32** %151, align 4, !dbg !3135
  %152 = getelementptr inbounds [3 x i32], [3 x i32]* %8, i32 0, i32 0, !dbg !3136
  %153 = load i32, i32* %152, align 4, !dbg !3136
  %154 = getelementptr inbounds %class.Lane, %class.Lane* %9, i32 0, i32 20, !dbg !3137
  %155 = load i32*, i32** %154, align 4, !dbg !3137
  %156 = getelementptr inbounds i32, i32* %155, i32 0, !dbg !3137
  store i32 %153, i32* %156, align 4, !dbg !3138
  %157 = getelementptr inbounds [3 x i32], [3 x i32]* %8, i32 0, i32 1, !dbg !3139
  %158 = load i32, i32* %157, align 4, !dbg !3139
  %159 = getelementptr inbounds %class.Lane, %class.Lane* %9, i32 0, i32 20, !dbg !3140
  %160 = load i32*, i32** %159, align 4, !dbg !3140
  %161 = getelementptr inbounds i32, i32* %160, i32 1, !dbg !3140
  store i32 %158, i32* %161, align 4, !dbg !3141
  %162 = getelementptr inbounds [3 x i32], [3 x i32]* %8, i32 0, i32 2, !dbg !3142
  %163 = load i32, i32* %162, align 4, !dbg !3142
  %164 = getelementptr inbounds %class.Lane, %class.Lane* %9, i32 0, i32 20, !dbg !3143
  %165 = load i32*, i32** %164, align 4, !dbg !3143
  %166 = getelementptr inbounds i32, i32* %165, i32 2, !dbg !3143
  store i32 %163, i32* %166, align 4, !dbg !3144
  %167 = getelementptr inbounds %class.Lane, %class.Lane* %9, i32 0, i32 3, !dbg !3145
  %168 = load i32, i32* %167, align 4, !dbg !3146
  %169 = add nsw i32 %168, 1, !dbg !3146
  store i32 %169, i32* %167, align 4, !dbg !3146
  %170 = getelementptr inbounds %class.Lane, %class.Lane* %9, i32 0, i32 0, !dbg !3147
  %171 = load i32, i32* %170, align 4, !dbg !3147
  %172 = getelementptr inbounds %class.Lane, %class.Lane* %9, i32 0, i32 3, !dbg !3148
  %173 = load i32, i32* %172, align 4, !dbg !3149
  %174 = srem i32 %173, %171, !dbg !3149
  store i32 %174, i32* %172, align 4, !dbg !3149
  %175 = getelementptr inbounds %class.Lane, %class.Lane* %9, i32 0, i32 21, !dbg !3150
  %176 = getelementptr inbounds %class.Lane, %class.Lane* %9, i32 0, i32 3, !dbg !3151
  %177 = load i32, i32* %176, align 4, !dbg !3151
  %178 = call dereferenceable(4) i32** @_ZNSt6vectorIPiSaIS0_EEixEj(%"class.std::vector.0"* %175, i32 %177) #3, !dbg !3150
  %179 = load i32*, i32** %178, align 4, !dbg !3150
  %180 = icmp eq i32* %179, null, !dbg !3152
  br i1 %180, label %183, label %181, !dbg !3152

; <label>:181:                                    ; preds = %148
  %182 = bitcast i32* %179 to i8*, !dbg !3153
  call void @_ZdaPv(i8* %182) #16, !dbg !3153
  br label %183, !dbg !3153

; <label>:183:                                    ; preds = %181, %148
  %184 = getelementptr inbounds %class.Lane, %class.Lane* %9, i32 0, i32 20, !dbg !3155
  %185 = load i32*, i32** %184, align 4, !dbg !3155
  %186 = getelementptr inbounds %class.Lane, %class.Lane* %9, i32 0, i32 21, !dbg !3156
  %187 = getelementptr inbounds %class.Lane, %class.Lane* %9, i32 0, i32 3, !dbg !3157
  %188 = load i32, i32* %187, align 4, !dbg !3157
  %189 = call dereferenceable(4) i32** @_ZNSt6vectorIPiSaIS0_EEixEj(%"class.std::vector.0"* %186, i32 %188) #3, !dbg !3156
  store i32* %185, i32** %189, align 4, !dbg !3158
  br label %239, !dbg !3159

; <label>:190:                                    ; preds = %142
  %191 = getelementptr inbounds %class.Lane, %class.Lane* %9, i32 0, i32 6, !dbg !3160
  %192 = load i8, i8* %191, align 1, !dbg !3160
  %193 = trunc i8 %192 to i1, !dbg !3160
  %194 = zext i1 %193 to i32, !dbg !3160
  %195 = icmp eq i32 %194, 1, !dbg !3162
  br i1 %195, label %196, label %238, !dbg !3163

; <label>:196:                                    ; preds = %190
  %197 = call i8* @_Znaj(i32 12) #15, !dbg !3164
  %198 = bitcast i8* %197 to i32*, !dbg !3164
  %199 = getelementptr inbounds %class.Lane, %class.Lane* %9, i32 0, i32 19, !dbg !3166
  store i32* %198, i32** %199, align 4, !dbg !3167
  %200 = getelementptr inbounds [3 x i32], [3 x i32]* %7, i32 0, i32 0, !dbg !3168
  %201 = load i32, i32* %200, align 4, !dbg !3168
  %202 = getelementptr inbounds %class.Lane, %class.Lane* %9, i32 0, i32 19, !dbg !3169
  %203 = load i32*, i32** %202, align 4, !dbg !3169
  %204 = getelementptr inbounds i32, i32* %203, i32 0, !dbg !3169
  store i32 %201, i32* %204, align 4, !dbg !3170
  %205 = getelementptr inbounds [3 x i32], [3 x i32]* %7, i32 0, i32 1, !dbg !3171
  %206 = load i32, i32* %205, align 4, !dbg !3171
  %207 = getelementptr inbounds %class.Lane, %class.Lane* %9, i32 0, i32 19, !dbg !3172
  %208 = load i32*, i32** %207, align 4, !dbg !3172
  %209 = getelementptr inbounds i32, i32* %208, i32 1, !dbg !3172
  store i32 %206, i32* %209, align 4, !dbg !3173
  %210 = getelementptr inbounds [3 x i32], [3 x i32]* %7, i32 0, i32 2, !dbg !3174
  %211 = load i32, i32* %210, align 4, !dbg !3174
  %212 = getelementptr inbounds %class.Lane, %class.Lane* %9, i32 0, i32 19, !dbg !3175
  %213 = load i32*, i32** %212, align 4, !dbg !3175
  %214 = getelementptr inbounds i32, i32* %213, i32 2, !dbg !3175
  store i32 %211, i32* %214, align 4, !dbg !3176
  %215 = getelementptr inbounds %class.Lane, %class.Lane* %9, i32 0, i32 2, !dbg !3177
  %216 = load i32, i32* %215, align 4, !dbg !3178
  %217 = add nsw i32 %216, 1, !dbg !3178
  store i32 %217, i32* %215, align 4, !dbg !3178
  %218 = getelementptr inbounds %class.Lane, %class.Lane* %9, i32 0, i32 0, !dbg !3179
  %219 = load i32, i32* %218, align 4, !dbg !3179
  %220 = getelementptr inbounds %class.Lane, %class.Lane* %9, i32 0, i32 2, !dbg !3180
  %221 = load i32, i32* %220, align 4, !dbg !3181
  %222 = srem i32 %221, %219, !dbg !3181
  store i32 %222, i32* %220, align 4, !dbg !3181
  %223 = getelementptr inbounds %class.Lane, %class.Lane* %9, i32 0, i32 22, !dbg !3182
  %224 = getelementptr inbounds %class.Lane, %class.Lane* %9, i32 0, i32 2, !dbg !3183
  %225 = load i32, i32* %224, align 4, !dbg !3183
  %226 = call dereferenceable(4) i32** @_ZNSt6vectorIPiSaIS0_EEixEj(%"class.std::vector.0"* %223, i32 %225) #3, !dbg !3182
  %227 = load i32*, i32** %226, align 4, !dbg !3182
  %228 = icmp eq i32* %227, null, !dbg !3184
  br i1 %228, label %231, label %229, !dbg !3184

; <label>:229:                                    ; preds = %196
  %230 = bitcast i32* %227 to i8*, !dbg !3185
  call void @_ZdaPv(i8* %230) #16, !dbg !3185
  br label %231, !dbg !3185

; <label>:231:                                    ; preds = %229, %196
  %232 = getelementptr inbounds %class.Lane, %class.Lane* %9, i32 0, i32 19, !dbg !3187
  %233 = load i32*, i32** %232, align 4, !dbg !3187
  %234 = getelementptr inbounds %class.Lane, %class.Lane* %9, i32 0, i32 22, !dbg !3188
  %235 = getelementptr inbounds %class.Lane, %class.Lane* %9, i32 0, i32 2, !dbg !3189
  %236 = load i32, i32* %235, align 4, !dbg !3189
  %237 = call dereferenceable(4) i32** @_ZNSt6vectorIPiSaIS0_EEixEj(%"class.std::vector.0"* %234, i32 %236) #3, !dbg !3188
  store i32* %233, i32** %237, align 4, !dbg !3190
  br label %238, !dbg !3191

; <label>:238:                                    ; preds = %231, %190
  br label %239

; <label>:239:                                    ; preds = %238, %183
  br label %240

; <label>:240:                                    ; preds = %239, %129
  %241 = call i8* @_Znaj(i32 12) #15, !dbg !3192
  %242 = bitcast i8* %241 to i32*, !dbg !3192
  %243 = getelementptr inbounds %class.Lane, %class.Lane* %9, i32 0, i32 23, !dbg !3193
  store i32* %242, i32** %243, align 4, !dbg !3194
  %244 = getelementptr inbounds [3 x i32], [3 x i32]* %8, i32 0, i32 0, !dbg !3195
  %245 = load i32, i32* %244, align 4, !dbg !3195
  %246 = getelementptr inbounds [3 x i32], [3 x i32]* %7, i32 0, i32 0, !dbg !3196
  %247 = load i32, i32* %246, align 4, !dbg !3196
  %248 = sub nsw i32 %245, %247, !dbg !3197
  %249 = getelementptr inbounds %class.Lane, %class.Lane* %9, i32 0, i32 23, !dbg !3198
  %250 = load i32*, i32** %249, align 4, !dbg !3198
  %251 = getelementptr inbounds i32, i32* %250, i32 0, !dbg !3198
  store i32 %248, i32* %251, align 4, !dbg !3199
  %252 = getelementptr inbounds [3 x i32], [3 x i32]* %8, i32 0, i32 1, !dbg !3200
  %253 = load i32, i32* %252, align 4, !dbg !3200
  %254 = getelementptr inbounds [3 x i32], [3 x i32]* %7, i32 0, i32 1, !dbg !3201
  %255 = load i32, i32* %254, align 4, !dbg !3201
  %256 = sub nsw i32 %253, %255, !dbg !3202
  %257 = getelementptr inbounds %class.Lane, %class.Lane* %9, i32 0, i32 23, !dbg !3203
  %258 = load i32*, i32** %257, align 4, !dbg !3203
  %259 = getelementptr inbounds i32, i32* %258, i32 1, !dbg !3203
  store i32 %256, i32* %259, align 4, !dbg !3204
  %260 = getelementptr inbounds [3 x i32], [3 x i32]* %8, i32 0, i32 2, !dbg !3205
  %261 = load i32, i32* %260, align 4, !dbg !3205
  %262 = getelementptr inbounds [3 x i32], [3 x i32]* %7, i32 0, i32 2, !dbg !3206
  %263 = load i32, i32* %262, align 4, !dbg !3206
  %264 = sub nsw i32 %261, %263, !dbg !3207
  %265 = getelementptr inbounds %class.Lane, %class.Lane* %9, i32 0, i32 23, !dbg !3208
  %266 = load i32*, i32** %265, align 4, !dbg !3208
  %267 = getelementptr inbounds i32, i32* %266, i32 2, !dbg !3208
  store i32 %264, i32* %267, align 4, !dbg !3209
  %268 = call i8* @_Znaj(i32 12) #15, !dbg !3210
  %269 = bitcast i8* %268 to i32*, !dbg !3210
  %270 = getelementptr inbounds %class.Lane, %class.Lane* %9, i32 0, i32 25, !dbg !3211
  store i32* %269, i32** %270, align 4, !dbg !3212
  %271 = call i8* @_Znaj(i32 12) #15, !dbg !3213
  %272 = bitcast i8* %271 to i32*, !dbg !3213
  %273 = getelementptr inbounds %class.Lane, %class.Lane* %9, i32 0, i32 26, !dbg !3214
  store i32* %272, i32** %273, align 4, !dbg !3215
  %274 = getelementptr inbounds %class.Lane, %class.Lane* %9, i32 0, i32 10, !dbg !3216
  %275 = load i32, i32* %274, align 4, !dbg !3216
  %276 = getelementptr inbounds [3 x i32], [3 x i32]* %7, i32 0, i32 0, !dbg !3217
  %277 = load i32, i32* %276, align 4, !dbg !3217
  %278 = sub nsw i32 %275, %277, !dbg !3218
  %279 = getelementptr inbounds %class.Lane, %class.Lane* %9, i32 0, i32 25, !dbg !3219
  %280 = load i32*, i32** %279, align 4, !dbg !3219
  %281 = getelementptr inbounds i32, i32* %280, i32 0, !dbg !3219
  store i32 %278, i32* %281, align 4, !dbg !3220
  %282 = getelementptr inbounds [3 x i32], [3 x i32]* %8, i32 0, i32 0, !dbg !3221
  %283 = load i32, i32* %282, align 4, !dbg !3221
  %284 = getelementptr inbounds %class.Lane, %class.Lane* %9, i32 0, i32 10, !dbg !3222
  %285 = load i32, i32* %284, align 4, !dbg !3222
  %286 = sub nsw i32 %283, %285, !dbg !3223
  %287 = getelementptr inbounds %class.Lane, %class.Lane* %9, i32 0, i32 26, !dbg !3224
  %288 = load i32*, i32** %287, align 4, !dbg !3224
  %289 = getelementptr inbounds i32, i32* %288, i32 0, !dbg !3224
  store i32 %286, i32* %289, align 4, !dbg !3225
  %290 = getelementptr inbounds %class.Lane, %class.Lane* %9, i32 0, i32 10, !dbg !3226
  %291 = load i32, i32* %290, align 4, !dbg !3226
  %292 = getelementptr inbounds [3 x i32], [3 x i32]* %7, i32 0, i32 1, !dbg !3227
  %293 = load i32, i32* %292, align 4, !dbg !3227
  %294 = sub nsw i32 %291, %293, !dbg !3228
  %295 = getelementptr inbounds %class.Lane, %class.Lane* %9, i32 0, i32 25, !dbg !3229
  %296 = load i32*, i32** %295, align 4, !dbg !3229
  %297 = getelementptr inbounds i32, i32* %296, i32 1, !dbg !3229
  store i32 %294, i32* %297, align 4, !dbg !3230
  %298 = getelementptr inbounds [3 x i32], [3 x i32]* %8, i32 0, i32 1, !dbg !3231
  %299 = load i32, i32* %298, align 4, !dbg !3231
  %300 = getelementptr inbounds %class.Lane, %class.Lane* %9, i32 0, i32 10, !dbg !3232
  %301 = load i32, i32* %300, align 4, !dbg !3232
  %302 = sub nsw i32 %299, %301, !dbg !3233
  %303 = getelementptr inbounds %class.Lane, %class.Lane* %9, i32 0, i32 26, !dbg !3234
  %304 = load i32*, i32** %303, align 4, !dbg !3234
  %305 = getelementptr inbounds i32, i32* %304, i32 1, !dbg !3234
  store i32 %302, i32* %305, align 4, !dbg !3235
  %306 = getelementptr inbounds %class.Lane, %class.Lane* %9, i32 0, i32 10, !dbg !3236
  %307 = load i32, i32* %306, align 4, !dbg !3236
  %308 = getelementptr inbounds [3 x i32], [3 x i32]* %7, i32 0, i32 2, !dbg !3237
  %309 = load i32, i32* %308, align 4, !dbg !3237
  %310 = sub nsw i32 %307, %309, !dbg !3238
  %311 = getelementptr inbounds %class.Lane, %class.Lane* %9, i32 0, i32 25, !dbg !3239
  %312 = load i32*, i32** %311, align 4, !dbg !3239
  %313 = getelementptr inbounds i32, i32* %312, i32 2, !dbg !3239
  store i32 %310, i32* %313, align 4, !dbg !3240
  %314 = getelementptr inbounds [3 x i32], [3 x i32]* %8, i32 0, i32 2, !dbg !3241
  %315 = load i32, i32* %314, align 4, !dbg !3241
  %316 = getelementptr inbounds %class.Lane, %class.Lane* %9, i32 0, i32 10, !dbg !3242
  %317 = load i32, i32* %316, align 4, !dbg !3242
  %318 = sub nsw i32 %315, %317, !dbg !3243
  %319 = getelementptr inbounds %class.Lane, %class.Lane* %9, i32 0, i32 26, !dbg !3244
  %320 = load i32*, i32** %319, align 4, !dbg !3244
  %321 = getelementptr inbounds i32, i32* %320, i32 2, !dbg !3244
  store i32 %318, i32* %321, align 4, !dbg !3245
  %322 = getelementptr inbounds %class.Lane, %class.Lane* %9, i32 0, i32 4, !dbg !3246
  %323 = load i32, i32* %322, align 4, !dbg !3247
  %324 = add nsw i32 %323, 1, !dbg !3247
  store i32 %324, i32* %322, align 4, !dbg !3247
  %325 = getelementptr inbounds %class.Lane, %class.Lane* %9, i32 0, i32 0, !dbg !3248
  %326 = load i32, i32* %325, align 4, !dbg !3248
  %327 = getelementptr inbounds %class.Lane, %class.Lane* %9, i32 0, i32 4, !dbg !3249
  %328 = load i32, i32* %327, align 4, !dbg !3250
  %329 = srem i32 %328, %326, !dbg !3250
  store i32 %329, i32* %327, align 4, !dbg !3250
  %330 = getelementptr inbounds %class.Lane, %class.Lane* %9, i32 0, i32 24, !dbg !3251
  %331 = getelementptr inbounds %class.Lane, %class.Lane* %9, i32 0, i32 4, !dbg !3252
  %332 = load i32, i32* %331, align 4, !dbg !3252
  %333 = call dereferenceable(4) i32** @_ZNSt6vectorIPiSaIS0_EEixEj(%"class.std::vector.0"* %330, i32 %332) #3, !dbg !3251
  %334 = load i32*, i32** %333, align 4, !dbg !3251
  %335 = icmp eq i32* %334, null, !dbg !3253
  br i1 %335, label %338, label %336, !dbg !3253

; <label>:336:                                    ; preds = %240
  %337 = bitcast i32* %334 to i8*, !dbg !3254
  call void @_ZdaPv(i8* %337) #16, !dbg !3254
  br label %338, !dbg !3254

; <label>:338:                                    ; preds = %336, %240
  %339 = getelementptr inbounds %class.Lane, %class.Lane* %9, i32 0, i32 23, !dbg !3256
  %340 = load i32*, i32** %339, align 4, !dbg !3256
  %341 = getelementptr inbounds %class.Lane, %class.Lane* %9, i32 0, i32 24, !dbg !3257
  %342 = getelementptr inbounds %class.Lane, %class.Lane* %9, i32 0, i32 4, !dbg !3258
  %343 = load i32, i32* %342, align 4, !dbg !3258
  %344 = call dereferenceable(4) i32** @_ZNSt6vectorIPiSaIS0_EEixEj(%"class.std::vector.0"* %341, i32 %343) #3, !dbg !3257
  store i32* %340, i32** %344, align 4, !dbg !3259
  %345 = getelementptr inbounds %class.Lane, %class.Lane* %9, i32 0, i32 27, !dbg !3260
  %346 = getelementptr inbounds %class.Lane, %class.Lane* %9, i32 0, i32 4, !dbg !3261
  %347 = load i32, i32* %346, align 4, !dbg !3261
  %348 = call dereferenceable(4) i32** @_ZNSt6vectorIPiSaIS0_EEixEj(%"class.std::vector.0"* %345, i32 %347) #3, !dbg !3260
  %349 = load i32*, i32** %348, align 4, !dbg !3260
  %350 = icmp eq i32* %349, null, !dbg !3262
  br i1 %350, label %353, label %351, !dbg !3262

; <label>:351:                                    ; preds = %338
  %352 = bitcast i32* %349 to i8*, !dbg !3263
  call void @_ZdaPv(i8* %352) #16, !dbg !3263
  br label %353, !dbg !3263

; <label>:353:                                    ; preds = %351, %338
  %354 = getelementptr inbounds %class.Lane, %class.Lane* %9, i32 0, i32 28, !dbg !3264
  %355 = getelementptr inbounds %class.Lane, %class.Lane* %9, i32 0, i32 4, !dbg !3265
  %356 = load i32, i32* %355, align 4, !dbg !3265
  %357 = call dereferenceable(4) i32** @_ZNSt6vectorIPiSaIS0_EEixEj(%"class.std::vector.0"* %354, i32 %356) #3, !dbg !3264
  %358 = load i32*, i32** %357, align 4, !dbg !3264
  %359 = icmp eq i32* %358, null, !dbg !3266
  br i1 %359, label %362, label %360, !dbg !3266

; <label>:360:                                    ; preds = %353
  %361 = bitcast i32* %358 to i8*, !dbg !3267
  call void @_ZdaPv(i8* %361) #16, !dbg !3267
  br label %362, !dbg !3267

; <label>:362:                                    ; preds = %360, %353
  %363 = getelementptr inbounds %class.Lane, %class.Lane* %9, i32 0, i32 25, !dbg !3268
  %364 = load i32*, i32** %363, align 4, !dbg !3268
  %365 = getelementptr inbounds %class.Lane, %class.Lane* %9, i32 0, i32 27, !dbg !3269
  %366 = getelementptr inbounds %class.Lane, %class.Lane* %9, i32 0, i32 4, !dbg !3270
  %367 = load i32, i32* %366, align 4, !dbg !3270
  %368 = call dereferenceable(4) i32** @_ZNSt6vectorIPiSaIS0_EEixEj(%"class.std::vector.0"* %365, i32 %367) #3, !dbg !3269
  store i32* %364, i32** %368, align 4, !dbg !3271
  %369 = getelementptr inbounds %class.Lane, %class.Lane* %9, i32 0, i32 26, !dbg !3272
  %370 = load i32*, i32** %369, align 4, !dbg !3272
  %371 = getelementptr inbounds %class.Lane, %class.Lane* %9, i32 0, i32 28, !dbg !3273
  %372 = getelementptr inbounds %class.Lane, %class.Lane* %9, i32 0, i32 4, !dbg !3274
  %373 = load i32, i32* %372, align 4, !dbg !3274
  %374 = call dereferenceable(4) i32** @_ZNSt6vectorIPiSaIS0_EEixEj(%"class.std::vector.0"* %371, i32 %373) #3, !dbg !3273
  store i32* %370, i32** %374, align 4, !dbg !3275
  ret void, !dbg !3276
}

; Function Attrs: nobuiltin
declare !xidane.fname !3277 !xidane.function_declaration_type !3278 noalias i8* @_Znaj(i32) #8

; Function Attrs: nounwind
define linkonce_odr dereferenceable(4) float** @_ZNSt6vectorIPfSaIS0_EEixEj(%"class.std::vector"*, i32) #5 comdat align 2 !dbg !3279 !xidane.fname !2720 !xidane.function_declaration_type !2721 !xidane.function_declaration_filename !2322 {
  %3 = alloca %"class.std::vector"*, align 4
  %4 = alloca i32, align 4
  store %"class.std::vector"* %0, %"class.std::vector"** %3, align 4
  call void @llvm.dbg.declare(metadata %"class.std::vector"** %3, metadata !3280, metadata !2236), !dbg !3281
  store i32 %1, i32* %4, align 4
  call void @llvm.dbg.declare(metadata i32* %4, metadata !3282, metadata !2236), !dbg !3283
  %5 = load %"class.std::vector"*, %"class.std::vector"** %3, align 4
  %6 = bitcast %"class.std::vector"* %5 to %"struct.std::_Vector_base"*, !dbg !3284
  %7 = getelementptr inbounds %"struct.std::_Vector_base", %"struct.std::_Vector_base"* %6, i32 0, i32 0, !dbg !3284
  %8 = getelementptr inbounds %"struct.std::_Vector_base<float *, std::allocator<float *> >::_Vector_impl", %"struct.std::_Vector_base<float *, std::allocator<float *> >::_Vector_impl"* %7, i32 0, i32 0, !dbg !3285
  %9 = load float**, float*** %8, align 4, !dbg !3285
  %10 = load i32, i32* %4, align 4, !dbg !3286
  %11 = getelementptr inbounds float*, float** %9, i32 %10, !dbg !3287
  ret float** %11, !dbg !3288
}

; Function Attrs: nobuiltin nounwind
declare !xidane.fname !3289 !xidane.function_declaration_type !3290 void @_ZdaPv(i8*) #9

; Function Attrs: nounwind
declare !xidane.fname !3291 !xidane.function_declaration_type !3292 !xidane.function_declaration_filename !3293 !xidane.ExternC !2718 double @pow(double, double) #2

define linkonce_odr %"struct.std::_Vector_base"* @_ZNSt12_Vector_baseIPfSaIS0_EEC2Ev(%"struct.std::_Vector_base"* returned) unnamed_addr #0 comdat align 2 !dbg !3294 !xidane.fname !3295 !xidane.function_declaration_type !1763 !xidane.function_declaration_filename !2322 {
  %2 = alloca %"struct.std::_Vector_base"*, align 4
  store %"struct.std::_Vector_base"* %0, %"struct.std::_Vector_base"** %2, align 4
  call void @llvm.dbg.declare(metadata %"struct.std::_Vector_base"** %2, metadata !3296, metadata !2236), !dbg !3298
  %3 = load %"struct.std::_Vector_base"*, %"struct.std::_Vector_base"** %2, align 4
  %4 = getelementptr inbounds %"struct.std::_Vector_base", %"struct.std::_Vector_base"* %3, i32 0, i32 0, !dbg !3299
  %5 = call %"struct.std::_Vector_base<float *, std::allocator<float *> >::_Vector_impl"* @_ZNSt12_Vector_baseIPfSaIS0_EE12_Vector_implC2Ev(%"struct.std::_Vector_base<float *, std::allocator<float *> >::_Vector_impl"* %4), !dbg !3299
  ret %"struct.std::_Vector_base"* %3, !dbg !3300
}

; Function Attrs: noinline noreturn nounwind
define linkonce_odr hidden void @__clang_call_terminate(i8*) #10 comdat {
  %2 = call i8* @__cxa_begin_catch(i8* %0) #3
  call void @_ZSt9terminatev() #14
  unreachable
}

declare i8* @__cxa_begin_catch(i8*)

declare void @_ZSt9terminatev()

; Function Attrs: nounwind
define linkonce_odr %"struct.std::_Vector_base<float *, std::allocator<float *> >::_Vector_impl"* @_ZNSt12_Vector_baseIPfSaIS0_EE12_Vector_implC2Ev(%"struct.std::_Vector_base<float *, std::allocator<float *> >::_Vector_impl"* returned) unnamed_addr #5 comdat align 2 !dbg !3301 !xidane.fname !3302 !xidane.function_declaration_type !1763 !xidane.function_declaration_filename !2322 {
  %2 = alloca %"struct.std::_Vector_base<float *, std::allocator<float *> >::_Vector_impl"*, align 4
  store %"struct.std::_Vector_base<float *, std::allocator<float *> >::_Vector_impl"* %0, %"struct.std::_Vector_base<float *, std::allocator<float *> >::_Vector_impl"** %2, align 4
  call void @llvm.dbg.declare(metadata %"struct.std::_Vector_base<float *, std::allocator<float *> >::_Vector_impl"** %2, metadata !3303, metadata !2236), !dbg !3305
  %3 = load %"struct.std::_Vector_base<float *, std::allocator<float *> >::_Vector_impl"*, %"struct.std::_Vector_base<float *, std::allocator<float *> >::_Vector_impl"** %2, align 4
  %4 = bitcast %"struct.std::_Vector_base<float *, std::allocator<float *> >::_Vector_impl"* %3 to %"class.std::allocator"*, !dbg !3306
  %5 = call %"class.std::allocator"* @_ZNSaIPfEC2Ev(%"class.std::allocator"* %4) #3, !dbg !3307
  %6 = getelementptr inbounds %"struct.std::_Vector_base<float *, std::allocator<float *> >::_Vector_impl", %"struct.std::_Vector_base<float *, std::allocator<float *> >::_Vector_impl"* %3, i32 0, i32 0, !dbg !3308
  store float** null, float*** %6, align 4, !dbg !3308
  %7 = getelementptr inbounds %"struct.std::_Vector_base<float *, std::allocator<float *> >::_Vector_impl", %"struct.std::_Vector_base<float *, std::allocator<float *> >::_Vector_impl"* %3, i32 0, i32 1, !dbg !3309
  store float** null, float*** %7, align 4, !dbg !3309
  %8 = getelementptr inbounds %"struct.std::_Vector_base<float *, std::allocator<float *> >::_Vector_impl", %"struct.std::_Vector_base<float *, std::allocator<float *> >::_Vector_impl"* %3, i32 0, i32 2, !dbg !3310
  store float** null, float*** %8, align 4, !dbg !3310
  ret %"struct.std::_Vector_base<float *, std::allocator<float *> >::_Vector_impl"* %3, !dbg !3311
}

; Function Attrs: nounwind
define linkonce_odr %"class.std::allocator"* @_ZNSaIPfEC2Ev(%"class.std::allocator"* returned) unnamed_addr #5 comdat align 2 !dbg !3312 !xidane.fname !3313 !xidane.function_declaration_type !1763 !xidane.function_declaration_filename !3314 {
  %2 = alloca %"class.std::allocator"*, align 4
  store %"class.std::allocator"* %0, %"class.std::allocator"** %2, align 4
  call void @llvm.dbg.declare(metadata %"class.std::allocator"** %2, metadata !3315, metadata !2236), !dbg !3317
  %3 = load %"class.std::allocator"*, %"class.std::allocator"** %2, align 4
  %4 = bitcast %"class.std::allocator"* %3 to %"class.__gnu_cxx::new_allocator"*, !dbg !3318
  %5 = call %"class.__gnu_cxx::new_allocator"* @_ZN9__gnu_cxx13new_allocatorIPfEC2Ev(%"class.__gnu_cxx::new_allocator"* %4) #3, !dbg !3319
  ret %"class.std::allocator"* %3, !dbg !3320
}

; Function Attrs: nounwind
define linkonce_odr %"class.__gnu_cxx::new_allocator"* @_ZN9__gnu_cxx13new_allocatorIPfEC2Ev(%"class.__gnu_cxx::new_allocator"* returned) unnamed_addr #5 comdat align 2 !dbg !3321 !xidane.fname !3322 !xidane.function_declaration_type !1763 !xidane.function_declaration_filename !3323 {
  %2 = alloca %"class.__gnu_cxx::new_allocator"*, align 4
  store %"class.__gnu_cxx::new_allocator"* %0, %"class.__gnu_cxx::new_allocator"** %2, align 4
  call void @llvm.dbg.declare(metadata %"class.__gnu_cxx::new_allocator"** %2, metadata !3324, metadata !2236), !dbg !3326
  %3 = load %"class.__gnu_cxx::new_allocator"*, %"class.__gnu_cxx::new_allocator"** %2, align 4
  ret %"class.__gnu_cxx::new_allocator"* %3, !dbg !3327
}

define linkonce_odr %"struct.std::_Vector_base.1"* @_ZNSt12_Vector_baseIPiSaIS0_EEC2Ev(%"struct.std::_Vector_base.1"* returned) unnamed_addr #0 comdat align 2 !dbg !3328 !xidane.fname !3295 !xidane.function_declaration_type !1763 !xidane.function_declaration_filename !2322 {
  %2 = alloca %"struct.std::_Vector_base.1"*, align 4
  store %"struct.std::_Vector_base.1"* %0, %"struct.std::_Vector_base.1"** %2, align 4
  call void @llvm.dbg.declare(metadata %"struct.std::_Vector_base.1"** %2, metadata !3329, metadata !2236), !dbg !3331
  %3 = load %"struct.std::_Vector_base.1"*, %"struct.std::_Vector_base.1"** %2, align 4
  %4 = getelementptr inbounds %"struct.std::_Vector_base.1", %"struct.std::_Vector_base.1"* %3, i32 0, i32 0, !dbg !3332
  %5 = call %"struct.std::_Vector_base<int *, std::allocator<int *> >::_Vector_impl"* @_ZNSt12_Vector_baseIPiSaIS0_EE12_Vector_implC2Ev(%"struct.std::_Vector_base<int *, std::allocator<int *> >::_Vector_impl"* %4), !dbg !3332
  ret %"struct.std::_Vector_base.1"* %3, !dbg !3333
}

; Function Attrs: nounwind
define linkonce_odr %"struct.std::_Vector_base<int *, std::allocator<int *> >::_Vector_impl"* @_ZNSt12_Vector_baseIPiSaIS0_EE12_Vector_implC2Ev(%"struct.std::_Vector_base<int *, std::allocator<int *> >::_Vector_impl"* returned) unnamed_addr #5 comdat align 2 !dbg !3334 !xidane.fname !3302 !xidane.function_declaration_type !1763 !xidane.function_declaration_filename !2322 {
  %2 = alloca %"struct.std::_Vector_base<int *, std::allocator<int *> >::_Vector_impl"*, align 4
  store %"struct.std::_Vector_base<int *, std::allocator<int *> >::_Vector_impl"* %0, %"struct.std::_Vector_base<int *, std::allocator<int *> >::_Vector_impl"** %2, align 4
  call void @llvm.dbg.declare(metadata %"struct.std::_Vector_base<int *, std::allocator<int *> >::_Vector_impl"** %2, metadata !3335, metadata !2236), !dbg !3337
  %3 = load %"struct.std::_Vector_base<int *, std::allocator<int *> >::_Vector_impl"*, %"struct.std::_Vector_base<int *, std::allocator<int *> >::_Vector_impl"** %2, align 4
  %4 = bitcast %"struct.std::_Vector_base<int *, std::allocator<int *> >::_Vector_impl"* %3 to %"class.std::allocator.2"*, !dbg !3338
  %5 = call %"class.std::allocator.2"* @_ZNSaIPiEC2Ev(%"class.std::allocator.2"* %4) #3, !dbg !3339
  %6 = getelementptr inbounds %"struct.std::_Vector_base<int *, std::allocator<int *> >::_Vector_impl", %"struct.std::_Vector_base<int *, std::allocator<int *> >::_Vector_impl"* %3, i32 0, i32 0, !dbg !3340
  store i32** null, i32*** %6, align 4, !dbg !3340
  %7 = getelementptr inbounds %"struct.std::_Vector_base<int *, std::allocator<int *> >::_Vector_impl", %"struct.std::_Vector_base<int *, std::allocator<int *> >::_Vector_impl"* %3, i32 0, i32 1, !dbg !3341
  store i32** null, i32*** %7, align 4, !dbg !3341
  %8 = getelementptr inbounds %"struct.std::_Vector_base<int *, std::allocator<int *> >::_Vector_impl", %"struct.std::_Vector_base<int *, std::allocator<int *> >::_Vector_impl"* %3, i32 0, i32 2, !dbg !3342
  store i32** null, i32*** %8, align 4, !dbg !3342
  ret %"struct.std::_Vector_base<int *, std::allocator<int *> >::_Vector_impl"* %3, !dbg !3343
}

; Function Attrs: nounwind
define linkonce_odr %"class.std::allocator.2"* @_ZNSaIPiEC2Ev(%"class.std::allocator.2"* returned) unnamed_addr #5 comdat align 2 !dbg !3344 !xidane.fname !3313 !xidane.function_declaration_type !1763 !xidane.function_declaration_filename !3314 {
  %2 = alloca %"class.std::allocator.2"*, align 4
  store %"class.std::allocator.2"* %0, %"class.std::allocator.2"** %2, align 4
  call void @llvm.dbg.declare(metadata %"class.std::allocator.2"** %2, metadata !3345, metadata !2236), !dbg !3347
  %3 = load %"class.std::allocator.2"*, %"class.std::allocator.2"** %2, align 4
  %4 = bitcast %"class.std::allocator.2"* %3 to %"class.__gnu_cxx::new_allocator.3"*, !dbg !3348
  %5 = call %"class.__gnu_cxx::new_allocator.3"* @_ZN9__gnu_cxx13new_allocatorIPiEC2Ev(%"class.__gnu_cxx::new_allocator.3"* %4) #3, !dbg !3349
  ret %"class.std::allocator.2"* %3, !dbg !3350
}

; Function Attrs: nounwind
define linkonce_odr %"class.__gnu_cxx::new_allocator.3"* @_ZN9__gnu_cxx13new_allocatorIPiEC2Ev(%"class.__gnu_cxx::new_allocator.3"* returned) unnamed_addr #5 comdat align 2 !dbg !3351 !xidane.fname !3322 !xidane.function_declaration_type !1763 !xidane.function_declaration_filename !3323 {
  %2 = alloca %"class.__gnu_cxx::new_allocator.3"*, align 4
  store %"class.__gnu_cxx::new_allocator.3"* %0, %"class.__gnu_cxx::new_allocator.3"** %2, align 4
  call void @llvm.dbg.declare(metadata %"class.__gnu_cxx::new_allocator.3"** %2, metadata !3352, metadata !2236), !dbg !3354
  %3 = load %"class.__gnu_cxx::new_allocator.3"*, %"class.__gnu_cxx::new_allocator.3"** %2, align 4
  ret %"class.__gnu_cxx::new_allocator.3"* %3, !dbg !3355
}

; Function Attrs: inlinehint
define linkonce_odr void @_ZSt8_DestroyIPPfS0_EvT_S2_RSaIT0_E(float**, float**, %"class.std::allocator"* dereferenceable(1)) #11 comdat !dbg !3356 !xidane.fname !3362 !xidane.function_declaration_type !3363 !xidane.function_declaration_filename !3364 {
  %4 = alloca float**, align 4
  %5 = alloca float**, align 4
  %6 = alloca %"class.std::allocator"*, align 4
  store float** %0, float*** %4, align 4
  call void @llvm.dbg.declare(metadata float*** %4, metadata !3365, metadata !2236), !dbg !3366
  store float** %1, float*** %5, align 4
  call void @llvm.dbg.declare(metadata float*** %5, metadata !3367, metadata !2236), !dbg !3368
  store %"class.std::allocator"* %2, %"class.std::allocator"** %6, align 4
  call void @llvm.dbg.declare(metadata %"class.std::allocator"** %6, metadata !3369, metadata !2236), !dbg !3370
  %7 = load float**, float*** %4, align 4, !dbg !3371
  %8 = load float**, float*** %5, align 4, !dbg !3372
  call void @_ZSt8_DestroyIPPfEvT_S2_(float** %7, float** %8), !dbg !3373
  ret void, !dbg !3374
}

; Function Attrs: nounwind
define linkonce_odr dereferenceable(1) %"class.std::allocator"* @_ZNSt12_Vector_baseIPfSaIS0_EE19_M_get_Tp_allocatorEv(%"struct.std::_Vector_base"*) #5 comdat align 2 !dbg !3375 !xidane.fname !3376 !xidane.function_declaration_type !3377 !xidane.function_declaration_filename !2322 {
  %2 = alloca %"struct.std::_Vector_base"*, align 4
  store %"struct.std::_Vector_base"* %0, %"struct.std::_Vector_base"** %2, align 4
  call void @llvm.dbg.declare(metadata %"struct.std::_Vector_base"** %2, metadata !3378, metadata !2236), !dbg !3379
  %3 = load %"struct.std::_Vector_base"*, %"struct.std::_Vector_base"** %2, align 4
  %4 = getelementptr inbounds %"struct.std::_Vector_base", %"struct.std::_Vector_base"* %3, i32 0, i32 0, !dbg !3380
  %5 = bitcast %"struct.std::_Vector_base<float *, std::allocator<float *> >::_Vector_impl"* %4 to %"class.std::allocator"*, !dbg !3381
  ret %"class.std::allocator"* %5, !dbg !3382
}

; Function Attrs: nounwind
define linkonce_odr %"struct.std::_Vector_base"* @_ZNSt12_Vector_baseIPfSaIS0_EED2Ev(%"struct.std::_Vector_base"* returned) unnamed_addr #5 comdat align 2 personality i8* bitcast (i32 (...)* @__gxx_personality_v0 to i8*) !dbg !3383 !xidane.fname !3384 !xidane.function_declaration_type !1763 !xidane.function_declaration_filename !2322 {
  %2 = alloca %"struct.std::_Vector_base"*, align 4
  %3 = alloca i8*
  %4 = alloca i32
  store %"struct.std::_Vector_base"* %0, %"struct.std::_Vector_base"** %2, align 4
  call void @llvm.dbg.declare(metadata %"struct.std::_Vector_base"** %2, metadata !3385, metadata !2236), !dbg !3386
  %5 = load %"struct.std::_Vector_base"*, %"struct.std::_Vector_base"** %2, align 4
  %6 = getelementptr inbounds %"struct.std::_Vector_base", %"struct.std::_Vector_base"* %5, i32 0, i32 0, !dbg !3387
  %7 = getelementptr inbounds %"struct.std::_Vector_base<float *, std::allocator<float *> >::_Vector_impl", %"struct.std::_Vector_base<float *, std::allocator<float *> >::_Vector_impl"* %6, i32 0, i32 0, !dbg !3389
  %8 = load float**, float*** %7, align 4, !dbg !3389
  %9 = getelementptr inbounds %"struct.std::_Vector_base", %"struct.std::_Vector_base"* %5, i32 0, i32 0, !dbg !3390
  %10 = getelementptr inbounds %"struct.std::_Vector_base<float *, std::allocator<float *> >::_Vector_impl", %"struct.std::_Vector_base<float *, std::allocator<float *> >::_Vector_impl"* %9, i32 0, i32 2, !dbg !3391
  %11 = load float**, float*** %10, align 4, !dbg !3391
  %12 = getelementptr inbounds %"struct.std::_Vector_base", %"struct.std::_Vector_base"* %5, i32 0, i32 0, !dbg !3392
  %13 = getelementptr inbounds %"struct.std::_Vector_base<float *, std::allocator<float *> >::_Vector_impl", %"struct.std::_Vector_base<float *, std::allocator<float *> >::_Vector_impl"* %12, i32 0, i32 0, !dbg !3393
  %14 = load float**, float*** %13, align 4, !dbg !3393
  %15 = ptrtoint float** %11 to i32, !dbg !3394
  %16 = ptrtoint float** %14 to i32, !dbg !3394
  %17 = sub i32 %15, %16, !dbg !3394
  %18 = sdiv exact i32 %17, 4, !dbg !3394
  invoke void @_ZNSt12_Vector_baseIPfSaIS0_EE13_M_deallocateEPS0_j(%"struct.std::_Vector_base"* %5, float** %8, i32 %18)
          to label %19 unwind label %22, !dbg !3395

; <label>:19:                                     ; preds = %1
  %20 = getelementptr inbounds %"struct.std::_Vector_base", %"struct.std::_Vector_base"* %5, i32 0, i32 0, !dbg !3396
  %21 = call %"struct.std::_Vector_base<float *, std::allocator<float *> >::_Vector_impl"* @_ZNSt12_Vector_baseIPfSaIS0_EE12_Vector_implD2Ev(%"struct.std::_Vector_base<float *, std::allocator<float *> >::_Vector_impl"* %20) #3, !dbg !3396
  ret %"struct.std::_Vector_base"* %5, !dbg !3396

; <label>:22:                                     ; preds = %1
  %23 = landingpad { i8*, i32 }
          catch i8* null, !dbg !3398
  %24 = extractvalue { i8*, i32 } %23, 0, !dbg !3398
  store i8* %24, i8** %3, align 4, !dbg !3398
  %25 = extractvalue { i8*, i32 } %23, 1, !dbg !3398
  store i32 %25, i32* %4, align 4, !dbg !3398
  %26 = getelementptr inbounds %"struct.std::_Vector_base", %"struct.std::_Vector_base"* %5, i32 0, i32 0, !dbg !3398
  %27 = call %"struct.std::_Vector_base<float *, std::allocator<float *> >::_Vector_impl"* @_ZNSt12_Vector_baseIPfSaIS0_EE12_Vector_implD2Ev(%"struct.std::_Vector_base<float *, std::allocator<float *> >::_Vector_impl"* %26) #3, !dbg !3398
  br label %28, !dbg !3398

; <label>:28:                                     ; preds = %22
  %29 = load i8*, i8** %3, align 4, !dbg !3400
  call void @__clang_call_terminate(i8* %29) #14, !dbg !3400
  unreachable, !dbg !3400
}

; Function Attrs: inlinehint
define linkonce_odr void @_ZSt8_DestroyIPPfEvT_S2_(float**, float**) #11 comdat !dbg !3402 !xidane.fname !3362 !xidane.function_declaration_type !3406 !xidane.function_declaration_filename !3364 {
  %3 = alloca float**, align 4
  %4 = alloca float**, align 4
  store float** %0, float*** %3, align 4
  call void @llvm.dbg.declare(metadata float*** %3, metadata !3407, metadata !2236), !dbg !3408
  store float** %1, float*** %4, align 4
  call void @llvm.dbg.declare(metadata float*** %4, metadata !3409, metadata !2236), !dbg !3410
  %5 = load float**, float*** %3, align 4, !dbg !3411
  %6 = load float**, float*** %4, align 4, !dbg !3412
  call void @_ZNSt12_Destroy_auxILb1EE9__destroyIPPfEEvT_S4_(float** %5, float** %6), !dbg !3413
  ret void, !dbg !3414
}

; Function Attrs: nounwind
define linkonce_odr void @_ZNSt12_Destroy_auxILb1EE9__destroyIPPfEEvT_S4_(float**, float**) #5 comdat align 2 !dbg !3415 !xidane.fname !3420 !xidane.function_declaration_type !3406 !xidane.function_declaration_filename !3364 {
  %3 = alloca float**, align 4
  %4 = alloca float**, align 4
  store float** %0, float*** %3, align 4
  call void @llvm.dbg.declare(metadata float*** %3, metadata !3421, metadata !2236), !dbg !3422
  store float** %1, float*** %4, align 4
  call void @llvm.dbg.declare(metadata float*** %4, metadata !3423, metadata !2236), !dbg !3424
  ret void, !dbg !3425
}

define linkonce_odr void @_ZNSt12_Vector_baseIPfSaIS0_EE13_M_deallocateEPS0_j(%"struct.std::_Vector_base"*, float**, i32) #0 comdat align 2 !dbg !3426 !xidane.fname !3427 !xidane.function_declaration_type !3428 !xidane.function_declaration_filename !2322 {
  %4 = alloca %"struct.std::_Vector_base"*, align 4
  %5 = alloca float**, align 4
  %6 = alloca i32, align 4
  store %"struct.std::_Vector_base"* %0, %"struct.std::_Vector_base"** %4, align 4
  call void @llvm.dbg.declare(metadata %"struct.std::_Vector_base"** %4, metadata !3429, metadata !2236), !dbg !3430
  store float** %1, float*** %5, align 4
  call void @llvm.dbg.declare(metadata float*** %5, metadata !3431, metadata !2236), !dbg !3432
  store i32 %2, i32* %6, align 4
  call void @llvm.dbg.declare(metadata i32* %6, metadata !3433, metadata !2236), !dbg !3434
  %7 = load %"struct.std::_Vector_base"*, %"struct.std::_Vector_base"** %4, align 4
  %8 = load float**, float*** %5, align 4, !dbg !3435
  %9 = icmp ne float** %8, null, !dbg !3435
  br i1 %9, label %10, label %15, !dbg !3437

; <label>:10:                                     ; preds = %3
  %11 = getelementptr inbounds %"struct.std::_Vector_base", %"struct.std::_Vector_base"* %7, i32 0, i32 0, !dbg !3438
  %12 = bitcast %"struct.std::_Vector_base<float *, std::allocator<float *> >::_Vector_impl"* %11 to %"class.std::allocator"*, !dbg !3438
  %13 = load float**, float*** %5, align 4, !dbg !3439
  %14 = load i32, i32* %6, align 4, !dbg !3440
  call void @_ZNSt16allocator_traitsISaIPfEE10deallocateERS1_PS0_j(%"class.std::allocator"* dereferenceable(1) %12, float** %13, i32 %14), !dbg !3441
  br label %15, !dbg !3441

; <label>:15:                                     ; preds = %10, %3
  ret void, !dbg !3442
}

; Function Attrs: inlinehint nounwind
define linkonce_odr %"struct.std::_Vector_base<float *, std::allocator<float *> >::_Vector_impl"* @_ZNSt12_Vector_baseIPfSaIS0_EE12_Vector_implD2Ev(%"struct.std::_Vector_base<float *, std::allocator<float *> >::_Vector_impl"* returned) unnamed_addr #6 comdat align 2 !dbg !3443 !xidane.fname !3445 !xidane.function_declaration_type !1763 !xidane.function_declaration_filename !2322 {
  %2 = alloca %"struct.std::_Vector_base<float *, std::allocator<float *> >::_Vector_impl"*, align 4
  store %"struct.std::_Vector_base<float *, std::allocator<float *> >::_Vector_impl"* %0, %"struct.std::_Vector_base<float *, std::allocator<float *> >::_Vector_impl"** %2, align 4
  call void @llvm.dbg.declare(metadata %"struct.std::_Vector_base<float *, std::allocator<float *> >::_Vector_impl"** %2, metadata !3446, metadata !2236), !dbg !3447
  %3 = load %"struct.std::_Vector_base<float *, std::allocator<float *> >::_Vector_impl"*, %"struct.std::_Vector_base<float *, std::allocator<float *> >::_Vector_impl"** %2, align 4
  %4 = bitcast %"struct.std::_Vector_base<float *, std::allocator<float *> >::_Vector_impl"* %3 to %"class.std::allocator"*, !dbg !3448
  %5 = call %"class.std::allocator"* @_ZNSaIPfED2Ev(%"class.std::allocator"* %4) #3, !dbg !3448
  ret %"struct.std::_Vector_base<float *, std::allocator<float *> >::_Vector_impl"* %3, !dbg !3450
}

define linkonce_odr void @_ZNSt16allocator_traitsISaIPfEE10deallocateERS1_PS0_j(%"class.std::allocator"* dereferenceable(1), float**, i32) #0 comdat align 2 !dbg !3451 !xidane.fname !3452 !xidane.function_declaration_type !3453 !xidane.function_declaration_filename !3454 {
  %4 = alloca %"class.std::allocator"*, align 4
  %5 = alloca float**, align 4
  %6 = alloca i32, align 4
  store %"class.std::allocator"* %0, %"class.std::allocator"** %4, align 4
  call void @llvm.dbg.declare(metadata %"class.std::allocator"** %4, metadata !3455, metadata !2236), !dbg !3456
  store float** %1, float*** %5, align 4
  call void @llvm.dbg.declare(metadata float*** %5, metadata !3457, metadata !2236), !dbg !3458
  store i32 %2, i32* %6, align 4
  call void @llvm.dbg.declare(metadata i32* %6, metadata !3459, metadata !2236), !dbg !3460
  %7 = load %"class.std::allocator"*, %"class.std::allocator"** %4, align 4, !dbg !3461
  %8 = bitcast %"class.std::allocator"* %7 to %"class.__gnu_cxx::new_allocator"*, !dbg !3461
  %9 = load float**, float*** %5, align 4, !dbg !3462
  %10 = load i32, i32* %6, align 4, !dbg !3463
  call void @_ZN9__gnu_cxx13new_allocatorIPfE10deallocateEPS1_j(%"class.__gnu_cxx::new_allocator"* %8, float** %9, i32 %10), !dbg !3464
  ret void, !dbg !3465
}

; Function Attrs: nounwind
define linkonce_odr void @_ZN9__gnu_cxx13new_allocatorIPfE10deallocateEPS1_j(%"class.__gnu_cxx::new_allocator"*, float**, i32) #5 comdat align 2 !dbg !3466 !xidane.fname !3452 !xidane.function_declaration_type !3467 !xidane.function_declaration_filename !3323 {
  %4 = alloca %"class.__gnu_cxx::new_allocator"*, align 4
  %5 = alloca float**, align 4
  %6 = alloca i32, align 4
  store %"class.__gnu_cxx::new_allocator"* %0, %"class.__gnu_cxx::new_allocator"** %4, align 4
  call void @llvm.dbg.declare(metadata %"class.__gnu_cxx::new_allocator"** %4, metadata !3468, metadata !2236), !dbg !3469
  store float** %1, float*** %5, align 4
  call void @llvm.dbg.declare(metadata float*** %5, metadata !3470, metadata !2236), !dbg !3471
  store i32 %2, i32* %6, align 4
  call void @llvm.dbg.declare(metadata i32* %6, metadata !3472, metadata !2236), !dbg !3473
  %7 = load %"class.__gnu_cxx::new_allocator"*, %"class.__gnu_cxx::new_allocator"** %4, align 4
  %8 = load float**, float*** %5, align 4, !dbg !3474
  %9 = bitcast float** %8 to i8*, !dbg !3474
  call void @_ZdlPv(i8* %9) #3, !dbg !3475
  ret void, !dbg !3476
}

; Function Attrs: nobuiltin nounwind
declare !xidane.fname !3477 !xidane.function_declaration_type !3290 void @_ZdlPv(i8*) #9

; Function Attrs: nounwind
define linkonce_odr %"class.std::allocator"* @_ZNSaIPfED2Ev(%"class.std::allocator"* returned) unnamed_addr #5 comdat align 2 !dbg !3478 !xidane.fname !3479 !xidane.function_declaration_type !1763 !xidane.function_declaration_filename !3314 {
  %2 = alloca %"class.std::allocator"*, align 4
  store %"class.std::allocator"* %0, %"class.std::allocator"** %2, align 4
  call void @llvm.dbg.declare(metadata %"class.std::allocator"** %2, metadata !3480, metadata !2236), !dbg !3481
  %3 = load %"class.std::allocator"*, %"class.std::allocator"** %2, align 4
  %4 = bitcast %"class.std::allocator"* %3 to %"class.__gnu_cxx::new_allocator"*, !dbg !3482
  %5 = call %"class.__gnu_cxx::new_allocator"* @_ZN9__gnu_cxx13new_allocatorIPfED2Ev(%"class.__gnu_cxx::new_allocator"* %4) #3, !dbg !3482
  ret %"class.std::allocator"* %3, !dbg !3484
}

; Function Attrs: nounwind
define linkonce_odr %"class.__gnu_cxx::new_allocator"* @_ZN9__gnu_cxx13new_allocatorIPfED2Ev(%"class.__gnu_cxx::new_allocator"* returned) unnamed_addr #5 comdat align 2 !dbg !3485 !xidane.fname !3486 !xidane.function_declaration_type !1763 !xidane.function_declaration_filename !3323 {
  %2 = alloca %"class.__gnu_cxx::new_allocator"*, align 4
  store %"class.__gnu_cxx::new_allocator"* %0, %"class.__gnu_cxx::new_allocator"** %2, align 4
  call void @llvm.dbg.declare(metadata %"class.__gnu_cxx::new_allocator"** %2, metadata !3487, metadata !2236), !dbg !3488
  %3 = load %"class.__gnu_cxx::new_allocator"*, %"class.__gnu_cxx::new_allocator"** %2, align 4
  ret %"class.__gnu_cxx::new_allocator"* %3, !dbg !3489
}

; Function Attrs: inlinehint
define linkonce_odr void @_ZSt8_DestroyIPPiS0_EvT_S2_RSaIT0_E(i32**, i32**, %"class.std::allocator.2"* dereferenceable(1)) #11 comdat !dbg !3490 !xidane.fname !3362 !xidane.function_declaration_type !3495 !xidane.function_declaration_filename !3364 {
  %4 = alloca i32**, align 4
  %5 = alloca i32**, align 4
  %6 = alloca %"class.std::allocator.2"*, align 4
  store i32** %0, i32*** %4, align 4
  call void @llvm.dbg.declare(metadata i32*** %4, metadata !3496, metadata !2236), !dbg !3497
  store i32** %1, i32*** %5, align 4
  call void @llvm.dbg.declare(metadata i32*** %5, metadata !3498, metadata !2236), !dbg !3499
  store %"class.std::allocator.2"* %2, %"class.std::allocator.2"** %6, align 4
  call void @llvm.dbg.declare(metadata %"class.std::allocator.2"** %6, metadata !3500, metadata !2236), !dbg !3501
  %7 = load i32**, i32*** %4, align 4, !dbg !3502
  %8 = load i32**, i32*** %5, align 4, !dbg !3503
  call void @_ZSt8_DestroyIPPiEvT_S2_(i32** %7, i32** %8), !dbg !3504
  ret void, !dbg !3505
}

; Function Attrs: nounwind
define linkonce_odr dereferenceable(1) %"class.std::allocator.2"* @_ZNSt12_Vector_baseIPiSaIS0_EE19_M_get_Tp_allocatorEv(%"struct.std::_Vector_base.1"*) #5 comdat align 2 !dbg !3506 !xidane.fname !3376 !xidane.function_declaration_type !3377 !xidane.function_declaration_filename !2322 {
  %2 = alloca %"struct.std::_Vector_base.1"*, align 4
  store %"struct.std::_Vector_base.1"* %0, %"struct.std::_Vector_base.1"** %2, align 4
  call void @llvm.dbg.declare(metadata %"struct.std::_Vector_base.1"** %2, metadata !3507, metadata !2236), !dbg !3508
  %3 = load %"struct.std::_Vector_base.1"*, %"struct.std::_Vector_base.1"** %2, align 4
  %4 = getelementptr inbounds %"struct.std::_Vector_base.1", %"struct.std::_Vector_base.1"* %3, i32 0, i32 0, !dbg !3509
  %5 = bitcast %"struct.std::_Vector_base<int *, std::allocator<int *> >::_Vector_impl"* %4 to %"class.std::allocator.2"*, !dbg !3510
  ret %"class.std::allocator.2"* %5, !dbg !3511
}

; Function Attrs: nounwind
define linkonce_odr %"struct.std::_Vector_base.1"* @_ZNSt12_Vector_baseIPiSaIS0_EED2Ev(%"struct.std::_Vector_base.1"* returned) unnamed_addr #5 comdat align 2 personality i8* bitcast (i32 (...)* @__gxx_personality_v0 to i8*) !dbg !3512 !xidane.fname !3384 !xidane.function_declaration_type !1763 !xidane.function_declaration_filename !2322 {
  %2 = alloca %"struct.std::_Vector_base.1"*, align 4
  %3 = alloca i8*
  %4 = alloca i32
  store %"struct.std::_Vector_base.1"* %0, %"struct.std::_Vector_base.1"** %2, align 4
  call void @llvm.dbg.declare(metadata %"struct.std::_Vector_base.1"** %2, metadata !3513, metadata !2236), !dbg !3514
  %5 = load %"struct.std::_Vector_base.1"*, %"struct.std::_Vector_base.1"** %2, align 4
  %6 = getelementptr inbounds %"struct.std::_Vector_base.1", %"struct.std::_Vector_base.1"* %5, i32 0, i32 0, !dbg !3515
  %7 = getelementptr inbounds %"struct.std::_Vector_base<int *, std::allocator<int *> >::_Vector_impl", %"struct.std::_Vector_base<int *, std::allocator<int *> >::_Vector_impl"* %6, i32 0, i32 0, !dbg !3517
  %8 = load i32**, i32*** %7, align 4, !dbg !3517
  %9 = getelementptr inbounds %"struct.std::_Vector_base.1", %"struct.std::_Vector_base.1"* %5, i32 0, i32 0, !dbg !3518
  %10 = getelementptr inbounds %"struct.std::_Vector_base<int *, std::allocator<int *> >::_Vector_impl", %"struct.std::_Vector_base<int *, std::allocator<int *> >::_Vector_impl"* %9, i32 0, i32 2, !dbg !3519
  %11 = load i32**, i32*** %10, align 4, !dbg !3519
  %12 = getelementptr inbounds %"struct.std::_Vector_base.1", %"struct.std::_Vector_base.1"* %5, i32 0, i32 0, !dbg !3520
  %13 = getelementptr inbounds %"struct.std::_Vector_base<int *, std::allocator<int *> >::_Vector_impl", %"struct.std::_Vector_base<int *, std::allocator<int *> >::_Vector_impl"* %12, i32 0, i32 0, !dbg !3521
  %14 = load i32**, i32*** %13, align 4, !dbg !3521
  %15 = ptrtoint i32** %11 to i32, !dbg !3522
  %16 = ptrtoint i32** %14 to i32, !dbg !3522
  %17 = sub i32 %15, %16, !dbg !3522
  %18 = sdiv exact i32 %17, 4, !dbg !3522
  invoke void @_ZNSt12_Vector_baseIPiSaIS0_EE13_M_deallocateEPS0_j(%"struct.std::_Vector_base.1"* %5, i32** %8, i32 %18)
          to label %19 unwind label %22, !dbg !3523

; <label>:19:                                     ; preds = %1
  %20 = getelementptr inbounds %"struct.std::_Vector_base.1", %"struct.std::_Vector_base.1"* %5, i32 0, i32 0, !dbg !3524
  %21 = call %"struct.std::_Vector_base<int *, std::allocator<int *> >::_Vector_impl"* @_ZNSt12_Vector_baseIPiSaIS0_EE12_Vector_implD2Ev(%"struct.std::_Vector_base<int *, std::allocator<int *> >::_Vector_impl"* %20) #3, !dbg !3524
  ret %"struct.std::_Vector_base.1"* %5, !dbg !3524

; <label>:22:                                     ; preds = %1
  %23 = landingpad { i8*, i32 }
          catch i8* null, !dbg !3526
  %24 = extractvalue { i8*, i32 } %23, 0, !dbg !3526
  store i8* %24, i8** %3, align 4, !dbg !3526
  %25 = extractvalue { i8*, i32 } %23, 1, !dbg !3526
  store i32 %25, i32* %4, align 4, !dbg !3526
  %26 = getelementptr inbounds %"struct.std::_Vector_base.1", %"struct.std::_Vector_base.1"* %5, i32 0, i32 0, !dbg !3526
  %27 = call %"struct.std::_Vector_base<int *, std::allocator<int *> >::_Vector_impl"* @_ZNSt12_Vector_baseIPiSaIS0_EE12_Vector_implD2Ev(%"struct.std::_Vector_base<int *, std::allocator<int *> >::_Vector_impl"* %26) #3, !dbg !3526
  br label %28, !dbg !3526

; <label>:28:                                     ; preds = %22
  %29 = load i8*, i8** %3, align 4, !dbg !3528
  call void @__clang_call_terminate(i8* %29) #14, !dbg !3528
  unreachable, !dbg !3528
}

; Function Attrs: inlinehint
define linkonce_odr void @_ZSt8_DestroyIPPiEvT_S2_(i32**, i32**) #11 comdat !dbg !3530 !xidane.fname !3362 !xidane.function_declaration_type !3534 !xidane.function_declaration_filename !3364 {
  %3 = alloca i32**, align 4
  %4 = alloca i32**, align 4
  store i32** %0, i32*** %3, align 4
  call void @llvm.dbg.declare(metadata i32*** %3, metadata !3535, metadata !2236), !dbg !3536
  store i32** %1, i32*** %4, align 4
  call void @llvm.dbg.declare(metadata i32*** %4, metadata !3537, metadata !2236), !dbg !3538
  %5 = load i32**, i32*** %3, align 4, !dbg !3539
  %6 = load i32**, i32*** %4, align 4, !dbg !3540
  call void @_ZNSt12_Destroy_auxILb1EE9__destroyIPPiEEvT_S4_(i32** %5, i32** %6), !dbg !3541
  ret void, !dbg !3542
}

; Function Attrs: nounwind
define linkonce_odr void @_ZNSt12_Destroy_auxILb1EE9__destroyIPPiEEvT_S4_(i32**, i32**) #5 comdat align 2 !dbg !3543 !xidane.fname !3420 !xidane.function_declaration_type !3534 !xidane.function_declaration_filename !3364 {
  %3 = alloca i32**, align 4
  %4 = alloca i32**, align 4
  store i32** %0, i32*** %3, align 4
  call void @llvm.dbg.declare(metadata i32*** %3, metadata !3545, metadata !2236), !dbg !3546
  store i32** %1, i32*** %4, align 4
  call void @llvm.dbg.declare(metadata i32*** %4, metadata !3547, metadata !2236), !dbg !3548
  ret void, !dbg !3549
}

define linkonce_odr void @_ZNSt12_Vector_baseIPiSaIS0_EE13_M_deallocateEPS0_j(%"struct.std::_Vector_base.1"*, i32**, i32) #0 comdat align 2 !dbg !3550 !xidane.fname !3427 !xidane.function_declaration_type !3428 !xidane.function_declaration_filename !2322 {
  %4 = alloca %"struct.std::_Vector_base.1"*, align 4
  %5 = alloca i32**, align 4
  %6 = alloca i32, align 4
  store %"struct.std::_Vector_base.1"* %0, %"struct.std::_Vector_base.1"** %4, align 4
  call void @llvm.dbg.declare(metadata %"struct.std::_Vector_base.1"** %4, metadata !3551, metadata !2236), !dbg !3552
  store i32** %1, i32*** %5, align 4
  call void @llvm.dbg.declare(metadata i32*** %5, metadata !3553, metadata !2236), !dbg !3554
  store i32 %2, i32* %6, align 4
  call void @llvm.dbg.declare(metadata i32* %6, metadata !3555, metadata !2236), !dbg !3556
  %7 = load %"struct.std::_Vector_base.1"*, %"struct.std::_Vector_base.1"** %4, align 4
  %8 = load i32**, i32*** %5, align 4, !dbg !3557
  %9 = icmp ne i32** %8, null, !dbg !3557
  br i1 %9, label %10, label %15, !dbg !3559

; <label>:10:                                     ; preds = %3
  %11 = getelementptr inbounds %"struct.std::_Vector_base.1", %"struct.std::_Vector_base.1"* %7, i32 0, i32 0, !dbg !3560
  %12 = bitcast %"struct.std::_Vector_base<int *, std::allocator<int *> >::_Vector_impl"* %11 to %"class.std::allocator.2"*, !dbg !3560
  %13 = load i32**, i32*** %5, align 4, !dbg !3561
  %14 = load i32, i32* %6, align 4, !dbg !3562
  call void @_ZNSt16allocator_traitsISaIPiEE10deallocateERS1_PS0_j(%"class.std::allocator.2"* dereferenceable(1) %12, i32** %13, i32 %14), !dbg !3563
  br label %15, !dbg !3563

; <label>:15:                                     ; preds = %10, %3
  ret void, !dbg !3564
}

; Function Attrs: inlinehint nounwind
define linkonce_odr %"struct.std::_Vector_base<int *, std::allocator<int *> >::_Vector_impl"* @_ZNSt12_Vector_baseIPiSaIS0_EE12_Vector_implD2Ev(%"struct.std::_Vector_base<int *, std::allocator<int *> >::_Vector_impl"* returned) unnamed_addr #6 comdat align 2 !dbg !3565 !xidane.fname !3445 !xidane.function_declaration_type !1763 !xidane.function_declaration_filename !2322 {
  %2 = alloca %"struct.std::_Vector_base<int *, std::allocator<int *> >::_Vector_impl"*, align 4
  store %"struct.std::_Vector_base<int *, std::allocator<int *> >::_Vector_impl"* %0, %"struct.std::_Vector_base<int *, std::allocator<int *> >::_Vector_impl"** %2, align 4
  call void @llvm.dbg.declare(metadata %"struct.std::_Vector_base<int *, std::allocator<int *> >::_Vector_impl"** %2, metadata !3567, metadata !2236), !dbg !3568
  %3 = load %"struct.std::_Vector_base<int *, std::allocator<int *> >::_Vector_impl"*, %"struct.std::_Vector_base<int *, std::allocator<int *> >::_Vector_impl"** %2, align 4
  %4 = bitcast %"struct.std::_Vector_base<int *, std::allocator<int *> >::_Vector_impl"* %3 to %"class.std::allocator.2"*, !dbg !3569
  %5 = call %"class.std::allocator.2"* @_ZNSaIPiED2Ev(%"class.std::allocator.2"* %4) #3, !dbg !3569
  ret %"struct.std::_Vector_base<int *, std::allocator<int *> >::_Vector_impl"* %3, !dbg !3571
}

define linkonce_odr void @_ZNSt16allocator_traitsISaIPiEE10deallocateERS1_PS0_j(%"class.std::allocator.2"* dereferenceable(1), i32**, i32) #0 comdat align 2 !dbg !3572 !xidane.fname !3452 !xidane.function_declaration_type !3453 !xidane.function_declaration_filename !3454 {
  %4 = alloca %"class.std::allocator.2"*, align 4
  %5 = alloca i32**, align 4
  %6 = alloca i32, align 4
  store %"class.std::allocator.2"* %0, %"class.std::allocator.2"** %4, align 4
  call void @llvm.dbg.declare(metadata %"class.std::allocator.2"** %4, metadata !3573, metadata !2236), !dbg !3574
  store i32** %1, i32*** %5, align 4
  call void @llvm.dbg.declare(metadata i32*** %5, metadata !3575, metadata !2236), !dbg !3576
  store i32 %2, i32* %6, align 4
  call void @llvm.dbg.declare(metadata i32* %6, metadata !3577, metadata !2236), !dbg !3578
  %7 = load %"class.std::allocator.2"*, %"class.std::allocator.2"** %4, align 4, !dbg !3579
  %8 = bitcast %"class.std::allocator.2"* %7 to %"class.__gnu_cxx::new_allocator.3"*, !dbg !3579
  %9 = load i32**, i32*** %5, align 4, !dbg !3580
  %10 = load i32, i32* %6, align 4, !dbg !3581
  call void @_ZN9__gnu_cxx13new_allocatorIPiE10deallocateEPS1_j(%"class.__gnu_cxx::new_allocator.3"* %8, i32** %9, i32 %10), !dbg !3582
  ret void, !dbg !3583
}

; Function Attrs: nounwind
define linkonce_odr void @_ZN9__gnu_cxx13new_allocatorIPiE10deallocateEPS1_j(%"class.__gnu_cxx::new_allocator.3"*, i32**, i32) #5 comdat align 2 !dbg !3584 !xidane.fname !3452 !xidane.function_declaration_type !3467 !xidane.function_declaration_filename !3323 {
  %4 = alloca %"class.__gnu_cxx::new_allocator.3"*, align 4
  %5 = alloca i32**, align 4
  %6 = alloca i32, align 4
  store %"class.__gnu_cxx::new_allocator.3"* %0, %"class.__gnu_cxx::new_allocator.3"** %4, align 4
  call void @llvm.dbg.declare(metadata %"class.__gnu_cxx::new_allocator.3"** %4, metadata !3585, metadata !2236), !dbg !3586
  store i32** %1, i32*** %5, align 4
  call void @llvm.dbg.declare(metadata i32*** %5, metadata !3587, metadata !2236), !dbg !3588
  store i32 %2, i32* %6, align 4
  call void @llvm.dbg.declare(metadata i32* %6, metadata !3589, metadata !2236), !dbg !3590
  %7 = load %"class.__gnu_cxx::new_allocator.3"*, %"class.__gnu_cxx::new_allocator.3"** %4, align 4
  %8 = load i32**, i32*** %5, align 4, !dbg !3591
  %9 = bitcast i32** %8 to i8*, !dbg !3591
  call void @_ZdlPv(i8* %9) #3, !dbg !3592
  ret void, !dbg !3593
}

; Function Attrs: nounwind
define linkonce_odr %"class.std::allocator.2"* @_ZNSaIPiED2Ev(%"class.std::allocator.2"* returned) unnamed_addr #5 comdat align 2 !dbg !3594 !xidane.fname !3479 !xidane.function_declaration_type !1763 !xidane.function_declaration_filename !3314 {
  %2 = alloca %"class.std::allocator.2"*, align 4
  store %"class.std::allocator.2"* %0, %"class.std::allocator.2"** %2, align 4
  call void @llvm.dbg.declare(metadata %"class.std::allocator.2"** %2, metadata !3595, metadata !2236), !dbg !3596
  %3 = load %"class.std::allocator.2"*, %"class.std::allocator.2"** %2, align 4
  %4 = bitcast %"class.std::allocator.2"* %3 to %"class.__gnu_cxx::new_allocator.3"*, !dbg !3597
  %5 = call %"class.__gnu_cxx::new_allocator.3"* @_ZN9__gnu_cxx13new_allocatorIPiED2Ev(%"class.__gnu_cxx::new_allocator.3"* %4) #3, !dbg !3597
  ret %"class.std::allocator.2"* %3, !dbg !3599
}

; Function Attrs: nounwind
define linkonce_odr %"class.__gnu_cxx::new_allocator.3"* @_ZN9__gnu_cxx13new_allocatorIPiED2Ev(%"class.__gnu_cxx::new_allocator.3"* returned) unnamed_addr #5 comdat align 2 !dbg !3600 !xidane.fname !3486 !xidane.function_declaration_type !1763 !xidane.function_declaration_filename !3323 {
  %2 = alloca %"class.__gnu_cxx::new_allocator.3"*, align 4
  store %"class.__gnu_cxx::new_allocator.3"* %0, %"class.__gnu_cxx::new_allocator.3"** %2, align 4
  call void @llvm.dbg.declare(metadata %"class.__gnu_cxx::new_allocator.3"** %2, metadata !3601, metadata !2236), !dbg !3602
  %3 = load %"class.__gnu_cxx::new_allocator.3"*, %"class.__gnu_cxx::new_allocator.3"** %2, align 4
  ret %"class.__gnu_cxx::new_allocator.3"* %3, !dbg !3603
}

; Function Attrs: nounwind
define linkonce_odr i32 @_ZNKSt6vectorIPfSaIS0_EE4sizeEv(%"class.std::vector"*) #5 comdat align 2 !dbg !3604 !xidane.fname !3605 !xidane.function_declaration_type !3606 !xidane.function_declaration_filename !2322 {
  %2 = alloca %"class.std::vector"*, align 4
  store %"class.std::vector"* %0, %"class.std::vector"** %2, align 4
  call void @llvm.dbg.declare(metadata %"class.std::vector"** %2, metadata !3607, metadata !2236), !dbg !3609
  %3 = load %"class.std::vector"*, %"class.std::vector"** %2, align 4
  %4 = bitcast %"class.std::vector"* %3 to %"struct.std::_Vector_base"*, !dbg !3610
  %5 = getelementptr inbounds %"struct.std::_Vector_base", %"struct.std::_Vector_base"* %4, i32 0, i32 0, !dbg !3610
  %6 = getelementptr inbounds %"struct.std::_Vector_base<float *, std::allocator<float *> >::_Vector_impl", %"struct.std::_Vector_base<float *, std::allocator<float *> >::_Vector_impl"* %5, i32 0, i32 1, !dbg !3611
  %7 = load float**, float*** %6, align 4, !dbg !3611
  %8 = bitcast %"class.std::vector"* %3 to %"struct.std::_Vector_base"*, !dbg !3612
  %9 = getelementptr inbounds %"struct.std::_Vector_base", %"struct.std::_Vector_base"* %8, i32 0, i32 0, !dbg !3612
  %10 = getelementptr inbounds %"struct.std::_Vector_base<float *, std::allocator<float *> >::_Vector_impl", %"struct.std::_Vector_base<float *, std::allocator<float *> >::_Vector_impl"* %9, i32 0, i32 0, !dbg !3613
  %11 = load float**, float*** %10, align 4, !dbg !3613
  %12 = ptrtoint float** %7 to i32, !dbg !3614
  %13 = ptrtoint float** %11 to i32, !dbg !3614
  %14 = sub i32 %12, %13, !dbg !3614
  %15 = sdiv exact i32 %14, 4, !dbg !3614
  ret i32 %15, !dbg !3615
}

define linkonce_odr void @_ZNSt6vectorIPfSaIS0_EE17_M_default_appendEj(%"class.std::vector"*, i32) #0 comdat align 2 personality i8* bitcast (i32 (...)* @__gxx_personality_v0 to i8*) !dbg !3616 !xidane.fname !3618 !xidane.function_declaration_type !2344 !xidane.function_declaration_filename !2322 {
  %3 = alloca %"class.std::vector"*, align 4
  %4 = alloca i32, align 4
  %5 = alloca i32, align 4
  %6 = alloca i32, align 4
  %7 = alloca float**, align 4
  %8 = alloca float**, align 4
  %9 = alloca i8*
  %10 = alloca i32
  store %"class.std::vector"* %0, %"class.std::vector"** %3, align 4
  call void @llvm.dbg.declare(metadata %"class.std::vector"** %3, metadata !3619, metadata !2236), !dbg !3620
  store i32 %1, i32* %4, align 4
  call void @llvm.dbg.declare(metadata i32* %4, metadata !3621, metadata !2236), !dbg !3622
  %11 = load %"class.std::vector"*, %"class.std::vector"** %3, align 4
  %12 = load i32, i32* %4, align 4, !dbg !3623
  %13 = icmp ne i32 %12, 0, !dbg !3625
  br i1 %13, label %14, label %132, !dbg !3626

; <label>:14:                                     ; preds = %2
  %15 = bitcast %"class.std::vector"* %11 to %"struct.std::_Vector_base"*, !dbg !3627
  %16 = getelementptr inbounds %"struct.std::_Vector_base", %"struct.std::_Vector_base"* %15, i32 0, i32 0, !dbg !3627
  %17 = getelementptr inbounds %"struct.std::_Vector_base<float *, std::allocator<float *> >::_Vector_impl", %"struct.std::_Vector_base<float *, std::allocator<float *> >::_Vector_impl"* %16, i32 0, i32 2, !dbg !3630
  %18 = load float**, float*** %17, align 4, !dbg !3630
  %19 = bitcast %"class.std::vector"* %11 to %"struct.std::_Vector_base"*, !dbg !3631
  %20 = getelementptr inbounds %"struct.std::_Vector_base", %"struct.std::_Vector_base"* %19, i32 0, i32 0, !dbg !3631
  %21 = getelementptr inbounds %"struct.std::_Vector_base<float *, std::allocator<float *> >::_Vector_impl", %"struct.std::_Vector_base<float *, std::allocator<float *> >::_Vector_impl"* %20, i32 0, i32 1, !dbg !3632
  %22 = load float**, float*** %21, align 4, !dbg !3632
  %23 = ptrtoint float** %18 to i32, !dbg !3633
  %24 = ptrtoint float** %22 to i32, !dbg !3633
  %25 = sub i32 %23, %24, !dbg !3633
  %26 = sdiv exact i32 %25, 4, !dbg !3633
  %27 = load i32, i32* %4, align 4, !dbg !3634
  %28 = icmp uge i32 %26, %27, !dbg !3635
  br i1 %28, label %29, label %41, !dbg !3636

; <label>:29:                                     ; preds = %14
  %30 = bitcast %"class.std::vector"* %11 to %"struct.std::_Vector_base"*, !dbg !3637
  %31 = getelementptr inbounds %"struct.std::_Vector_base", %"struct.std::_Vector_base"* %30, i32 0, i32 0, !dbg !3637
  %32 = getelementptr inbounds %"struct.std::_Vector_base<float *, std::allocator<float *> >::_Vector_impl", %"struct.std::_Vector_base<float *, std::allocator<float *> >::_Vector_impl"* %31, i32 0, i32 1, !dbg !3639
  %33 = load float**, float*** %32, align 4, !dbg !3639
  %34 = load i32, i32* %4, align 4, !dbg !3640
  %35 = bitcast %"class.std::vector"* %11 to %"struct.std::_Vector_base"*, !dbg !3641
  %36 = call dereferenceable(1) %"class.std::allocator"* @_ZNSt12_Vector_baseIPfSaIS0_EE19_M_get_Tp_allocatorEv(%"struct.std::_Vector_base"* %35) #3, !dbg !3641
  %37 = call float** @_ZSt27__uninitialized_default_n_aIPPfjS0_ET_S2_T0_RSaIT1_E(float** %33, i32 %34, %"class.std::allocator"* dereferenceable(1) %36), !dbg !3642
  %38 = bitcast %"class.std::vector"* %11 to %"struct.std::_Vector_base"*, !dbg !3643
  %39 = getelementptr inbounds %"struct.std::_Vector_base", %"struct.std::_Vector_base"* %38, i32 0, i32 0, !dbg !3643
  %40 = getelementptr inbounds %"struct.std::_Vector_base<float *, std::allocator<float *> >::_Vector_impl", %"struct.std::_Vector_base<float *, std::allocator<float *> >::_Vector_impl"* %39, i32 0, i32 1, !dbg !3644
  store float** %37, float*** %40, align 4, !dbg !3645
  br label %131, !dbg !3646

; <label>:41:                                     ; preds = %14
  call void @llvm.dbg.declare(metadata i32* %5, metadata !3647, metadata !2236), !dbg !3650
  %42 = load i32, i32* %4, align 4, !dbg !3651
  %43 = call i32 @_ZNKSt6vectorIPfSaIS0_EE12_M_check_lenEjPKc(%"class.std::vector"* %11, i32 %42, i8* getelementptr inbounds ([26 x i8], [26 x i8]* @.str, i32 0, i32 0)), !dbg !3652
  store i32 %43, i32* %5, align 4, !dbg !3650
  call void @llvm.dbg.declare(metadata i32* %6, metadata !3653, metadata !2236), !dbg !3654
  %44 = call i32 @_ZNKSt6vectorIPfSaIS0_EE4sizeEv(%"class.std::vector"* %11) #3, !dbg !3655
  store i32 %44, i32* %6, align 4, !dbg !3654
  call void @llvm.dbg.declare(metadata float*** %7, metadata !3656, metadata !2236), !dbg !3657
  %45 = bitcast %"class.std::vector"* %11 to %"struct.std::_Vector_base"*, !dbg !3658
  %46 = load i32, i32* %5, align 4, !dbg !3659
  %47 = call float** @_ZNSt12_Vector_baseIPfSaIS0_EE11_M_allocateEj(%"struct.std::_Vector_base"* %45, i32 %46), !dbg !3658
  store float** %47, float*** %7, align 4, !dbg !3657
  call void @llvm.dbg.declare(metadata float*** %8, metadata !3660, metadata !2236), !dbg !3661
  %48 = load float**, float*** %7, align 4, !dbg !3662
  store float** %48, float*** %8, align 4, !dbg !3661
  %49 = bitcast %"class.std::vector"* %11 to %"struct.std::_Vector_base"*, !dbg !3663
  %50 = getelementptr inbounds %"struct.std::_Vector_base", %"struct.std::_Vector_base"* %49, i32 0, i32 0, !dbg !3663
  %51 = getelementptr inbounds %"struct.std::_Vector_base<float *, std::allocator<float *> >::_Vector_impl", %"struct.std::_Vector_base<float *, std::allocator<float *> >::_Vector_impl"* %50, i32 0, i32 0, !dbg !3665
  %52 = load float**, float*** %51, align 4, !dbg !3665
  %53 = bitcast %"class.std::vector"* %11 to %"struct.std::_Vector_base"*, !dbg !3666
  %54 = getelementptr inbounds %"struct.std::_Vector_base", %"struct.std::_Vector_base"* %53, i32 0, i32 0, !dbg !3666
  %55 = getelementptr inbounds %"struct.std::_Vector_base<float *, std::allocator<float *> >::_Vector_impl", %"struct.std::_Vector_base<float *, std::allocator<float *> >::_Vector_impl"* %54, i32 0, i32 1, !dbg !3667
  %56 = load float**, float*** %55, align 4, !dbg !3667
  %57 = load float**, float*** %7, align 4, !dbg !3668
  %58 = bitcast %"class.std::vector"* %11 to %"struct.std::_Vector_base"*, !dbg !3669
  %59 = call dereferenceable(1) %"class.std::allocator"* @_ZNSt12_Vector_baseIPfSaIS0_EE19_M_get_Tp_allocatorEv(%"struct.std::_Vector_base"* %58) #3, !dbg !3669
  %60 = invoke float** @_ZSt34__uninitialized_move_if_noexcept_aIPPfS1_SaIS0_EET0_T_S4_S3_RT1_(float** %52, float** %56, float** %57, %"class.std::allocator"* dereferenceable(1) %59)
          to label %61 unwind label %68, !dbg !3670

; <label>:61:                                     ; preds = %41
  store float** %60, float*** %8, align 4, !dbg !3671
  %62 = load float**, float*** %8, align 4, !dbg !3673
  %63 = load i32, i32* %4, align 4, !dbg !3674
  %64 = bitcast %"class.std::vector"* %11 to %"struct.std::_Vector_base"*, !dbg !3675
  %65 = call dereferenceable(1) %"class.std::allocator"* @_ZNSt12_Vector_baseIPfSaIS0_EE19_M_get_Tp_allocatorEv(%"struct.std::_Vector_base"* %64) #3, !dbg !3675
  %66 = invoke float** @_ZSt27__uninitialized_default_n_aIPPfjS0_ET_S2_T0_RSaIT1_E(float** %62, i32 %63, %"class.std::allocator"* dereferenceable(1) %65)
          to label %67 unwind label %68, !dbg !3676

; <label>:67:                                     ; preds = %61
  store float** %66, float*** %8, align 4, !dbg !3677
  br label %89, !dbg !3678

; <label>:68:                                     ; preds = %61, %41
  %69 = landingpad { i8*, i32 }
          catch i8* null, !dbg !3679
  %70 = extractvalue { i8*, i32 } %69, 0, !dbg !3679
  store i8* %70, i8** %9, align 4, !dbg !3679
  %71 = extractvalue { i8*, i32 } %69, 1, !dbg !3679
  store i32 %71, i32* %10, align 4, !dbg !3679
  br label %72, !dbg !3679

; <label>:72:                                     ; preds = %68
  %73 = load i8*, i8** %9, align 4, !dbg !3680
  %74 = call i8* @__cxa_begin_catch(i8* %73) #3, !dbg !3680
  %75 = load float**, float*** %7, align 4, !dbg !3681
  %76 = load float**, float*** %8, align 4, !dbg !3683
  %77 = bitcast %"class.std::vector"* %11 to %"struct.std::_Vector_base"*, !dbg !3684
  %78 = call dereferenceable(1) %"class.std::allocator"* @_ZNSt12_Vector_baseIPfSaIS0_EE19_M_get_Tp_allocatorEv(%"struct.std::_Vector_base"* %77) #3, !dbg !3684
  invoke void @_ZSt8_DestroyIPPfS0_EvT_S2_RSaIT0_E(float** %75, float** %76, %"class.std::allocator"* dereferenceable(1) %78)
          to label %79 unwind label %84, !dbg !3685

; <label>:79:                                     ; preds = %72
  %80 = bitcast %"class.std::vector"* %11 to %"struct.std::_Vector_base"*, !dbg !3686
  %81 = load float**, float*** %7, align 4, !dbg !3687
  %82 = load i32, i32* %5, align 4, !dbg !3688
  invoke void @_ZNSt12_Vector_baseIPfSaIS0_EE13_M_deallocateEPS0_j(%"struct.std::_Vector_base"* %80, float** %81, i32 %82)
          to label %83 unwind label %84, !dbg !3686

; <label>:83:                                     ; preds = %79
  invoke void @__cxa_rethrow() #17
          to label %141 unwind label %84, !dbg !3689

; <label>:84:                                     ; preds = %83, %79, %72
  %85 = landingpad { i8*, i32 }
          cleanup, !dbg !3690
  %86 = extractvalue { i8*, i32 } %85, 0, !dbg !3690
  store i8* %86, i8** %9, align 4, !dbg !3690
  %87 = extractvalue { i8*, i32 } %85, 1, !dbg !3690
  store i32 %87, i32* %10, align 4, !dbg !3690
  invoke void @__cxa_end_catch()
          to label %88 unwind label %138, !dbg !3692

; <label>:88:                                     ; preds = %84
  br label %133, !dbg !3693

; <label>:89:                                     ; preds = %67
  %90 = bitcast %"class.std::vector"* %11 to %"struct.std::_Vector_base"*, !dbg !3694
  %91 = getelementptr inbounds %"struct.std::_Vector_base", %"struct.std::_Vector_base"* %90, i32 0, i32 0, !dbg !3694
  %92 = getelementptr inbounds %"struct.std::_Vector_base<float *, std::allocator<float *> >::_Vector_impl", %"struct.std::_Vector_base<float *, std::allocator<float *> >::_Vector_impl"* %91, i32 0, i32 0, !dbg !3695
  %93 = load float**, float*** %92, align 4, !dbg !3695
  %94 = bitcast %"class.std::vector"* %11 to %"struct.std::_Vector_base"*, !dbg !3696
  %95 = getelementptr inbounds %"struct.std::_Vector_base", %"struct.std::_Vector_base"* %94, i32 0, i32 0, !dbg !3696
  %96 = getelementptr inbounds %"struct.std::_Vector_base<float *, std::allocator<float *> >::_Vector_impl", %"struct.std::_Vector_base<float *, std::allocator<float *> >::_Vector_impl"* %95, i32 0, i32 1, !dbg !3697
  %97 = load float**, float*** %96, align 4, !dbg !3697
  %98 = bitcast %"class.std::vector"* %11 to %"struct.std::_Vector_base"*, !dbg !3698
  %99 = call dereferenceable(1) %"class.std::allocator"* @_ZNSt12_Vector_baseIPfSaIS0_EE19_M_get_Tp_allocatorEv(%"struct.std::_Vector_base"* %98) #3, !dbg !3698
  call void @_ZSt8_DestroyIPPfS0_EvT_S2_RSaIT0_E(float** %93, float** %97, %"class.std::allocator"* dereferenceable(1) %99), !dbg !3699
  %100 = bitcast %"class.std::vector"* %11 to %"struct.std::_Vector_base"*, !dbg !3700
  %101 = bitcast %"class.std::vector"* %11 to %"struct.std::_Vector_base"*, !dbg !3701
  %102 = getelementptr inbounds %"struct.std::_Vector_base", %"struct.std::_Vector_base"* %101, i32 0, i32 0, !dbg !3701
  %103 = getelementptr inbounds %"struct.std::_Vector_base<float *, std::allocator<float *> >::_Vector_impl", %"struct.std::_Vector_base<float *, std::allocator<float *> >::_Vector_impl"* %102, i32 0, i32 0, !dbg !3702
  %104 = load float**, float*** %103, align 4, !dbg !3702
  %105 = bitcast %"class.std::vector"* %11 to %"struct.std::_Vector_base"*, !dbg !3703
  %106 = getelementptr inbounds %"struct.std::_Vector_base", %"struct.std::_Vector_base"* %105, i32 0, i32 0, !dbg !3703
  %107 = getelementptr inbounds %"struct.std::_Vector_base<float *, std::allocator<float *> >::_Vector_impl", %"struct.std::_Vector_base<float *, std::allocator<float *> >::_Vector_impl"* %106, i32 0, i32 2, !dbg !3704
  %108 = load float**, float*** %107, align 4, !dbg !3704
  %109 = bitcast %"class.std::vector"* %11 to %"struct.std::_Vector_base"*, !dbg !3705
  %110 = getelementptr inbounds %"struct.std::_Vector_base", %"struct.std::_Vector_base"* %109, i32 0, i32 0, !dbg !3705
  %111 = getelementptr inbounds %"struct.std::_Vector_base<float *, std::allocator<float *> >::_Vector_impl", %"struct.std::_Vector_base<float *, std::allocator<float *> >::_Vector_impl"* %110, i32 0, i32 0, !dbg !3706
  %112 = load float**, float*** %111, align 4, !dbg !3706
  %113 = ptrtoint float** %108 to i32, !dbg !3707
  %114 = ptrtoint float** %112 to i32, !dbg !3707
  %115 = sub i32 %113, %114, !dbg !3707
  %116 = sdiv exact i32 %115, 4, !dbg !3707
  call void @_ZNSt12_Vector_baseIPfSaIS0_EE13_M_deallocateEPS0_j(%"struct.std::_Vector_base"* %100, float** %104, i32 %116), !dbg !3700
  %117 = load float**, float*** %7, align 4, !dbg !3708
  %118 = bitcast %"class.std::vector"* %11 to %"struct.std::_Vector_base"*, !dbg !3709
  %119 = getelementptr inbounds %"struct.std::_Vector_base", %"struct.std::_Vector_base"* %118, i32 0, i32 0, !dbg !3709
  %120 = getelementptr inbounds %"struct.std::_Vector_base<float *, std::allocator<float *> >::_Vector_impl", %"struct.std::_Vector_base<float *, std::allocator<float *> >::_Vector_impl"* %119, i32 0, i32 0, !dbg !3710
  store float** %117, float*** %120, align 4, !dbg !3711
  %121 = load float**, float*** %8, align 4, !dbg !3712
  %122 = bitcast %"class.std::vector"* %11 to %"struct.std::_Vector_base"*, !dbg !3713
  %123 = getelementptr inbounds %"struct.std::_Vector_base", %"struct.std::_Vector_base"* %122, i32 0, i32 0, !dbg !3713
  %124 = getelementptr inbounds %"struct.std::_Vector_base<float *, std::allocator<float *> >::_Vector_impl", %"struct.std::_Vector_base<float *, std::allocator<float *> >::_Vector_impl"* %123, i32 0, i32 1, !dbg !3714
  store float** %121, float*** %124, align 4, !dbg !3715
  %125 = load float**, float*** %7, align 4, !dbg !3716
  %126 = load i32, i32* %5, align 4, !dbg !3717
  %127 = getelementptr inbounds float*, float** %125, i32 %126, !dbg !3718
  %128 = bitcast %"class.std::vector"* %11 to %"struct.std::_Vector_base"*, !dbg !3719
  %129 = getelementptr inbounds %"struct.std::_Vector_base", %"struct.std::_Vector_base"* %128, i32 0, i32 0, !dbg !3719
  %130 = getelementptr inbounds %"struct.std::_Vector_base<float *, std::allocator<float *> >::_Vector_impl", %"struct.std::_Vector_base<float *, std::allocator<float *> >::_Vector_impl"* %129, i32 0, i32 2, !dbg !3720
  store float** %127, float*** %130, align 4, !dbg !3721
  br label %131

; <label>:131:                                    ; preds = %89, %29
  br label %132, !dbg !3722

; <label>:132:                                    ; preds = %131, %2
  ret void, !dbg !3723

; <label>:133:                                    ; preds = %88
  %134 = load i8*, i8** %9, align 4, !dbg !3725
  %135 = load i32, i32* %10, align 4, !dbg !3725
  %136 = insertvalue { i8*, i32 } undef, i8* %134, 0, !dbg !3725
  %137 = insertvalue { i8*, i32 } %136, i32 %135, 1, !dbg !3725
  resume { i8*, i32 } %137, !dbg !3725

; <label>:138:                                    ; preds = %84
  %139 = landingpad { i8*, i32 }
          catch i8* null, !dbg !3727
  %140 = extractvalue { i8*, i32 } %139, 0, !dbg !3727
  call void @__clang_call_terminate(i8* %140) #14, !dbg !3727
  unreachable, !dbg !3727

; <label>:141:                                    ; preds = %83
  unreachable
}

; Function Attrs: nounwind
define linkonce_odr void @_ZNSt6vectorIPfSaIS0_EE15_M_erase_at_endEPS0_(%"class.std::vector"*, float**) #5 comdat align 2 personality i8* bitcast (i32 (...)* @__gxx_personality_v0 to i8*) !dbg !3729 !xidane.fname !3730 !xidane.function_declaration_type !3731 !xidane.function_declaration_filename !2322 {
  %3 = alloca %"class.std::vector"*, align 4
  %4 = alloca float**, align 4
  store %"class.std::vector"* %0, %"class.std::vector"** %3, align 4
  call void @llvm.dbg.declare(metadata %"class.std::vector"** %3, metadata !3732, metadata !2236), !dbg !3733
  store float** %1, float*** %4, align 4
  call void @llvm.dbg.declare(metadata float*** %4, metadata !3734, metadata !2236), !dbg !3735
  %5 = load %"class.std::vector"*, %"class.std::vector"** %3, align 4
  %6 = load float**, float*** %4, align 4, !dbg !3736
  %7 = bitcast %"class.std::vector"* %5 to %"struct.std::_Vector_base"*, !dbg !3737
  %8 = getelementptr inbounds %"struct.std::_Vector_base", %"struct.std::_Vector_base"* %7, i32 0, i32 0, !dbg !3737
  %9 = getelementptr inbounds %"struct.std::_Vector_base<float *, std::allocator<float *> >::_Vector_impl", %"struct.std::_Vector_base<float *, std::allocator<float *> >::_Vector_impl"* %8, i32 0, i32 1, !dbg !3738
  %10 = load float**, float*** %9, align 4, !dbg !3738
  %11 = bitcast %"class.std::vector"* %5 to %"struct.std::_Vector_base"*, !dbg !3739
  %12 = call dereferenceable(1) %"class.std::allocator"* @_ZNSt12_Vector_baseIPfSaIS0_EE19_M_get_Tp_allocatorEv(%"struct.std::_Vector_base"* %11) #3, !dbg !3739
  invoke void @_ZSt8_DestroyIPPfS0_EvT_S2_RSaIT0_E(float** %6, float** %10, %"class.std::allocator"* dereferenceable(1) %12)
          to label %13 unwind label %18, !dbg !3740

; <label>:13:                                     ; preds = %2
  %14 = load float**, float*** %4, align 4, !dbg !3741
  %15 = bitcast %"class.std::vector"* %5 to %"struct.std::_Vector_base"*, !dbg !3742
  %16 = getelementptr inbounds %"struct.std::_Vector_base", %"struct.std::_Vector_base"* %15, i32 0, i32 0, !dbg !3742
  %17 = getelementptr inbounds %"struct.std::_Vector_base<float *, std::allocator<float *> >::_Vector_impl", %"struct.std::_Vector_base<float *, std::allocator<float *> >::_Vector_impl"* %16, i32 0, i32 1, !dbg !3743
  store float** %14, float*** %17, align 4, !dbg !3744
  ret void, !dbg !3745

; <label>:18:                                     ; preds = %2
  %19 = landingpad { i8*, i32 }
          catch i8* null, !dbg !3746
  %20 = extractvalue { i8*, i32 } %19, 0, !dbg !3746
  call void @__clang_call_terminate(i8* %20) #14, !dbg !3746
  unreachable, !dbg !3746
}

; Function Attrs: inlinehint
define linkonce_odr float** @_ZSt27__uninitialized_default_n_aIPPfjS0_ET_S2_T0_RSaIT1_E(float**, i32, %"class.std::allocator"* dereferenceable(1)) #11 comdat !dbg !3748 !xidane.fname !3754 !xidane.function_declaration_type !3755 !xidane.function_declaration_filename !3756 {
  %4 = alloca float**, align 4
  %5 = alloca i32, align 4
  %6 = alloca %"class.std::allocator"*, align 4
  store float** %0, float*** %4, align 4
  call void @llvm.dbg.declare(metadata float*** %4, metadata !3757, metadata !2236), !dbg !3758
  store i32 %1, i32* %5, align 4
  call void @llvm.dbg.declare(metadata i32* %5, metadata !3759, metadata !2236), !dbg !3760
  store %"class.std::allocator"* %2, %"class.std::allocator"** %6, align 4
  call void @llvm.dbg.declare(metadata %"class.std::allocator"** %6, metadata !3761, metadata !2236), !dbg !3762
  %7 = load float**, float*** %4, align 4, !dbg !3763
  %8 = load i32, i32* %5, align 4, !dbg !3764
  %9 = call float** @_ZSt25__uninitialized_default_nIPPfjET_S2_T0_(float** %7, i32 %8), !dbg !3765
  ret float** %9, !dbg !3766
}

define linkonce_odr i32 @_ZNKSt6vectorIPfSaIS0_EE12_M_check_lenEjPKc(%"class.std::vector"*, i32, i8*) #0 comdat align 2 !dbg !3767 !xidane.fname !3768 !xidane.function_declaration_type !3769 !xidane.function_declaration_filename !2322 {
  %4 = alloca %"class.std::vector"*, align 4
  %5 = alloca i32, align 4
  %6 = alloca i8*, align 4
  %7 = alloca i32, align 4
  %8 = alloca i32, align 4
  store %"class.std::vector"* %0, %"class.std::vector"** %4, align 4
  call void @llvm.dbg.declare(metadata %"class.std::vector"** %4, metadata !3770, metadata !2236), !dbg !3771
  store i32 %1, i32* %5, align 4
  call void @llvm.dbg.declare(metadata i32* %5, metadata !3772, metadata !2236), !dbg !3773
  store i8* %2, i8** %6, align 4
  call void @llvm.dbg.declare(metadata i8** %6, metadata !3774, metadata !2236), !dbg !3775
  %9 = load %"class.std::vector"*, %"class.std::vector"** %4, align 4
  %10 = call i32 @_ZNKSt6vectorIPfSaIS0_EE8max_sizeEv(%"class.std::vector"* %9) #3, !dbg !3776
  %11 = call i32 @_ZNKSt6vectorIPfSaIS0_EE4sizeEv(%"class.std::vector"* %9) #3, !dbg !3778
  %12 = sub i32 %10, %11, !dbg !3780
  %13 = load i32, i32* %5, align 4, !dbg !3781
  %14 = icmp ult i32 %12, %13, !dbg !3782
  br i1 %14, label %15, label %17, !dbg !3783

; <label>:15:                                     ; preds = %3
  %16 = load i8*, i8** %6, align 4, !dbg !3784
  call void @_ZSt20__throw_length_errorPKc(i8* %16) #17, !dbg !3785
  unreachable, !dbg !3785

; <label>:17:                                     ; preds = %3
  call void @llvm.dbg.declare(metadata i32* %7, metadata !3786, metadata !2236), !dbg !3787
  %18 = call i32 @_ZNKSt6vectorIPfSaIS0_EE4sizeEv(%"class.std::vector"* %9) #3, !dbg !3788
  %19 = call i32 @_ZNKSt6vectorIPfSaIS0_EE4sizeEv(%"class.std::vector"* %9) #3, !dbg !3789
  store i32 %19, i32* %8, align 4, !dbg !3791
  %20 = call dereferenceable(4) i32* @_ZSt3maxIjERKT_S2_S2_(i32* dereferenceable(4) %8, i32* dereferenceable(4) %5), !dbg !3792
  %21 = load i32, i32* %20, align 4, !dbg !3794
  %22 = add i32 %18, %21, !dbg !3795
  store i32 %22, i32* %7, align 4, !dbg !3787
  %23 = load i32, i32* %7, align 4, !dbg !3796
  %24 = call i32 @_ZNKSt6vectorIPfSaIS0_EE4sizeEv(%"class.std::vector"* %9) #3, !dbg !3797
  %25 = icmp ult i32 %23, %24, !dbg !3798
  br i1 %25, label %30, label %26, !dbg !3799

; <label>:26:                                     ; preds = %17
  %27 = load i32, i32* %7, align 4, !dbg !3800
  %28 = call i32 @_ZNKSt6vectorIPfSaIS0_EE8max_sizeEv(%"class.std::vector"* %9) #3, !dbg !3801
  %29 = icmp ugt i32 %27, %28, !dbg !3802
  br i1 %29, label %30, label %32, !dbg !3803

; <label>:30:                                     ; preds = %26, %17
  %31 = call i32 @_ZNKSt6vectorIPfSaIS0_EE8max_sizeEv(%"class.std::vector"* %9) #3, !dbg !3804
  br label %34, !dbg !3805

; <label>:32:                                     ; preds = %26
  %33 = load i32, i32* %7, align 4, !dbg !3806
  br label %34, !dbg !3808

; <label>:34:                                     ; preds = %32, %30
  %35 = phi i32 [ %31, %30 ], [ %33, %32 ], !dbg !3809
  ret i32 %35, !dbg !3811
}

define linkonce_odr float** @_ZNSt12_Vector_baseIPfSaIS0_EE11_M_allocateEj(%"struct.std::_Vector_base"*, i32) #0 comdat align 2 !dbg !3812 !xidane.fname !3813 !xidane.function_declaration_type !3814 !xidane.function_declaration_filename !2322 {
  %3 = alloca %"struct.std::_Vector_base"*, align 4
  %4 = alloca i32, align 4
  store %"struct.std::_Vector_base"* %0, %"struct.std::_Vector_base"** %3, align 4
  call void @llvm.dbg.declare(metadata %"struct.std::_Vector_base"** %3, metadata !3815, metadata !2236), !dbg !3816
  store i32 %1, i32* %4, align 4
  call void @llvm.dbg.declare(metadata i32* %4, metadata !3817, metadata !2236), !dbg !3818
  %5 = load %"struct.std::_Vector_base"*, %"struct.std::_Vector_base"** %3, align 4
  %6 = load i32, i32* %4, align 4, !dbg !3819
  %7 = icmp ne i32 %6, 0, !dbg !3820
  br i1 %7, label %8, label %13, !dbg !3819

; <label>:8:                                      ; preds = %2
  %9 = getelementptr inbounds %"struct.std::_Vector_base", %"struct.std::_Vector_base"* %5, i32 0, i32 0, !dbg !3821
  %10 = bitcast %"struct.std::_Vector_base<float *, std::allocator<float *> >::_Vector_impl"* %9 to %"class.std::allocator"*, !dbg !3821
  %11 = load i32, i32* %4, align 4, !dbg !3823
  %12 = call float** @_ZNSt16allocator_traitsISaIPfEE8allocateERS1_j(%"class.std::allocator"* dereferenceable(1) %10, i32 %11), !dbg !3824
  br label %14, !dbg !3825

; <label>:13:                                     ; preds = %2
  br label %14, !dbg !3826

; <label>:14:                                     ; preds = %13, %8
  %15 = phi float** [ %12, %8 ], [ null, %13 ], !dbg !3828
  ret float** %15, !dbg !3830
}

; Function Attrs: inlinehint
define linkonce_odr float** @_ZSt34__uninitialized_move_if_noexcept_aIPPfS1_SaIS0_EET0_T_S4_S3_RT1_(float**, float**, float**, %"class.std::allocator"* dereferenceable(1)) #11 comdat !dbg !3831 !xidane.fname !3837 !xidane.function_declaration_type !3838 !xidane.function_declaration_filename !3756 {
  %5 = alloca float**, align 4
  %6 = alloca float**, align 4
  %7 = alloca float**, align 4
  %8 = alloca %"class.std::allocator"*, align 4
  %9 = alloca %"class.std::move_iterator", align 4
  %10 = alloca %"class.std::move_iterator", align 4
  store float** %0, float*** %5, align 4
  call void @llvm.dbg.declare(metadata float*** %5, metadata !3839, metadata !2236), !dbg !3840
  store float** %1, float*** %6, align 4
  call void @llvm.dbg.declare(metadata float*** %6, metadata !3841, metadata !2236), !dbg !3842
  store float** %2, float*** %7, align 4
  call void @llvm.dbg.declare(metadata float*** %7, metadata !3843, metadata !2236), !dbg !3844
  store %"class.std::allocator"* %3, %"class.std::allocator"** %8, align 4
  call void @llvm.dbg.declare(metadata %"class.std::allocator"** %8, metadata !3845, metadata !2236), !dbg !3846
  %11 = load float**, float*** %5, align 4, !dbg !3847
  %12 = call i32 @_ZSt32__make_move_if_noexcept_iteratorIPfSt13move_iteratorIPS0_EET0_PT_(float** %11), !dbg !3847
  %13 = getelementptr inbounds %"class.std::move_iterator", %"class.std::move_iterator"* %9, i32 0, i32 0, !dbg !3847
  %14 = inttoptr i32 %12 to float**, !dbg !3847
  store float** %14, float*** %13, align 4, !dbg !3847
  %15 = load float**, float*** %6, align 4, !dbg !3848
  %16 = call i32 @_ZSt32__make_move_if_noexcept_iteratorIPfSt13move_iteratorIPS0_EET0_PT_(float** %15), !dbg !3848
  %17 = getelementptr inbounds %"class.std::move_iterator", %"class.std::move_iterator"* %10, i32 0, i32 0, !dbg !3848
  %18 = inttoptr i32 %16 to float**, !dbg !3848
  store float** %18, float*** %17, align 4, !dbg !3848
  %19 = load float**, float*** %7, align 4, !dbg !3849
  %20 = load %"class.std::allocator"*, %"class.std::allocator"** %8, align 4, !dbg !3850
  %21 = getelementptr inbounds %"class.std::move_iterator", %"class.std::move_iterator"* %9, i32 0, i32 0, !dbg !3851
  %22 = bitcast float*** %21 to [1 x i32]*, !dbg !3851
  %23 = load [1 x i32], [1 x i32]* %22, align 4, !dbg !3851
  %24 = getelementptr inbounds %"class.std::move_iterator", %"class.std::move_iterator"* %10, i32 0, i32 0, !dbg !3851
  %25 = bitcast float*** %24 to [1 x i32]*, !dbg !3851
  %26 = load [1 x i32], [1 x i32]* %25, align 4, !dbg !3851
  %27 = call float** @_ZSt22__uninitialized_copy_aISt13move_iteratorIPPfES2_S1_ET0_T_S5_S4_RSaIT1_E([1 x i32] %23, [1 x i32] %26, float** %19, %"class.std::allocator"* dereferenceable(1) %20), !dbg !3851
  ret float** %27, !dbg !3852
}

declare void @__cxa_rethrow()

declare void @__cxa_end_catch()

; Function Attrs: inlinehint
define linkonce_odr float** @_ZSt25__uninitialized_default_nIPPfjET_S2_T0_(float**, i32) #11 comdat !dbg !3853 !xidane.fname !3857 !xidane.function_declaration_type !3858 !xidane.function_declaration_filename !3756 {
  %3 = alloca float**, align 4
  %4 = alloca i32, align 4
  %5 = alloca i8, align 1
  store float** %0, float*** %3, align 4
  call void @llvm.dbg.declare(metadata float*** %3, metadata !3859, metadata !2236), !dbg !3860
  store i32 %1, i32* %4, align 4
  call void @llvm.dbg.declare(metadata i32* %4, metadata !3861, metadata !2236), !dbg !3862
  call void @llvm.dbg.declare(metadata i8* %5, metadata !3863, metadata !2236), !dbg !3864
  store i8 1, i8* %5, align 1, !dbg !3864
  %6 = load float**, float*** %3, align 4, !dbg !3865
  %7 = load i32, i32* %4, align 4, !dbg !3866
  %8 = call float** @_ZNSt27__uninitialized_default_n_1ILb1EE18__uninit_default_nIPPfjEET_S4_T0_(float** %6, i32 %7), !dbg !3867
  ret float** %8, !dbg !3868
}

define linkonce_odr float** @_ZNSt27__uninitialized_default_n_1ILb1EE18__uninit_default_nIPPfjEET_S4_T0_(float**, i32) #0 comdat align 2 !dbg !3869 !xidane.fname !3874 !xidane.function_declaration_type !3858 !xidane.function_declaration_filename !3756 {
  %3 = alloca float**, align 4
  %4 = alloca i32, align 4
  %5 = alloca float*, align 4
  store float** %0, float*** %3, align 4
  call void @llvm.dbg.declare(metadata float*** %3, metadata !3875, metadata !2236), !dbg !3876
  store i32 %1, i32* %4, align 4
  call void @llvm.dbg.declare(metadata i32* %4, metadata !3877, metadata !2236), !dbg !3878
  %6 = load float**, float*** %3, align 4, !dbg !3879
  %7 = load i32, i32* %4, align 4, !dbg !3880
  store float* null, float** %5, align 4, !dbg !3881
  %8 = call float** @_ZSt6fill_nIPPfjS0_ET_S2_T0_RKT1_(float** %6, i32 %7, float** dereferenceable(4) %5), !dbg !3882
  ret float** %8, !dbg !3883
}

; Function Attrs: inlinehint
define linkonce_odr float** @_ZSt6fill_nIPPfjS0_ET_S2_T0_RKT1_(float**, i32, float** dereferenceable(4)) #11 comdat !dbg !3884 !xidane.fname !3890 !xidane.function_declaration_type !3891 !xidane.function_declaration_filename !3892 {
  %4 = alloca float**, align 4
  %5 = alloca i32, align 4
  %6 = alloca float**, align 4
  store float** %0, float*** %4, align 4
  call void @llvm.dbg.declare(metadata float*** %4, metadata !3893, metadata !2236), !dbg !3894
  store i32 %1, i32* %5, align 4
  call void @llvm.dbg.declare(metadata i32* %5, metadata !3895, metadata !2236), !dbg !3896
  store float** %2, float*** %6, align 4
  call void @llvm.dbg.declare(metadata float*** %6, metadata !3897, metadata !2236), !dbg !3898
  %7 = load float**, float*** %4, align 4, !dbg !3899
  %8 = call float** @_ZSt12__niter_baseIPPfET_S2_(float** %7), !dbg !3900
  %9 = load i32, i32* %5, align 4, !dbg !3901
  %10 = load float**, float*** %6, align 4, !dbg !3902
  %11 = call float** @_ZSt10__fill_n_aIPPfjS0_EN9__gnu_cxx11__enable_ifIXsr11__is_scalarIT1_EE7__valueET_E6__typeES5_T0_RKS4_(float** %8, i32 %9, float** dereferenceable(4) %10), !dbg !3903
  ret float** %11, !dbg !3905
}

; Function Attrs: inlinehint nounwind
define linkonce_odr float** @_ZSt10__fill_n_aIPPfjS0_EN9__gnu_cxx11__enable_ifIXsr11__is_scalarIT1_EE7__valueET_E6__typeES5_T0_RKS4_(float**, i32, float** dereferenceable(4)) #6 comdat !dbg !3906 !xidane.fname !3915 !xidane.function_declaration_type !3916 !xidane.function_declaration_filename !3892 {
  %4 = alloca float**, align 4
  %5 = alloca i32, align 4
  %6 = alloca float**, align 4
  %7 = alloca float*, align 4
  %8 = alloca i32, align 4
  store float** %0, float*** %4, align 4
  call void @llvm.dbg.declare(metadata float*** %4, metadata !3917, metadata !2236), !dbg !3918
  store i32 %1, i32* %5, align 4
  call void @llvm.dbg.declare(metadata i32* %5, metadata !3919, metadata !2236), !dbg !3920
  store float** %2, float*** %6, align 4
  call void @llvm.dbg.declare(metadata float*** %6, metadata !3921, metadata !2236), !dbg !3922
  call void @llvm.dbg.declare(metadata float** %7, metadata !3923, metadata !2236), !dbg !3924
  %9 = load float**, float*** %6, align 4, !dbg !3925
  %10 = load float*, float** %9, align 4, !dbg !3925
  store float* %10, float** %7, align 4, !dbg !3924
  call void @llvm.dbg.declare(metadata i32* %8, metadata !3926, metadata !2236), !dbg !3928
  %11 = load i32, i32* %5, align 4, !dbg !3929
  store i32 %11, i32* %8, align 4, !dbg !3928
  br label %12, !dbg !3930

; <label>:12:                                     ; preds = %18, %3
  %13 = load i32, i32* %8, align 4, !dbg !3931
  %14 = icmp ugt i32 %13, 0, !dbg !3933
  br i1 %14, label %15, label %23, !dbg !3934

; <label>:15:                                     ; preds = %12
  %16 = load float*, float** %7, align 4, !dbg !3936
  %17 = load float**, float*** %4, align 4, !dbg !3937
  store float* %16, float** %17, align 4, !dbg !3938
  br label %18, !dbg !3939

; <label>:18:                                     ; preds = %15
  %19 = load i32, i32* %8, align 4, !dbg !3940
  %20 = add i32 %19, -1, !dbg !3940
  store i32 %20, i32* %8, align 4, !dbg !3940
  %21 = load float**, float*** %4, align 4, !dbg !3942
  %22 = getelementptr inbounds float*, float** %21, i32 1, !dbg !3942
  store float** %22, float*** %4, align 4, !dbg !3942
  br label %12, !dbg !3943, !llvm.loop !3945

; <label>:23:                                     ; preds = %12
  %24 = load float**, float*** %4, align 4, !dbg !3947
  ret float** %24, !dbg !3948
}

; Function Attrs: inlinehint nounwind
define linkonce_odr float** @_ZSt12__niter_baseIPPfET_S2_(float**) #6 comdat !dbg !3949 !xidane.fname !3952 !xidane.function_declaration_type !3953 !xidane.function_declaration_filename !3892 {
  %2 = alloca float**, align 4
  store float** %0, float*** %2, align 4
  call void @llvm.dbg.declare(metadata float*** %2, metadata !3954, metadata !2236), !dbg !3955
  %3 = load float**, float*** %2, align 4, !dbg !3956
  ret float** %3, !dbg !3957
}

; Function Attrs: nounwind
define linkonce_odr i32 @_ZNKSt6vectorIPfSaIS0_EE8max_sizeEv(%"class.std::vector"*) #5 comdat align 2 !dbg !3958 !xidane.fname !3959 !xidane.function_declaration_type !3606 !xidane.function_declaration_filename !2322 {
  %2 = alloca %"class.std::vector"*, align 4
  store %"class.std::vector"* %0, %"class.std::vector"** %2, align 4
  call void @llvm.dbg.declare(metadata %"class.std::vector"** %2, metadata !3960, metadata !2236), !dbg !3961
  %3 = load %"class.std::vector"*, %"class.std::vector"** %2, align 4
  %4 = bitcast %"class.std::vector"* %3 to %"struct.std::_Vector_base"*, !dbg !3962
  %5 = call dereferenceable(1) %"class.std::allocator"* @_ZNKSt12_Vector_baseIPfSaIS0_EE19_M_get_Tp_allocatorEv(%"struct.std::_Vector_base"* %4) #3, !dbg !3962
  %6 = call i32 @_ZNSt16allocator_traitsISaIPfEE8max_sizeERKS1_(%"class.std::allocator"* dereferenceable(1) %5) #3, !dbg !3963
  ret i32 %6, !dbg !3965
}

; Function Attrs: noreturn
declare !xidane.fname !3966 !xidane.function_declaration_type !3967 !xidane.function_declaration_filename !3968 void @_ZSt20__throw_length_errorPKc(i8*) #12

; Function Attrs: inlinehint nounwind
define linkonce_odr dereferenceable(4) i32* @_ZSt3maxIjERKT_S2_S2_(i32* dereferenceable(4), i32* dereferenceable(4)) #6 comdat !dbg !3969 !xidane.fname !3976 !xidane.function_declaration_type !3977 !xidane.function_declaration_filename !3892 {
  %3 = alloca i32*, align 4
  %4 = alloca i32*, align 4
  %5 = alloca i32*, align 4
  store i32* %0, i32** %4, align 4
  call void @llvm.dbg.declare(metadata i32** %4, metadata !3978, metadata !2236), !dbg !3979
  store i32* %1, i32** %5, align 4
  call void @llvm.dbg.declare(metadata i32** %5, metadata !3980, metadata !2236), !dbg !3981
  %6 = load i32*, i32** %4, align 4, !dbg !3982
  %7 = load i32, i32* %6, align 4, !dbg !3982
  %8 = load i32*, i32** %5, align 4, !dbg !3984
  %9 = load i32, i32* %8, align 4, !dbg !3984
  %10 = icmp ult i32 %7, %9, !dbg !3985
  br i1 %10, label %11, label %13, !dbg !3986

; <label>:11:                                     ; preds = %2
  %12 = load i32*, i32** %5, align 4, !dbg !3987
  store i32* %12, i32** %3, align 4, !dbg !3988
  br label %15, !dbg !3988

; <label>:13:                                     ; preds = %2
  %14 = load i32*, i32** %4, align 4, !dbg !3989
  store i32* %14, i32** %3, align 4, !dbg !3990
  br label %15, !dbg !3990

; <label>:15:                                     ; preds = %13, %11
  %16 = load i32*, i32** %3, align 4, !dbg !3991
  ret i32* %16, !dbg !3991
}

; Function Attrs: nounwind
define linkonce_odr i32 @_ZNSt16allocator_traitsISaIPfEE8max_sizeERKS1_(%"class.std::allocator"* dereferenceable(1)) #5 comdat align 2 !dbg !3992 !xidane.fname !3959 !xidane.function_declaration_type !3993 !xidane.function_declaration_filename !3454 {
  %2 = alloca %"class.std::allocator"*, align 4
  store %"class.std::allocator"* %0, %"class.std::allocator"** %2, align 4
  call void @llvm.dbg.declare(metadata %"class.std::allocator"** %2, metadata !3994, metadata !2236), !dbg !3995
  %3 = load %"class.std::allocator"*, %"class.std::allocator"** %2, align 4, !dbg !3996
  %4 = bitcast %"class.std::allocator"* %3 to %"class.__gnu_cxx::new_allocator"*, !dbg !3996
  %5 = call i32 @_ZNK9__gnu_cxx13new_allocatorIPfE8max_sizeEv(%"class.__gnu_cxx::new_allocator"* %4) #3, !dbg !3997
  ret i32 %5, !dbg !3998
}

; Function Attrs: nounwind
define linkonce_odr dereferenceable(1) %"class.std::allocator"* @_ZNKSt12_Vector_baseIPfSaIS0_EE19_M_get_Tp_allocatorEv(%"struct.std::_Vector_base"*) #5 comdat align 2 !dbg !3999 !xidane.fname !3376 !xidane.function_declaration_type !4000 !xidane.function_declaration_filename !2322 {
  %2 = alloca %"struct.std::_Vector_base"*, align 4
  store %"struct.std::_Vector_base"* %0, %"struct.std::_Vector_base"** %2, align 4
  call void @llvm.dbg.declare(metadata %"struct.std::_Vector_base"** %2, metadata !4001, metadata !2236), !dbg !4003
  %3 = load %"struct.std::_Vector_base"*, %"struct.std::_Vector_base"** %2, align 4
  %4 = getelementptr inbounds %"struct.std::_Vector_base", %"struct.std::_Vector_base"* %3, i32 0, i32 0, !dbg !4004
  %5 = bitcast %"struct.std::_Vector_base<float *, std::allocator<float *> >::_Vector_impl"* %4 to %"class.std::allocator"*, !dbg !4005
  ret %"class.std::allocator"* %5, !dbg !4006
}

; Function Attrs: nounwind
define linkonce_odr i32 @_ZNK9__gnu_cxx13new_allocatorIPfE8max_sizeEv(%"class.__gnu_cxx::new_allocator"*) #5 comdat align 2 !dbg !4007 !xidane.fname !3959 !xidane.function_declaration_type !3606 !xidane.function_declaration_filename !3323 {
  %2 = alloca %"class.__gnu_cxx::new_allocator"*, align 4
  store %"class.__gnu_cxx::new_allocator"* %0, %"class.__gnu_cxx::new_allocator"** %2, align 4
  call void @llvm.dbg.declare(metadata %"class.__gnu_cxx::new_allocator"** %2, metadata !4008, metadata !2236), !dbg !4010
  %3 = load %"class.__gnu_cxx::new_allocator"*, %"class.__gnu_cxx::new_allocator"** %2, align 4
  ret i32 1073741823, !dbg !4011
}

define linkonce_odr float** @_ZNSt16allocator_traitsISaIPfEE8allocateERS1_j(%"class.std::allocator"* dereferenceable(1), i32) #0 comdat align 2 !dbg !4012 !xidane.fname !4013 !xidane.function_declaration_type !4014 !xidane.function_declaration_filename !3454 {
  %3 = alloca %"class.std::allocator"*, align 4
  %4 = alloca i32, align 4
  store %"class.std::allocator"* %0, %"class.std::allocator"** %3, align 4
  call void @llvm.dbg.declare(metadata %"class.std::allocator"** %3, metadata !4015, metadata !2236), !dbg !4016
  store i32 %1, i32* %4, align 4
  call void @llvm.dbg.declare(metadata i32* %4, metadata !4017, metadata !2236), !dbg !4018
  %5 = load %"class.std::allocator"*, %"class.std::allocator"** %3, align 4, !dbg !4019
  %6 = bitcast %"class.std::allocator"* %5 to %"class.__gnu_cxx::new_allocator"*, !dbg !4019
  %7 = load i32, i32* %4, align 4, !dbg !4020
  %8 = call float** @_ZN9__gnu_cxx13new_allocatorIPfE8allocateEjPKv(%"class.__gnu_cxx::new_allocator"* %6, i32 %7, i8* null), !dbg !4021
  ret float** %8, !dbg !4022
}

define linkonce_odr float** @_ZN9__gnu_cxx13new_allocatorIPfE8allocateEjPKv(%"class.__gnu_cxx::new_allocator"*, i32, i8*) #0 comdat align 2 !dbg !4023 !xidane.fname !4013 !xidane.function_declaration_type !4024 !xidane.function_declaration_filename !3323 {
  %4 = alloca %"class.__gnu_cxx::new_allocator"*, align 4
  %5 = alloca i32, align 4
  %6 = alloca i8*, align 4
  store %"class.__gnu_cxx::new_allocator"* %0, %"class.__gnu_cxx::new_allocator"** %4, align 4
  call void @llvm.dbg.declare(metadata %"class.__gnu_cxx::new_allocator"** %4, metadata !4025, metadata !2236), !dbg !4026
  store i32 %1, i32* %5, align 4
  call void @llvm.dbg.declare(metadata i32* %5, metadata !4027, metadata !2236), !dbg !4028
  store i8* %2, i8** %6, align 4
  call void @llvm.dbg.declare(metadata i8** %6, metadata !4029, metadata !2236), !dbg !4030
  %7 = load %"class.__gnu_cxx::new_allocator"*, %"class.__gnu_cxx::new_allocator"** %4, align 4
  %8 = load i32, i32* %5, align 4, !dbg !4031
  %9 = call i32 @_ZNK9__gnu_cxx13new_allocatorIPfE8max_sizeEv(%"class.__gnu_cxx::new_allocator"* %7) #3, !dbg !4033
  %10 = icmp ugt i32 %8, %9, !dbg !4034
  br i1 %10, label %11, label %12, !dbg !4035

; <label>:11:                                     ; preds = %3
  call void @_ZSt17__throw_bad_allocv() #17, !dbg !4036
  unreachable, !dbg !4036

; <label>:12:                                     ; preds = %3
  %13 = load i32, i32* %5, align 4, !dbg !4037
  %14 = mul i32 %13, 4, !dbg !4038
  %15 = call i8* @_Znwj(i32 %14), !dbg !4039
  %16 = bitcast i8* %15 to float**, !dbg !4040
  ret float** %16, !dbg !4041
}

; Function Attrs: noreturn
declare !xidane.fname !4042 !xidane.function_declaration_type !1763 !xidane.function_declaration_filename !3968 void @_ZSt17__throw_bad_allocv() #12

; Function Attrs: nobuiltin
declare !xidane.fname !4043 !xidane.function_declaration_type !3278 noalias i8* @_Znwj(i32) #8

; Function Attrs: inlinehint
define linkonce_odr float** @_ZSt22__uninitialized_copy_aISt13move_iteratorIPPfES2_S1_ET0_T_S5_S4_RSaIT1_E([1 x i32], [1 x i32], float**, %"class.std::allocator"* dereferenceable(1)) #11 comdat !dbg !4044 !xidane.fname !4049 !xidane.function_declaration_type !4050 !xidane.function_declaration_filename !3756 {
  %5 = alloca %"class.std::move_iterator", align 4
  %6 = alloca %"class.std::move_iterator", align 4
  %7 = alloca float**, align 4
  %8 = alloca %"class.std::allocator"*, align 4
  %9 = alloca %"class.std::move_iterator", align 4
  %10 = alloca %"class.std::move_iterator", align 4
  %11 = getelementptr inbounds %"class.std::move_iterator", %"class.std::move_iterator"* %5, i32 0, i32 0
  %12 = bitcast float*** %11 to [1 x i32]*
  store [1 x i32] %0, [1 x i32]* %12, align 4
  %13 = getelementptr inbounds %"class.std::move_iterator", %"class.std::move_iterator"* %6, i32 0, i32 0
  %14 = bitcast float*** %13 to [1 x i32]*
  store [1 x i32] %1, [1 x i32]* %14, align 4
  call void @llvm.dbg.declare(metadata %"class.std::move_iterator"* %5, metadata !4051, metadata !2236), !dbg !4052
  call void @llvm.dbg.declare(metadata %"class.std::move_iterator"* %6, metadata !4053, metadata !2236), !dbg !4054
  store float** %2, float*** %7, align 4
  call void @llvm.dbg.declare(metadata float*** %7, metadata !4055, metadata !2236), !dbg !4056
  store %"class.std::allocator"* %3, %"class.std::allocator"** %8, align 4
  call void @llvm.dbg.declare(metadata %"class.std::allocator"** %8, metadata !4057, metadata !2236), !dbg !4058
  %15 = bitcast %"class.std::move_iterator"* %9 to i8*, !dbg !4059
  %16 = bitcast %"class.std::move_iterator"* %5 to i8*, !dbg !4059
  call void @llvm.memcpy.p0i8.p0i8.i32(i8* %15, i8* %16, i32 4, i32 4, i1 false), !dbg !4059
  %17 = bitcast %"class.std::move_iterator"* %10 to i8*, !dbg !4060
  %18 = bitcast %"class.std::move_iterator"* %6 to i8*, !dbg !4060
  call void @llvm.memcpy.p0i8.p0i8.i32(i8* %17, i8* %18, i32 4, i32 4, i1 false), !dbg !4061
  %19 = load float**, float*** %7, align 4, !dbg !4063
  %20 = getelementptr inbounds %"class.std::move_iterator", %"class.std::move_iterator"* %9, i32 0, i32 0, !dbg !4064
  %21 = bitcast float*** %20 to [1 x i32]*, !dbg !4064
  %22 = load [1 x i32], [1 x i32]* %21, align 4, !dbg !4064
  %23 = getelementptr inbounds %"class.std::move_iterator", %"class.std::move_iterator"* %10, i32 0, i32 0, !dbg !4064
  %24 = bitcast float*** %23 to [1 x i32]*, !dbg !4064
  %25 = load [1 x i32], [1 x i32]* %24, align 4, !dbg !4064
  %26 = call float** @_ZSt18uninitialized_copyISt13move_iteratorIPPfES2_ET0_T_S5_S4_([1 x i32] %22, [1 x i32] %25, float** %19), !dbg !4065
  ret float** %26, !dbg !4067
}

; Function Attrs: inlinehint
define linkonce_odr i32 @_ZSt32__make_move_if_noexcept_iteratorIPfSt13move_iteratorIPS0_EET0_PT_(float**) #11 comdat !dbg !4068 !xidane.fname !4073 !xidane.function_declaration_type !4074 !xidane.function_declaration_filename !4075 {
  %2 = alloca %"class.std::move_iterator", align 4
  %3 = alloca float**, align 4
  store float** %0, float*** %3, align 4
  call void @llvm.dbg.declare(metadata float*** %3, metadata !4076, metadata !2236), !dbg !4077
  %4 = load float**, float*** %3, align 4, !dbg !4078
  %5 = call %"class.std::move_iterator"* @_ZNSt13move_iteratorIPPfEC2ES1_(%"class.std::move_iterator"* %2, float** %4), !dbg !4079
  %6 = getelementptr inbounds %"class.std::move_iterator", %"class.std::move_iterator"* %2, i32 0, i32 0, !dbg !4080
  %7 = load float**, float*** %6, align 4, !dbg !4080
  %8 = ptrtoint float** %7 to i32, !dbg !4080
  ret i32 %8, !dbg !4080
}

; Function Attrs: inlinehint
define linkonce_odr float** @_ZSt18uninitialized_copyISt13move_iteratorIPPfES2_ET0_T_S5_S4_([1 x i32], [1 x i32], float**) #11 comdat !dbg !4081 !xidane.fname !4085 !xidane.function_declaration_type !4086 !xidane.function_declaration_filename !3756 {
  %4 = alloca %"class.std::move_iterator", align 4
  %5 = alloca %"class.std::move_iterator", align 4
  %6 = alloca float**, align 4
  %7 = alloca i8, align 1
  %8 = alloca %"class.std::move_iterator", align 4
  %9 = alloca %"class.std::move_iterator", align 4
  %10 = getelementptr inbounds %"class.std::move_iterator", %"class.std::move_iterator"* %4, i32 0, i32 0
  %11 = bitcast float*** %10 to [1 x i32]*
  store [1 x i32] %0, [1 x i32]* %11, align 4
  %12 = getelementptr inbounds %"class.std::move_iterator", %"class.std::move_iterator"* %5, i32 0, i32 0
  %13 = bitcast float*** %12 to [1 x i32]*
  store [1 x i32] %1, [1 x i32]* %13, align 4
  call void @llvm.dbg.declare(metadata %"class.std::move_iterator"* %4, metadata !4087, metadata !2236), !dbg !4088
  call void @llvm.dbg.declare(metadata %"class.std::move_iterator"* %5, metadata !4089, metadata !2236), !dbg !4090
  store float** %2, float*** %6, align 4
  call void @llvm.dbg.declare(metadata float*** %6, metadata !4091, metadata !2236), !dbg !4092
  call void @llvm.dbg.declare(metadata i8* %7, metadata !4093, metadata !2236), !dbg !4094
  store i8 1, i8* %7, align 1, !dbg !4094
  %14 = bitcast %"class.std::move_iterator"* %8 to i8*, !dbg !4095
  %15 = bitcast %"class.std::move_iterator"* %4 to i8*, !dbg !4095
  call void @llvm.memcpy.p0i8.p0i8.i32(i8* %14, i8* %15, i32 4, i32 4, i1 false), !dbg !4095
  %16 = bitcast %"class.std::move_iterator"* %9 to i8*, !dbg !4096
  %17 = bitcast %"class.std::move_iterator"* %5 to i8*, !dbg !4096
  call void @llvm.memcpy.p0i8.p0i8.i32(i8* %16, i8* %17, i32 4, i32 4, i1 false), !dbg !4097
  %18 = load float**, float*** %6, align 4, !dbg !4099
  %19 = getelementptr inbounds %"class.std::move_iterator", %"class.std::move_iterator"* %8, i32 0, i32 0, !dbg !4100
  %20 = bitcast float*** %19 to [1 x i32]*, !dbg !4100
  %21 = load [1 x i32], [1 x i32]* %20, align 4, !dbg !4100
  %22 = getelementptr inbounds %"class.std::move_iterator", %"class.std::move_iterator"* %9, i32 0, i32 0, !dbg !4100
  %23 = bitcast float*** %22 to [1 x i32]*, !dbg !4100
  %24 = load [1 x i32], [1 x i32]* %23, align 4, !dbg !4100
  %25 = call float** @_ZNSt20__uninitialized_copyILb1EE13__uninit_copyISt13move_iteratorIPPfES4_EET0_T_S7_S6_([1 x i32] %21, [1 x i32] %24, float** %18), !dbg !4100
  ret float** %25, !dbg !4101
}

; Function Attrs: argmemonly nounwind
declare void @llvm.memcpy.p0i8.p0i8.i32(i8* nocapture writeonly, i8* nocapture readonly, i32, i32, i1) #13

define linkonce_odr float** @_ZNSt20__uninitialized_copyILb1EE13__uninit_copyISt13move_iteratorIPPfES4_EET0_T_S7_S6_([1 x i32], [1 x i32], float**) #0 comdat align 2 !dbg !4102 !xidane.fname !4107 !xidane.function_declaration_type !4086 !xidane.function_declaration_filename !3756 {
  %4 = alloca %"class.std::move_iterator", align 4
  %5 = alloca %"class.std::move_iterator", align 4
  %6 = alloca float**, align 4
  %7 = alloca %"class.std::move_iterator", align 4
  %8 = alloca %"class.std::move_iterator", align 4
  %9 = getelementptr inbounds %"class.std::move_iterator", %"class.std::move_iterator"* %4, i32 0, i32 0
  %10 = bitcast float*** %9 to [1 x i32]*
  store [1 x i32] %0, [1 x i32]* %10, align 4
  %11 = getelementptr inbounds %"class.std::move_iterator", %"class.std::move_iterator"* %5, i32 0, i32 0
  %12 = bitcast float*** %11 to [1 x i32]*
  store [1 x i32] %1, [1 x i32]* %12, align 4
  call void @llvm.dbg.declare(metadata %"class.std::move_iterator"* %4, metadata !4108, metadata !2236), !dbg !4109
  call void @llvm.dbg.declare(metadata %"class.std::move_iterator"* %5, metadata !4110, metadata !2236), !dbg !4111
  store float** %2, float*** %6, align 4
  call void @llvm.dbg.declare(metadata float*** %6, metadata !4112, metadata !2236), !dbg !4113
  %13 = bitcast %"class.std::move_iterator"* %7 to i8*, !dbg !4114
  %14 = bitcast %"class.std::move_iterator"* %4 to i8*, !dbg !4114
  call void @llvm.memcpy.p0i8.p0i8.i32(i8* %13, i8* %14, i32 4, i32 4, i1 false), !dbg !4114
  %15 = bitcast %"class.std::move_iterator"* %8 to i8*, !dbg !4115
  %16 = bitcast %"class.std::move_iterator"* %5 to i8*, !dbg !4115
  call void @llvm.memcpy.p0i8.p0i8.i32(i8* %15, i8* %16, i32 4, i32 4, i1 false), !dbg !4116
  %17 = load float**, float*** %6, align 4, !dbg !4118
  %18 = getelementptr inbounds %"class.std::move_iterator", %"class.std::move_iterator"* %7, i32 0, i32 0, !dbg !4119
  %19 = bitcast float*** %18 to [1 x i32]*, !dbg !4119
  %20 = load [1 x i32], [1 x i32]* %19, align 4, !dbg !4119
  %21 = getelementptr inbounds %"class.std::move_iterator", %"class.std::move_iterator"* %8, i32 0, i32 0, !dbg !4119
  %22 = bitcast float*** %21 to [1 x i32]*, !dbg !4119
  %23 = load [1 x i32], [1 x i32]* %22, align 4, !dbg !4119
  %24 = call float** @_ZSt4copyISt13move_iteratorIPPfES2_ET0_T_S5_S4_([1 x i32] %20, [1 x i32] %23, float** %17), !dbg !4120
  ret float** %24, !dbg !4122
}

; Function Attrs: inlinehint
define linkonce_odr float** @_ZSt4copyISt13move_iteratorIPPfES2_ET0_T_S5_S4_([1 x i32], [1 x i32], float**) #11 comdat !dbg !4123 !xidane.fname !4126 !xidane.function_declaration_type !4086 !xidane.function_declaration_filename !3892 {
  %4 = alloca %"class.std::move_iterator", align 4
  %5 = alloca %"class.std::move_iterator", align 4
  %6 = alloca float**, align 4
  %7 = alloca %"class.std::move_iterator", align 4
  %8 = alloca %"class.std::move_iterator", align 4
  %9 = getelementptr inbounds %"class.std::move_iterator", %"class.std::move_iterator"* %4, i32 0, i32 0
  %10 = bitcast float*** %9 to [1 x i32]*
  store [1 x i32] %0, [1 x i32]* %10, align 4
  %11 = getelementptr inbounds %"class.std::move_iterator", %"class.std::move_iterator"* %5, i32 0, i32 0
  %12 = bitcast float*** %11 to [1 x i32]*
  store [1 x i32] %1, [1 x i32]* %12, align 4
  call void @llvm.dbg.declare(metadata %"class.std::move_iterator"* %4, metadata !4127, metadata !2236), !dbg !4128
  call void @llvm.dbg.declare(metadata %"class.std::move_iterator"* %5, metadata !4129, metadata !2236), !dbg !4130
  store float** %2, float*** %6, align 4
  call void @llvm.dbg.declare(metadata float*** %6, metadata !4131, metadata !2236), !dbg !4132
  %13 = bitcast %"class.std::move_iterator"* %7 to i8*, !dbg !4133
  %14 = bitcast %"class.std::move_iterator"* %4 to i8*, !dbg !4133
  call void @llvm.memcpy.p0i8.p0i8.i32(i8* %13, i8* %14, i32 4, i32 4, i1 false), !dbg !4133
  %15 = getelementptr inbounds %"class.std::move_iterator", %"class.std::move_iterator"* %7, i32 0, i32 0, !dbg !4134
  %16 = bitcast float*** %15 to [1 x i32]*, !dbg !4134
  %17 = load [1 x i32], [1 x i32]* %16, align 4, !dbg !4134
  %18 = call float** @_ZSt12__miter_baseIPPfEDTcl12__miter_basecldtfp_4baseEEESt13move_iteratorIT_E([1 x i32] %17), !dbg !4135
  %19 = bitcast %"class.std::move_iterator"* %8 to i8*, !dbg !4137
  %20 = bitcast %"class.std::move_iterator"* %5 to i8*, !dbg !4137
  call void @llvm.memcpy.p0i8.p0i8.i32(i8* %19, i8* %20, i32 4, i32 4, i1 false), !dbg !4138
  %21 = getelementptr inbounds %"class.std::move_iterator", %"class.std::move_iterator"* %8, i32 0, i32 0, !dbg !4140
  %22 = bitcast float*** %21 to [1 x i32]*, !dbg !4140
  %23 = load [1 x i32], [1 x i32]* %22, align 4, !dbg !4140
  %24 = call float** @_ZSt12__miter_baseIPPfEDTcl12__miter_basecldtfp_4baseEEESt13move_iteratorIT_E([1 x i32] %23), !dbg !4141
  %25 = load float**, float*** %6, align 4, !dbg !4143
  %26 = call float** @_ZSt14__copy_move_a2ILb1EPPfS1_ET1_T0_S3_S2_(float** %18, float** %24, float** %25), !dbg !4144
  ret float** %26, !dbg !4145
}

; Function Attrs: inlinehint
define linkonce_odr float** @_ZSt14__copy_move_a2ILb1EPPfS1_ET1_T0_S3_S2_(float**, float**, float**) #11 comdat !dbg !4146 !xidane.fname !4152 !xidane.function_declaration_type !4153 !xidane.function_declaration_filename !3892 {
  %4 = alloca float**, align 4
  %5 = alloca float**, align 4
  %6 = alloca float**, align 4
  store float** %0, float*** %4, align 4
  call void @llvm.dbg.declare(metadata float*** %4, metadata !4154, metadata !2236), !dbg !4155
  store float** %1, float*** %5, align 4
  call void @llvm.dbg.declare(metadata float*** %5, metadata !4156, metadata !2236), !dbg !4157
  store float** %2, float*** %6, align 4
  call void @llvm.dbg.declare(metadata float*** %6, metadata !4158, metadata !2236), !dbg !4159
  %7 = load float**, float*** %4, align 4, !dbg !4160
  %8 = call float** @_ZSt12__niter_baseIPPfET_S2_(float** %7), !dbg !4161
  %9 = load float**, float*** %5, align 4, !dbg !4162
  %10 = call float** @_ZSt12__niter_baseIPPfET_S2_(float** %9), !dbg !4163
  %11 = load float**, float*** %6, align 4, !dbg !4164
  %12 = call float** @_ZSt12__niter_baseIPPfET_S2_(float** %11), !dbg !4165
  %13 = call float** @_ZSt13__copy_move_aILb1EPPfS1_ET1_T0_S3_S2_(float** %8, float** %10, float** %12), !dbg !4166
  ret float** %13, !dbg !4168
}

define linkonce_odr float** @_ZSt12__miter_baseIPPfEDTcl12__miter_basecldtfp_4baseEEESt13move_iteratorIT_E([1 x i32]) #0 comdat !dbg !4169 !xidane.fname !4172 !xidane.function_declaration_type !4173 !xidane.function_declaration_filename !4075 {
  %2 = alloca %"class.std::move_iterator", align 4
  %3 = getelementptr inbounds %"class.std::move_iterator", %"class.std::move_iterator"* %2, i32 0, i32 0
  %4 = bitcast float*** %3 to [1 x i32]*
  store [1 x i32] %0, [1 x i32]* %4, align 4
  call void @llvm.dbg.declare(metadata %"class.std::move_iterator"* %2, metadata !4174, metadata !2236), !dbg !4175
  %5 = call float** @_ZNKSt13move_iteratorIPPfE4baseEv(%"class.std::move_iterator"* %2), !dbg !4176
  %6 = call float** @_ZSt12__miter_baseIPPfET_S2_(float** %5), !dbg !4177
  ret float** %6, !dbg !4179
}

; Function Attrs: inlinehint
define linkonce_odr float** @_ZSt13__copy_move_aILb1EPPfS1_ET1_T0_S3_S2_(float**, float**, float**) #11 comdat !dbg !4180 !xidane.fname !4181 !xidane.function_declaration_type !4153 !xidane.function_declaration_filename !3892 {
  %4 = alloca float**, align 4
  %5 = alloca float**, align 4
  %6 = alloca float**, align 4
  %7 = alloca i8, align 1
  store float** %0, float*** %4, align 4
  call void @llvm.dbg.declare(metadata float*** %4, metadata !4182, metadata !2236), !dbg !4183
  store float** %1, float*** %5, align 4
  call void @llvm.dbg.declare(metadata float*** %5, metadata !4184, metadata !2236), !dbg !4185
  store float** %2, float*** %6, align 4
  call void @llvm.dbg.declare(metadata float*** %6, metadata !4186, metadata !2236), !dbg !4187
  call void @llvm.dbg.declare(metadata i8* %7, metadata !4188, metadata !2236), !dbg !4189
  store i8 1, i8* %7, align 1, !dbg !4189
  %8 = load float**, float*** %4, align 4, !dbg !4190
  %9 = load float**, float*** %5, align 4, !dbg !4191
  %10 = load float**, float*** %6, align 4, !dbg !4192
  %11 = call float** @_ZNSt11__copy_moveILb1ELb1ESt26random_access_iterator_tagE8__copy_mIPfEEPT_PKS4_S7_S5_(float** %8, float** %9, float** %10), !dbg !4193
  ret float** %11, !dbg !4194
}

; Function Attrs: nounwind
define linkonce_odr float** @_ZNSt11__copy_moveILb1ELb1ESt26random_access_iterator_tagE8__copy_mIPfEEPT_PKS4_S7_S5_(float**, float**, float**) #5 comdat align 2 !dbg !4195 !xidane.fname !4212 !xidane.function_declaration_type !4213 !xidane.function_declaration_filename !3892 {
  %4 = alloca float**, align 4
  %5 = alloca float**, align 4
  %6 = alloca float**, align 4
  %7 = alloca i32, align 4
  store float** %0, float*** %4, align 4
  call void @llvm.dbg.declare(metadata float*** %4, metadata !4214, metadata !2236), !dbg !4215
  store float** %1, float*** %5, align 4
  call void @llvm.dbg.declare(metadata float*** %5, metadata !4216, metadata !2236), !dbg !4217
  store float** %2, float*** %6, align 4
  call void @llvm.dbg.declare(metadata float*** %6, metadata !4218, metadata !2236), !dbg !4219
  call void @llvm.dbg.declare(metadata i32* %7, metadata !4220, metadata !2236), !dbg !4222
  %8 = load float**, float*** %5, align 4, !dbg !4223
  %9 = load float**, float*** %4, align 4, !dbg !4224
  %10 = ptrtoint float** %8 to i32, !dbg !4225
  %11 = ptrtoint float** %9 to i32, !dbg !4225
  %12 = sub i32 %10, %11, !dbg !4225
  %13 = sdiv exact i32 %12, 4, !dbg !4225
  store i32 %13, i32* %7, align 4, !dbg !4222
  %14 = load i32, i32* %7, align 4, !dbg !4226
  %15 = icmp ne i32 %14, 0, !dbg !4226
  br i1 %15, label %16, label %23, !dbg !4228

; <label>:16:                                     ; preds = %3
  %17 = load float**, float*** %6, align 4, !dbg !4229
  %18 = bitcast float** %17 to i8*, !dbg !4230
  %19 = load float**, float*** %4, align 4, !dbg !4231
  %20 = bitcast float** %19 to i8*, !dbg !4230
  %21 = load i32, i32* %7, align 4, !dbg !4232
  %22 = mul i32 4, %21, !dbg !4233
  call void @llvm.memmove.p0i8.p0i8.i32(i8* %18, i8* %20, i32 %22, i32 4, i1 false), !dbg !4230
  br label %23, !dbg !4230

; <label>:23:                                     ; preds = %16, %3
  %24 = load float**, float*** %6, align 4, !dbg !4234
  %25 = load i32, i32* %7, align 4, !dbg !4235
  %26 = getelementptr inbounds float*, float** %24, i32 %25, !dbg !4236
  ret float** %26, !dbg !4237
}

; Function Attrs: argmemonly nounwind
declare void @llvm.memmove.p0i8.p0i8.i32(i8* nocapture, i8* nocapture readonly, i32, i32, i1) #13

; Function Attrs: inlinehint nounwind
define linkonce_odr float** @_ZSt12__miter_baseIPPfET_S2_(float**) #6 comdat !dbg !4238 !xidane.fname !4172 !xidane.function_declaration_type !3953 !xidane.function_declaration_filename !4239 {
  %2 = alloca float**, align 4
  store float** %0, float*** %2, align 4
  call void @llvm.dbg.declare(metadata float*** %2, metadata !4240, metadata !2236), !dbg !4241
  %3 = load float**, float*** %2, align 4, !dbg !4242
  ret float** %3, !dbg !4243
}

; Function Attrs: nounwind
define linkonce_odr float** @_ZNKSt13move_iteratorIPPfE4baseEv(%"class.std::move_iterator"*) #5 comdat align 2 !dbg !4244 !xidane.fname !4245 !xidane.function_declaration_type !4246 !xidane.function_declaration_filename !4075 {
  %2 = alloca %"class.std::move_iterator"*, align 4
  store %"class.std::move_iterator"* %0, %"class.std::move_iterator"** %2, align 4
  call void @llvm.dbg.declare(metadata %"class.std::move_iterator"** %2, metadata !4247, metadata !2236), !dbg !4249
  %3 = load %"class.std::move_iterator"*, %"class.std::move_iterator"** %2, align 4
  %4 = getelementptr inbounds %"class.std::move_iterator", %"class.std::move_iterator"* %3, i32 0, i32 0, !dbg !4250
  %5 = load float**, float*** %4, align 4, !dbg !4250
  ret float** %5, !dbg !4251
}

; Function Attrs: nounwind
define linkonce_odr %"class.std::move_iterator"* @_ZNSt13move_iteratorIPPfEC2ES1_(%"class.std::move_iterator"* returned, float**) unnamed_addr #5 comdat align 2 !dbg !4252 !xidane.fname !4253 !xidane.function_declaration_type !4254 !xidane.function_declaration_filename !4075 {
  %3 = alloca %"class.std::move_iterator"*, align 4
  %4 = alloca float**, align 4
  store %"class.std::move_iterator"* %0, %"class.std::move_iterator"** %3, align 4
  call void @llvm.dbg.declare(metadata %"class.std::move_iterator"** %3, metadata !4255, metadata !2236), !dbg !4257
  store float** %1, float*** %4, align 4
  call void @llvm.dbg.declare(metadata float*** %4, metadata !4258, metadata !2236), !dbg !4259
  %5 = load %"class.std::move_iterator"*, %"class.std::move_iterator"** %3, align 4
  %6 = getelementptr inbounds %"class.std::move_iterator", %"class.std::move_iterator"* %5, i32 0, i32 0, !dbg !4260
  %7 = load float**, float*** %4, align 4, !dbg !4261
  store float** %7, float*** %6, align 4, !dbg !4260
  ret %"class.std::move_iterator"* %5, !dbg !4262
}

; Function Attrs: nounwind
define linkonce_odr i32 @_ZNKSt6vectorIPiSaIS0_EE4sizeEv(%"class.std::vector.0"*) #5 comdat align 2 !dbg !4263 !xidane.fname !3605 !xidane.function_declaration_type !3606 !xidane.function_declaration_filename !2322 {
  %2 = alloca %"class.std::vector.0"*, align 4
  store %"class.std::vector.0"* %0, %"class.std::vector.0"** %2, align 4
  call void @llvm.dbg.declare(metadata %"class.std::vector.0"** %2, metadata !4264, metadata !2236), !dbg !4266
  %3 = load %"class.std::vector.0"*, %"class.std::vector.0"** %2, align 4
  %4 = bitcast %"class.std::vector.0"* %3 to %"struct.std::_Vector_base.1"*, !dbg !4267
  %5 = getelementptr inbounds %"struct.std::_Vector_base.1", %"struct.std::_Vector_base.1"* %4, i32 0, i32 0, !dbg !4267
  %6 = getelementptr inbounds %"struct.std::_Vector_base<int *, std::allocator<int *> >::_Vector_impl", %"struct.std::_Vector_base<int *, std::allocator<int *> >::_Vector_impl"* %5, i32 0, i32 1, !dbg !4268
  %7 = load i32**, i32*** %6, align 4, !dbg !4268
  %8 = bitcast %"class.std::vector.0"* %3 to %"struct.std::_Vector_base.1"*, !dbg !4269
  %9 = getelementptr inbounds %"struct.std::_Vector_base.1", %"struct.std::_Vector_base.1"* %8, i32 0, i32 0, !dbg !4269
  %10 = getelementptr inbounds %"struct.std::_Vector_base<int *, std::allocator<int *> >::_Vector_impl", %"struct.std::_Vector_base<int *, std::allocator<int *> >::_Vector_impl"* %9, i32 0, i32 0, !dbg !4270
  %11 = load i32**, i32*** %10, align 4, !dbg !4270
  %12 = ptrtoint i32** %7 to i32, !dbg !4271
  %13 = ptrtoint i32** %11 to i32, !dbg !4271
  %14 = sub i32 %12, %13, !dbg !4271
  %15 = sdiv exact i32 %14, 4, !dbg !4271
  ret i32 %15, !dbg !4272
}

define linkonce_odr void @_ZNSt6vectorIPiSaIS0_EE17_M_default_appendEj(%"class.std::vector.0"*, i32) #0 comdat align 2 personality i8* bitcast (i32 (...)* @__gxx_personality_v0 to i8*) !dbg !4273 !xidane.fname !3618 !xidane.function_declaration_type !2344 !xidane.function_declaration_filename !2322 {
  %3 = alloca %"class.std::vector.0"*, align 4
  %4 = alloca i32, align 4
  %5 = alloca i32, align 4
  %6 = alloca i32, align 4
  %7 = alloca i32**, align 4
  %8 = alloca i32**, align 4
  %9 = alloca i8*
  %10 = alloca i32
  store %"class.std::vector.0"* %0, %"class.std::vector.0"** %3, align 4
  call void @llvm.dbg.declare(metadata %"class.std::vector.0"** %3, metadata !4274, metadata !2236), !dbg !4275
  store i32 %1, i32* %4, align 4
  call void @llvm.dbg.declare(metadata i32* %4, metadata !4276, metadata !2236), !dbg !4277
  %11 = load %"class.std::vector.0"*, %"class.std::vector.0"** %3, align 4
  %12 = load i32, i32* %4, align 4, !dbg !4278
  %13 = icmp ne i32 %12, 0, !dbg !4280
  br i1 %13, label %14, label %132, !dbg !4281

; <label>:14:                                     ; preds = %2
  %15 = bitcast %"class.std::vector.0"* %11 to %"struct.std::_Vector_base.1"*, !dbg !4282
  %16 = getelementptr inbounds %"struct.std::_Vector_base.1", %"struct.std::_Vector_base.1"* %15, i32 0, i32 0, !dbg !4282
  %17 = getelementptr inbounds %"struct.std::_Vector_base<int *, std::allocator<int *> >::_Vector_impl", %"struct.std::_Vector_base<int *, std::allocator<int *> >::_Vector_impl"* %16, i32 0, i32 2, !dbg !4285
  %18 = load i32**, i32*** %17, align 4, !dbg !4285
  %19 = bitcast %"class.std::vector.0"* %11 to %"struct.std::_Vector_base.1"*, !dbg !4286
  %20 = getelementptr inbounds %"struct.std::_Vector_base.1", %"struct.std::_Vector_base.1"* %19, i32 0, i32 0, !dbg !4286
  %21 = getelementptr inbounds %"struct.std::_Vector_base<int *, std::allocator<int *> >::_Vector_impl", %"struct.std::_Vector_base<int *, std::allocator<int *> >::_Vector_impl"* %20, i32 0, i32 1, !dbg !4287
  %22 = load i32**, i32*** %21, align 4, !dbg !4287
  %23 = ptrtoint i32** %18 to i32, !dbg !4288
  %24 = ptrtoint i32** %22 to i32, !dbg !4288
  %25 = sub i32 %23, %24, !dbg !4288
  %26 = sdiv exact i32 %25, 4, !dbg !4288
  %27 = load i32, i32* %4, align 4, !dbg !4289
  %28 = icmp uge i32 %26, %27, !dbg !4290
  br i1 %28, label %29, label %41, !dbg !4291

; <label>:29:                                     ; preds = %14
  %30 = bitcast %"class.std::vector.0"* %11 to %"struct.std::_Vector_base.1"*, !dbg !4292
  %31 = getelementptr inbounds %"struct.std::_Vector_base.1", %"struct.std::_Vector_base.1"* %30, i32 0, i32 0, !dbg !4292
  %32 = getelementptr inbounds %"struct.std::_Vector_base<int *, std::allocator<int *> >::_Vector_impl", %"struct.std::_Vector_base<int *, std::allocator<int *> >::_Vector_impl"* %31, i32 0, i32 1, !dbg !4294
  %33 = load i32**, i32*** %32, align 4, !dbg !4294
  %34 = load i32, i32* %4, align 4, !dbg !4295
  %35 = bitcast %"class.std::vector.0"* %11 to %"struct.std::_Vector_base.1"*, !dbg !4296
  %36 = call dereferenceable(1) %"class.std::allocator.2"* @_ZNSt12_Vector_baseIPiSaIS0_EE19_M_get_Tp_allocatorEv(%"struct.std::_Vector_base.1"* %35) #3, !dbg !4296
  %37 = call i32** @_ZSt27__uninitialized_default_n_aIPPijS0_ET_S2_T0_RSaIT1_E(i32** %33, i32 %34, %"class.std::allocator.2"* dereferenceable(1) %36), !dbg !4297
  %38 = bitcast %"class.std::vector.0"* %11 to %"struct.std::_Vector_base.1"*, !dbg !4298
  %39 = getelementptr inbounds %"struct.std::_Vector_base.1", %"struct.std::_Vector_base.1"* %38, i32 0, i32 0, !dbg !4298
  %40 = getelementptr inbounds %"struct.std::_Vector_base<int *, std::allocator<int *> >::_Vector_impl", %"struct.std::_Vector_base<int *, std::allocator<int *> >::_Vector_impl"* %39, i32 0, i32 1, !dbg !4299
  store i32** %37, i32*** %40, align 4, !dbg !4300
  br label %131, !dbg !4301

; <label>:41:                                     ; preds = %14
  call void @llvm.dbg.declare(metadata i32* %5, metadata !4302, metadata !2236), !dbg !4304
  %42 = load i32, i32* %4, align 4, !dbg !4305
  %43 = call i32 @_ZNKSt6vectorIPiSaIS0_EE12_M_check_lenEjPKc(%"class.std::vector.0"* %11, i32 %42, i8* getelementptr inbounds ([26 x i8], [26 x i8]* @.str, i32 0, i32 0)), !dbg !4306
  store i32 %43, i32* %5, align 4, !dbg !4304
  call void @llvm.dbg.declare(metadata i32* %6, metadata !4307, metadata !2236), !dbg !4308
  %44 = call i32 @_ZNKSt6vectorIPiSaIS0_EE4sizeEv(%"class.std::vector.0"* %11) #3, !dbg !4309
  store i32 %44, i32* %6, align 4, !dbg !4308
  call void @llvm.dbg.declare(metadata i32*** %7, metadata !4310, metadata !2236), !dbg !4311
  %45 = bitcast %"class.std::vector.0"* %11 to %"struct.std::_Vector_base.1"*, !dbg !4312
  %46 = load i32, i32* %5, align 4, !dbg !4313
  %47 = call i32** @_ZNSt12_Vector_baseIPiSaIS0_EE11_M_allocateEj(%"struct.std::_Vector_base.1"* %45, i32 %46), !dbg !4312
  store i32** %47, i32*** %7, align 4, !dbg !4311
  call void @llvm.dbg.declare(metadata i32*** %8, metadata !4314, metadata !2236), !dbg !4315
  %48 = load i32**, i32*** %7, align 4, !dbg !4316
  store i32** %48, i32*** %8, align 4, !dbg !4315
  %49 = bitcast %"class.std::vector.0"* %11 to %"struct.std::_Vector_base.1"*, !dbg !4317
  %50 = getelementptr inbounds %"struct.std::_Vector_base.1", %"struct.std::_Vector_base.1"* %49, i32 0, i32 0, !dbg !4317
  %51 = getelementptr inbounds %"struct.std::_Vector_base<int *, std::allocator<int *> >::_Vector_impl", %"struct.std::_Vector_base<int *, std::allocator<int *> >::_Vector_impl"* %50, i32 0, i32 0, !dbg !4319
  %52 = load i32**, i32*** %51, align 4, !dbg !4319
  %53 = bitcast %"class.std::vector.0"* %11 to %"struct.std::_Vector_base.1"*, !dbg !4320
  %54 = getelementptr inbounds %"struct.std::_Vector_base.1", %"struct.std::_Vector_base.1"* %53, i32 0, i32 0, !dbg !4320
  %55 = getelementptr inbounds %"struct.std::_Vector_base<int *, std::allocator<int *> >::_Vector_impl", %"struct.std::_Vector_base<int *, std::allocator<int *> >::_Vector_impl"* %54, i32 0, i32 1, !dbg !4321
  %56 = load i32**, i32*** %55, align 4, !dbg !4321
  %57 = load i32**, i32*** %7, align 4, !dbg !4322
  %58 = bitcast %"class.std::vector.0"* %11 to %"struct.std::_Vector_base.1"*, !dbg !4323
  %59 = call dereferenceable(1) %"class.std::allocator.2"* @_ZNSt12_Vector_baseIPiSaIS0_EE19_M_get_Tp_allocatorEv(%"struct.std::_Vector_base.1"* %58) #3, !dbg !4323
  %60 = invoke i32** @_ZSt34__uninitialized_move_if_noexcept_aIPPiS1_SaIS0_EET0_T_S4_S3_RT1_(i32** %52, i32** %56, i32** %57, %"class.std::allocator.2"* dereferenceable(1) %59)
          to label %61 unwind label %68, !dbg !4324

; <label>:61:                                     ; preds = %41
  store i32** %60, i32*** %8, align 4, !dbg !4325
  %62 = load i32**, i32*** %8, align 4, !dbg !4327
  %63 = load i32, i32* %4, align 4, !dbg !4328
  %64 = bitcast %"class.std::vector.0"* %11 to %"struct.std::_Vector_base.1"*, !dbg !4329
  %65 = call dereferenceable(1) %"class.std::allocator.2"* @_ZNSt12_Vector_baseIPiSaIS0_EE19_M_get_Tp_allocatorEv(%"struct.std::_Vector_base.1"* %64) #3, !dbg !4329
  %66 = invoke i32** @_ZSt27__uninitialized_default_n_aIPPijS0_ET_S2_T0_RSaIT1_E(i32** %62, i32 %63, %"class.std::allocator.2"* dereferenceable(1) %65)
          to label %67 unwind label %68, !dbg !4330

; <label>:67:                                     ; preds = %61
  store i32** %66, i32*** %8, align 4, !dbg !4331
  br label %89, !dbg !4332

; <label>:68:                                     ; preds = %61, %41
  %69 = landingpad { i8*, i32 }
          catch i8* null, !dbg !4333
  %70 = extractvalue { i8*, i32 } %69, 0, !dbg !4333
  store i8* %70, i8** %9, align 4, !dbg !4333
  %71 = extractvalue { i8*, i32 } %69, 1, !dbg !4333
  store i32 %71, i32* %10, align 4, !dbg !4333
  br label %72, !dbg !4333

; <label>:72:                                     ; preds = %68
  %73 = load i8*, i8** %9, align 4, !dbg !4334
  %74 = call i8* @__cxa_begin_catch(i8* %73) #3, !dbg !4334
  %75 = load i32**, i32*** %7, align 4, !dbg !4335
  %76 = load i32**, i32*** %8, align 4, !dbg !4337
  %77 = bitcast %"class.std::vector.0"* %11 to %"struct.std::_Vector_base.1"*, !dbg !4338
  %78 = call dereferenceable(1) %"class.std::allocator.2"* @_ZNSt12_Vector_baseIPiSaIS0_EE19_M_get_Tp_allocatorEv(%"struct.std::_Vector_base.1"* %77) #3, !dbg !4338
  invoke void @_ZSt8_DestroyIPPiS0_EvT_S2_RSaIT0_E(i32** %75, i32** %76, %"class.std::allocator.2"* dereferenceable(1) %78)
          to label %79 unwind label %84, !dbg !4339

; <label>:79:                                     ; preds = %72
  %80 = bitcast %"class.std::vector.0"* %11 to %"struct.std::_Vector_base.1"*, !dbg !4340
  %81 = load i32**, i32*** %7, align 4, !dbg !4341
  %82 = load i32, i32* %5, align 4, !dbg !4342
  invoke void @_ZNSt12_Vector_baseIPiSaIS0_EE13_M_deallocateEPS0_j(%"struct.std::_Vector_base.1"* %80, i32** %81, i32 %82)
          to label %83 unwind label %84, !dbg !4340

; <label>:83:                                     ; preds = %79
  invoke void @__cxa_rethrow() #17
          to label %141 unwind label %84, !dbg !4343

; <label>:84:                                     ; preds = %83, %79, %72
  %85 = landingpad { i8*, i32 }
          cleanup, !dbg !4344
  %86 = extractvalue { i8*, i32 } %85, 0, !dbg !4344
  store i8* %86, i8** %9, align 4, !dbg !4344
  %87 = extractvalue { i8*, i32 } %85, 1, !dbg !4344
  store i32 %87, i32* %10, align 4, !dbg !4344
  invoke void @__cxa_end_catch()
          to label %88 unwind label %138, !dbg !4346

; <label>:88:                                     ; preds = %84
  br label %133, !dbg !4347

; <label>:89:                                     ; preds = %67
  %90 = bitcast %"class.std::vector.0"* %11 to %"struct.std::_Vector_base.1"*, !dbg !4348
  %91 = getelementptr inbounds %"struct.std::_Vector_base.1", %"struct.std::_Vector_base.1"* %90, i32 0, i32 0, !dbg !4348
  %92 = getelementptr inbounds %"struct.std::_Vector_base<int *, std::allocator<int *> >::_Vector_impl", %"struct.std::_Vector_base<int *, std::allocator<int *> >::_Vector_impl"* %91, i32 0, i32 0, !dbg !4349
  %93 = load i32**, i32*** %92, align 4, !dbg !4349
  %94 = bitcast %"class.std::vector.0"* %11 to %"struct.std::_Vector_base.1"*, !dbg !4350
  %95 = getelementptr inbounds %"struct.std::_Vector_base.1", %"struct.std::_Vector_base.1"* %94, i32 0, i32 0, !dbg !4350
  %96 = getelementptr inbounds %"struct.std::_Vector_base<int *, std::allocator<int *> >::_Vector_impl", %"struct.std::_Vector_base<int *, std::allocator<int *> >::_Vector_impl"* %95, i32 0, i32 1, !dbg !4351
  %97 = load i32**, i32*** %96, align 4, !dbg !4351
  %98 = bitcast %"class.std::vector.0"* %11 to %"struct.std::_Vector_base.1"*, !dbg !4352
  %99 = call dereferenceable(1) %"class.std::allocator.2"* @_ZNSt12_Vector_baseIPiSaIS0_EE19_M_get_Tp_allocatorEv(%"struct.std::_Vector_base.1"* %98) #3, !dbg !4352
  call void @_ZSt8_DestroyIPPiS0_EvT_S2_RSaIT0_E(i32** %93, i32** %97, %"class.std::allocator.2"* dereferenceable(1) %99), !dbg !4353
  %100 = bitcast %"class.std::vector.0"* %11 to %"struct.std::_Vector_base.1"*, !dbg !4354
  %101 = bitcast %"class.std::vector.0"* %11 to %"struct.std::_Vector_base.1"*, !dbg !4355
  %102 = getelementptr inbounds %"struct.std::_Vector_base.1", %"struct.std::_Vector_base.1"* %101, i32 0, i32 0, !dbg !4355
  %103 = getelementptr inbounds %"struct.std::_Vector_base<int *, std::allocator<int *> >::_Vector_impl", %"struct.std::_Vector_base<int *, std::allocator<int *> >::_Vector_impl"* %102, i32 0, i32 0, !dbg !4356
  %104 = load i32**, i32*** %103, align 4, !dbg !4356
  %105 = bitcast %"class.std::vector.0"* %11 to %"struct.std::_Vector_base.1"*, !dbg !4357
  %106 = getelementptr inbounds %"struct.std::_Vector_base.1", %"struct.std::_Vector_base.1"* %105, i32 0, i32 0, !dbg !4357
  %107 = getelementptr inbounds %"struct.std::_Vector_base<int *, std::allocator<int *> >::_Vector_impl", %"struct.std::_Vector_base<int *, std::allocator<int *> >::_Vector_impl"* %106, i32 0, i32 2, !dbg !4358
  %108 = load i32**, i32*** %107, align 4, !dbg !4358
  %109 = bitcast %"class.std::vector.0"* %11 to %"struct.std::_Vector_base.1"*, !dbg !4359
  %110 = getelementptr inbounds %"struct.std::_Vector_base.1", %"struct.std::_Vector_base.1"* %109, i32 0, i32 0, !dbg !4359
  %111 = getelementptr inbounds %"struct.std::_Vector_base<int *, std::allocator<int *> >::_Vector_impl", %"struct.std::_Vector_base<int *, std::allocator<int *> >::_Vector_impl"* %110, i32 0, i32 0, !dbg !4360
  %112 = load i32**, i32*** %111, align 4, !dbg !4360
  %113 = ptrtoint i32** %108 to i32, !dbg !4361
  %114 = ptrtoint i32** %112 to i32, !dbg !4361
  %115 = sub i32 %113, %114, !dbg !4361
  %116 = sdiv exact i32 %115, 4, !dbg !4361
  call void @_ZNSt12_Vector_baseIPiSaIS0_EE13_M_deallocateEPS0_j(%"struct.std::_Vector_base.1"* %100, i32** %104, i32 %116), !dbg !4354
  %117 = load i32**, i32*** %7, align 4, !dbg !4362
  %118 = bitcast %"class.std::vector.0"* %11 to %"struct.std::_Vector_base.1"*, !dbg !4363
  %119 = getelementptr inbounds %"struct.std::_Vector_base.1", %"struct.std::_Vector_base.1"* %118, i32 0, i32 0, !dbg !4363
  %120 = getelementptr inbounds %"struct.std::_Vector_base<int *, std::allocator<int *> >::_Vector_impl", %"struct.std::_Vector_base<int *, std::allocator<int *> >::_Vector_impl"* %119, i32 0, i32 0, !dbg !4364
  store i32** %117, i32*** %120, align 4, !dbg !4365
  %121 = load i32**, i32*** %8, align 4, !dbg !4366
  %122 = bitcast %"class.std::vector.0"* %11 to %"struct.std::_Vector_base.1"*, !dbg !4367
  %123 = getelementptr inbounds %"struct.std::_Vector_base.1", %"struct.std::_Vector_base.1"* %122, i32 0, i32 0, !dbg !4367
  %124 = getelementptr inbounds %"struct.std::_Vector_base<int *, std::allocator<int *> >::_Vector_impl", %"struct.std::_Vector_base<int *, std::allocator<int *> >::_Vector_impl"* %123, i32 0, i32 1, !dbg !4368
  store i32** %121, i32*** %124, align 4, !dbg !4369
  %125 = load i32**, i32*** %7, align 4, !dbg !4370
  %126 = load i32, i32* %5, align 4, !dbg !4371
  %127 = getelementptr inbounds i32*, i32** %125, i32 %126, !dbg !4372
  %128 = bitcast %"class.std::vector.0"* %11 to %"struct.std::_Vector_base.1"*, !dbg !4373
  %129 = getelementptr inbounds %"struct.std::_Vector_base.1", %"struct.std::_Vector_base.1"* %128, i32 0, i32 0, !dbg !4373
  %130 = getelementptr inbounds %"struct.std::_Vector_base<int *, std::allocator<int *> >::_Vector_impl", %"struct.std::_Vector_base<int *, std::allocator<int *> >::_Vector_impl"* %129, i32 0, i32 2, !dbg !4374
  store i32** %127, i32*** %130, align 4, !dbg !4375
  br label %131

; <label>:131:                                    ; preds = %89, %29
  br label %132, !dbg !4376

; <label>:132:                                    ; preds = %131, %2
  ret void, !dbg !4377

; <label>:133:                                    ; preds = %88
  %134 = load i8*, i8** %9, align 4, !dbg !4379
  %135 = load i32, i32* %10, align 4, !dbg !4379
  %136 = insertvalue { i8*, i32 } undef, i8* %134, 0, !dbg !4379
  %137 = insertvalue { i8*, i32 } %136, i32 %135, 1, !dbg !4379
  resume { i8*, i32 } %137, !dbg !4379

; <label>:138:                                    ; preds = %84
  %139 = landingpad { i8*, i32 }
          catch i8* null, !dbg !4381
  %140 = extractvalue { i8*, i32 } %139, 0, !dbg !4381
  call void @__clang_call_terminate(i8* %140) #14, !dbg !4381
  unreachable, !dbg !4381

; <label>:141:                                    ; preds = %83
  unreachable
}

; Function Attrs: nounwind
define linkonce_odr void @_ZNSt6vectorIPiSaIS0_EE15_M_erase_at_endEPS0_(%"class.std::vector.0"*, i32**) #5 comdat align 2 personality i8* bitcast (i32 (...)* @__gxx_personality_v0 to i8*) !dbg !4383 !xidane.fname !3730 !xidane.function_declaration_type !3731 !xidane.function_declaration_filename !2322 {
  %3 = alloca %"class.std::vector.0"*, align 4
  %4 = alloca i32**, align 4
  store %"class.std::vector.0"* %0, %"class.std::vector.0"** %3, align 4
  call void @llvm.dbg.declare(metadata %"class.std::vector.0"** %3, metadata !4384, metadata !2236), !dbg !4385
  store i32** %1, i32*** %4, align 4
  call void @llvm.dbg.declare(metadata i32*** %4, metadata !4386, metadata !2236), !dbg !4387
  %5 = load %"class.std::vector.0"*, %"class.std::vector.0"** %3, align 4
  %6 = load i32**, i32*** %4, align 4, !dbg !4388
  %7 = bitcast %"class.std::vector.0"* %5 to %"struct.std::_Vector_base.1"*, !dbg !4389
  %8 = getelementptr inbounds %"struct.std::_Vector_base.1", %"struct.std::_Vector_base.1"* %7, i32 0, i32 0, !dbg !4389
  %9 = getelementptr inbounds %"struct.std::_Vector_base<int *, std::allocator<int *> >::_Vector_impl", %"struct.std::_Vector_base<int *, std::allocator<int *> >::_Vector_impl"* %8, i32 0, i32 1, !dbg !4390
  %10 = load i32**, i32*** %9, align 4, !dbg !4390
  %11 = bitcast %"class.std::vector.0"* %5 to %"struct.std::_Vector_base.1"*, !dbg !4391
  %12 = call dereferenceable(1) %"class.std::allocator.2"* @_ZNSt12_Vector_baseIPiSaIS0_EE19_M_get_Tp_allocatorEv(%"struct.std::_Vector_base.1"* %11) #3, !dbg !4391
  invoke void @_ZSt8_DestroyIPPiS0_EvT_S2_RSaIT0_E(i32** %6, i32** %10, %"class.std::allocator.2"* dereferenceable(1) %12)
          to label %13 unwind label %18, !dbg !4392

; <label>:13:                                     ; preds = %2
  %14 = load i32**, i32*** %4, align 4, !dbg !4393
  %15 = bitcast %"class.std::vector.0"* %5 to %"struct.std::_Vector_base.1"*, !dbg !4394
  %16 = getelementptr inbounds %"struct.std::_Vector_base.1", %"struct.std::_Vector_base.1"* %15, i32 0, i32 0, !dbg !4394
  %17 = getelementptr inbounds %"struct.std::_Vector_base<int *, std::allocator<int *> >::_Vector_impl", %"struct.std::_Vector_base<int *, std::allocator<int *> >::_Vector_impl"* %16, i32 0, i32 1, !dbg !4395
  store i32** %14, i32*** %17, align 4, !dbg !4396
  ret void, !dbg !4397

; <label>:18:                                     ; preds = %2
  %19 = landingpad { i8*, i32 }
          catch i8* null, !dbg !4398
  %20 = extractvalue { i8*, i32 } %19, 0, !dbg !4398
  call void @__clang_call_terminate(i8* %20) #14, !dbg !4398
  unreachable, !dbg !4398
}

; Function Attrs: inlinehint
define linkonce_odr i32** @_ZSt27__uninitialized_default_n_aIPPijS0_ET_S2_T0_RSaIT1_E(i32**, i32, %"class.std::allocator.2"* dereferenceable(1)) #11 comdat !dbg !4400 !xidane.fname !3754 !xidane.function_declaration_type !4404 !xidane.function_declaration_filename !3756 {
  %4 = alloca i32**, align 4
  %5 = alloca i32, align 4
  %6 = alloca %"class.std::allocator.2"*, align 4
  store i32** %0, i32*** %4, align 4
  call void @llvm.dbg.declare(metadata i32*** %4, metadata !4405, metadata !2236), !dbg !4406
  store i32 %1, i32* %5, align 4
  call void @llvm.dbg.declare(metadata i32* %5, metadata !4407, metadata !2236), !dbg !4408
  store %"class.std::allocator.2"* %2, %"class.std::allocator.2"** %6, align 4
  call void @llvm.dbg.declare(metadata %"class.std::allocator.2"** %6, metadata !4409, metadata !2236), !dbg !4410
  %7 = load i32**, i32*** %4, align 4, !dbg !4411
  %8 = load i32, i32* %5, align 4, !dbg !4412
  %9 = call i32** @_ZSt25__uninitialized_default_nIPPijET_S2_T0_(i32** %7, i32 %8), !dbg !4413
  ret i32** %9, !dbg !4414
}

define linkonce_odr i32 @_ZNKSt6vectorIPiSaIS0_EE12_M_check_lenEjPKc(%"class.std::vector.0"*, i32, i8*) #0 comdat align 2 !dbg !4415 !xidane.fname !3768 !xidane.function_declaration_type !3769 !xidane.function_declaration_filename !2322 {
  %4 = alloca %"class.std::vector.0"*, align 4
  %5 = alloca i32, align 4
  %6 = alloca i8*, align 4
  %7 = alloca i32, align 4
  %8 = alloca i32, align 4
  store %"class.std::vector.0"* %0, %"class.std::vector.0"** %4, align 4
  call void @llvm.dbg.declare(metadata %"class.std::vector.0"** %4, metadata !4416, metadata !2236), !dbg !4417
  store i32 %1, i32* %5, align 4
  call void @llvm.dbg.declare(metadata i32* %5, metadata !4418, metadata !2236), !dbg !4419
  store i8* %2, i8** %6, align 4
  call void @llvm.dbg.declare(metadata i8** %6, metadata !4420, metadata !2236), !dbg !4421
  %9 = load %"class.std::vector.0"*, %"class.std::vector.0"** %4, align 4
  %10 = call i32 @_ZNKSt6vectorIPiSaIS0_EE8max_sizeEv(%"class.std::vector.0"* %9) #3, !dbg !4422
  %11 = call i32 @_ZNKSt6vectorIPiSaIS0_EE4sizeEv(%"class.std::vector.0"* %9) #3, !dbg !4424
  %12 = sub i32 %10, %11, !dbg !4426
  %13 = load i32, i32* %5, align 4, !dbg !4427
  %14 = icmp ult i32 %12, %13, !dbg !4428
  br i1 %14, label %15, label %17, !dbg !4429

; <label>:15:                                     ; preds = %3
  %16 = load i8*, i8** %6, align 4, !dbg !4430
  call void @_ZSt20__throw_length_errorPKc(i8* %16) #17, !dbg !4431
  unreachable, !dbg !4431

; <label>:17:                                     ; preds = %3
  call void @llvm.dbg.declare(metadata i32* %7, metadata !4432, metadata !2236), !dbg !4433
  %18 = call i32 @_ZNKSt6vectorIPiSaIS0_EE4sizeEv(%"class.std::vector.0"* %9) #3, !dbg !4434
  %19 = call i32 @_ZNKSt6vectorIPiSaIS0_EE4sizeEv(%"class.std::vector.0"* %9) #3, !dbg !4435
  store i32 %19, i32* %8, align 4, !dbg !4437
  %20 = call dereferenceable(4) i32* @_ZSt3maxIjERKT_S2_S2_(i32* dereferenceable(4) %8, i32* dereferenceable(4) %5), !dbg !4438
  %21 = load i32, i32* %20, align 4, !dbg !4440
  %22 = add i32 %18, %21, !dbg !4441
  store i32 %22, i32* %7, align 4, !dbg !4433
  %23 = load i32, i32* %7, align 4, !dbg !4442
  %24 = call i32 @_ZNKSt6vectorIPiSaIS0_EE4sizeEv(%"class.std::vector.0"* %9) #3, !dbg !4443
  %25 = icmp ult i32 %23, %24, !dbg !4444
  br i1 %25, label %30, label %26, !dbg !4445

; <label>:26:                                     ; preds = %17
  %27 = load i32, i32* %7, align 4, !dbg !4446
  %28 = call i32 @_ZNKSt6vectorIPiSaIS0_EE8max_sizeEv(%"class.std::vector.0"* %9) #3, !dbg !4447
  %29 = icmp ugt i32 %27, %28, !dbg !4448
  br i1 %29, label %30, label %32, !dbg !4449

; <label>:30:                                     ; preds = %26, %17
  %31 = call i32 @_ZNKSt6vectorIPiSaIS0_EE8max_sizeEv(%"class.std::vector.0"* %9) #3, !dbg !4450
  br label %34, !dbg !4451

; <label>:32:                                     ; preds = %26
  %33 = load i32, i32* %7, align 4, !dbg !4452
  br label %34, !dbg !4454

; <label>:34:                                     ; preds = %32, %30
  %35 = phi i32 [ %31, %30 ], [ %33, %32 ], !dbg !4455
  ret i32 %35, !dbg !4457
}

define linkonce_odr i32** @_ZNSt12_Vector_baseIPiSaIS0_EE11_M_allocateEj(%"struct.std::_Vector_base.1"*, i32) #0 comdat align 2 !dbg !4458 !xidane.fname !3813 !xidane.function_declaration_type !3814 !xidane.function_declaration_filename !2322 {
  %3 = alloca %"struct.std::_Vector_base.1"*, align 4
  %4 = alloca i32, align 4
  store %"struct.std::_Vector_base.1"* %0, %"struct.std::_Vector_base.1"** %3, align 4
  call void @llvm.dbg.declare(metadata %"struct.std::_Vector_base.1"** %3, metadata !4459, metadata !2236), !dbg !4460
  store i32 %1, i32* %4, align 4
  call void @llvm.dbg.declare(metadata i32* %4, metadata !4461, metadata !2236), !dbg !4462
  %5 = load %"struct.std::_Vector_base.1"*, %"struct.std::_Vector_base.1"** %3, align 4
  %6 = load i32, i32* %4, align 4, !dbg !4463
  %7 = icmp ne i32 %6, 0, !dbg !4464
  br i1 %7, label %8, label %13, !dbg !4463

; <label>:8:                                      ; preds = %2
  %9 = getelementptr inbounds %"struct.std::_Vector_base.1", %"struct.std::_Vector_base.1"* %5, i32 0, i32 0, !dbg !4465
  %10 = bitcast %"struct.std::_Vector_base<int *, std::allocator<int *> >::_Vector_impl"* %9 to %"class.std::allocator.2"*, !dbg !4465
  %11 = load i32, i32* %4, align 4, !dbg !4467
  %12 = call i32** @_ZNSt16allocator_traitsISaIPiEE8allocateERS1_j(%"class.std::allocator.2"* dereferenceable(1) %10, i32 %11), !dbg !4468
  br label %14, !dbg !4469

; <label>:13:                                     ; preds = %2
  br label %14, !dbg !4470

; <label>:14:                                     ; preds = %13, %8
  %15 = phi i32** [ %12, %8 ], [ null, %13 ], !dbg !4472
  ret i32** %15, !dbg !4474
}

; Function Attrs: inlinehint
define linkonce_odr i32** @_ZSt34__uninitialized_move_if_noexcept_aIPPiS1_SaIS0_EET0_T_S4_S3_RT1_(i32**, i32**, i32**, %"class.std::allocator.2"* dereferenceable(1)) #11 comdat !dbg !4475 !xidane.fname !3837 !xidane.function_declaration_type !4481 !xidane.function_declaration_filename !3756 {
  %5 = alloca i32**, align 4
  %6 = alloca i32**, align 4
  %7 = alloca i32**, align 4
  %8 = alloca %"class.std::allocator.2"*, align 4
  %9 = alloca %"class.std::move_iterator.5", align 4
  %10 = alloca %"class.std::move_iterator.5", align 4
  store i32** %0, i32*** %5, align 4
  call void @llvm.dbg.declare(metadata i32*** %5, metadata !4482, metadata !2236), !dbg !4483
  store i32** %1, i32*** %6, align 4
  call void @llvm.dbg.declare(metadata i32*** %6, metadata !4484, metadata !2236), !dbg !4485
  store i32** %2, i32*** %7, align 4
  call void @llvm.dbg.declare(metadata i32*** %7, metadata !4486, metadata !2236), !dbg !4487
  store %"class.std::allocator.2"* %3, %"class.std::allocator.2"** %8, align 4
  call void @llvm.dbg.declare(metadata %"class.std::allocator.2"** %8, metadata !4488, metadata !2236), !dbg !4489
  %11 = load i32**, i32*** %5, align 4, !dbg !4490
  %12 = call i32 @_ZSt32__make_move_if_noexcept_iteratorIPiSt13move_iteratorIPS0_EET0_PT_(i32** %11), !dbg !4490
  %13 = getelementptr inbounds %"class.std::move_iterator.5", %"class.std::move_iterator.5"* %9, i32 0, i32 0, !dbg !4490
  %14 = inttoptr i32 %12 to i32**, !dbg !4490
  store i32** %14, i32*** %13, align 4, !dbg !4490
  %15 = load i32**, i32*** %6, align 4, !dbg !4491
  %16 = call i32 @_ZSt32__make_move_if_noexcept_iteratorIPiSt13move_iteratorIPS0_EET0_PT_(i32** %15), !dbg !4491
  %17 = getelementptr inbounds %"class.std::move_iterator.5", %"class.std::move_iterator.5"* %10, i32 0, i32 0, !dbg !4491
  %18 = inttoptr i32 %16 to i32**, !dbg !4491
  store i32** %18, i32*** %17, align 4, !dbg !4491
  %19 = load i32**, i32*** %7, align 4, !dbg !4492
  %20 = load %"class.std::allocator.2"*, %"class.std::allocator.2"** %8, align 4, !dbg !4493
  %21 = getelementptr inbounds %"class.std::move_iterator.5", %"class.std::move_iterator.5"* %9, i32 0, i32 0, !dbg !4494
  %22 = bitcast i32*** %21 to [1 x i32]*, !dbg !4494
  %23 = load [1 x i32], [1 x i32]* %22, align 4, !dbg !4494
  %24 = getelementptr inbounds %"class.std::move_iterator.5", %"class.std::move_iterator.5"* %10, i32 0, i32 0, !dbg !4494
  %25 = bitcast i32*** %24 to [1 x i32]*, !dbg !4494
  %26 = load [1 x i32], [1 x i32]* %25, align 4, !dbg !4494
  %27 = call i32** @_ZSt22__uninitialized_copy_aISt13move_iteratorIPPiES2_S1_ET0_T_S5_S4_RSaIT1_E([1 x i32] %23, [1 x i32] %26, i32** %19, %"class.std::allocator.2"* dereferenceable(1) %20), !dbg !4494
  ret i32** %27, !dbg !4495
}

; Function Attrs: inlinehint
define linkonce_odr i32** @_ZSt25__uninitialized_default_nIPPijET_S2_T0_(i32**, i32) #11 comdat !dbg !4496 !xidane.fname !3857 !xidane.function_declaration_type !4500 !xidane.function_declaration_filename !3756 {
  %3 = alloca i32**, align 4
  %4 = alloca i32, align 4
  %5 = alloca i8, align 1
  store i32** %0, i32*** %3, align 4
  call void @llvm.dbg.declare(metadata i32*** %3, metadata !4501, metadata !2236), !dbg !4502
  store i32 %1, i32* %4, align 4
  call void @llvm.dbg.declare(metadata i32* %4, metadata !4503, metadata !2236), !dbg !4504
  call void @llvm.dbg.declare(metadata i8* %5, metadata !4505, metadata !2236), !dbg !4506
  store i8 1, i8* %5, align 1, !dbg !4506
  %6 = load i32**, i32*** %3, align 4, !dbg !4507
  %7 = load i32, i32* %4, align 4, !dbg !4508
  %8 = call i32** @_ZNSt27__uninitialized_default_n_1ILb1EE18__uninit_default_nIPPijEET_S4_T0_(i32** %6, i32 %7), !dbg !4509
  ret i32** %8, !dbg !4510
}

define linkonce_odr i32** @_ZNSt27__uninitialized_default_n_1ILb1EE18__uninit_default_nIPPijEET_S4_T0_(i32**, i32) #0 comdat align 2 !dbg !4511 !xidane.fname !3874 !xidane.function_declaration_type !4500 !xidane.function_declaration_filename !3756 {
  %3 = alloca i32**, align 4
  %4 = alloca i32, align 4
  %5 = alloca i32*, align 4
  store i32** %0, i32*** %3, align 4
  call void @llvm.dbg.declare(metadata i32*** %3, metadata !4513, metadata !2236), !dbg !4514
  store i32 %1, i32* %4, align 4
  call void @llvm.dbg.declare(metadata i32* %4, metadata !4515, metadata !2236), !dbg !4516
