; ModuleID = 'C:/Users/yakup/workspace/bitirme_v4/Release/_sds/vhls/sobel_accel/solution/.autopilot/db/a.o.bc'
target datalayout = "e-p:32:32:32-i1:8:8-i8:8:8-i16:16:16-i32:32:32-i64:64:64-f32:32:32-f64:64:64-f80:128:128-v64:64:64-v128:128:128-a0:0:64-f80:32:32-n8:16:32-S32"
target triple = "i386-w64-mingw32"

%"class.xf::Mat" = type { i8, i32, i32, i32, [307200 x %struct.ap_uint] }
%struct.ap_uint = type { %struct.ap_int_base }
%struct.ap_int_base = type { %struct.ssdm_int }
%struct.ssdm_int = type { i8 }
%"class.hls::stream" = type { %struct.ap_uint }
%struct.ap_uint.9 = type { %struct.ap_int_base.10 }
%struct.ap_int_base.10 = type { %struct.ssdm_int.11 }
%struct.ssdm_int.11 = type { i13 }
%struct.ap_uint.55 = type { %struct.ap_int_base.56 }
%struct.ap_int_base.56 = type { %struct.ssdm_int.57 }
%struct.ssdm_int.57 = type { i2 }
%struct.ap_int_base.21 = type { %struct.ssdm_int.22 }
%struct.ssdm_int.22 = type { i33 }
%struct.ap_uint.12 = type { %struct.ap_int_base.13 }
%struct.ap_int_base.13 = type { %struct.ssdm_int.14 }
%struct.ssdm_int.14 = type { i4 }
%struct.ap_uint.15 = type { %struct.ap_int_base.16 }
%struct.ap_int_base.16 = type { %struct.ssdm_int.17 }
%struct.ssdm_int.17 = type { i5 }
%struct.ap_uint.50 = type { %struct.ap_int_base.31 }
%struct.ap_int_base.31 = type { %struct.ssdm_int.32 }
%struct.ssdm_int.32 = type { i9 }
%struct.ap_int_base.29 = type { %struct.ssdm_int.30 }
%struct.ssdm_int.30 = type { i10 }
%struct.ap_range_ref = type { %struct.ap_int_base*, i32, i32 }
%struct.ap_int_base.51 = type { %struct.ssdm_int.52 }
%struct.ssdm_int.52 = type { i34 }
%struct.ap_int_base.46 = type { %struct.ssdm_int.47 }
%struct.ssdm_int.47 = type { i16 }
%struct.ap_int_base.25 = type { %struct.ssdm_int.26 }
%struct.ssdm_int.26 = type { i1 }
%struct.ap_int_base.23 = type { %"class.std::locale::id" }
%"class.std::locale::id" = type { i32 }
%struct.ap_uint.18 = type { %struct.ap_int_base.29 }
%struct.ap_int = type { %struct.ap_int_base.27 }
%struct.ap_int_base.27 = type { %struct.ssdm_int.28 }
%struct.ssdm_int.28 = type { i20 }
%struct.ap_int_base.37 = type { %struct.ssdm_int.38 }
%struct.ssdm_int.38 = type { i22 }
%struct.ap_int_base.33 = type { %struct.ssdm_int.34 }
%struct.ssdm_int.34 = type { i21 }
%struct.ap_int_base.41 = type { %struct.ssdm_int.42 }
%struct.ssdm_int.42 = type { i24 }
%struct.ap_int_base.35 = type { %struct.ssdm_int.36 }
%struct.ssdm_int.36 = type { i23 }
%struct.ap_concat_ref = type { %struct.ap_int_base.13*, %struct.ap_int_base.13* }
%struct.ap_int_base.53 = type { %struct.ssdm_int.54 }
%struct.ssdm_int.54 = type { i40 }

@.str = private unnamed_addr constant [1 x i8] zeroinitializer, align 1 ; [#uses=1 type=[1 x i8]*]
@.str1 = private unnamed_addr constant [12 x i8] c"hls_label_0\00", align 1 ; [#uses=1 type=[12 x i8]*]
@.str2 = private unnamed_addr constant [12 x i8] c"hls_label_1\00", align 1 ; [#uses=1 type=[12 x i8]*]
@.str3 = private unnamed_addr constant [12 x i8] c"hls_label_2\00", align 1 ; [#uses=1 type=[12 x i8]*]
@.str4 = private unnamed_addr constant [12 x i8] c"hls_label_3\00", align 1 ; [#uses=1 type=[12 x i8]*]
@.str5 = private unnamed_addr constant [181 x i8] c"((_filter_width == XF_FILTER_3X3) || (_filter_width == XF_FILTER_5X5) || (_filter_width == XF_FILTER_7X7)) && \22 Filter width must be XF_FILTER_3X3, XF_FILTER_5X5 or XF_FILTER_7X7 \22\00", align 1 ; [#uses=1 type=[181 x i8]*]
@.str6 = private unnamed_addr constant [41 x i8] c"C:/xfopencv/include\5Cimgproc/xf_sobel.hpp\00", align 1 ; [#uses=1 type=[41 x i8]*]
@.str7 = private unnamed_addr constant [82 x i8] c"(_border_type == XF_BORDER_CONSTANT) && \22Border type must be XF_BORDER_CONSTANT \22\00", align 1 ; [#uses=1 type=[82 x i8]*]
@.str8 = private unnamed_addr constant [93 x i8] c"((height <= ROWS ) && (width <= COLS)) && \22ROWS and COLS should be greater than input image\22\00", align 1 ; [#uses=1 type=[93 x i8]*]
@.str9 = private unnamed_addr constant [9 x i8] c"COMPLETE\00", align 1 ; [#uses=1 type=[9 x i8]*]
@.str10 = private unnamed_addr constant [13 x i8] c"RAM_S2P_BRAM\00", align 1 ; [#uses=1 type=[13 x i8]*]
@.str11 = private unnamed_addr constant [15 x i8] c"Clear_Row_Loop\00", align 1 ; [#uses=1 type=[15 x i8]*]
@.str12 = private unnamed_addr constant [15 x i8] c"Read_Row1_Loop\00", align 1 ; [#uses=1 type=[15 x i8]*]
@.str13 = private unnamed_addr constant [15 x i8] c"Read_Row2_Loop\00", align 1 ; [#uses=1 type=[15 x i8]*]
@.str14 = private unnamed_addr constant [9 x i8] c"Row_Loop\00", align 1 ; [#uses=1 type=[9 x i8]*]
@.str15 = private unnamed_addr constant [12 x i8] c"hls_label_8\00", align 1 ; [#uses=1 type=[12 x i8]*]
@.str16 = private unnamed_addr constant [13 x i8] c"hls_label_13\00", align 1 ; [#uses=1 type=[13 x i8]*]
@.str17 = private unnamed_addr constant [15 x i8] c"xFGradientX7x7\00", align 1 ; [#uses=1 type=[15 x i8]*]
@.str18 = private unnamed_addr constant [15 x i8] c"xFGradientY7x7\00", align 1 ; [#uses=1 type=[15 x i8]*]
@.str19 = private unnamed_addr constant [13 x i8] c"hls_label_10\00", align 1 ; [#uses=1 type=[13 x i8]*]
@.str20 = private unnamed_addr constant [9 x i8] c"Col_Loop\00", align 1 ; [#uses=1 type=[9 x i8]*]
@.str21 = private unnamed_addr constant [12 x i8] c"hls_label_4\00", align 1 ; [#uses=1 type=[12 x i8]*]
@.str22 = private unnamed_addr constant [12 x i8] c"hls_label_9\00", align 1 ; [#uses=1 type=[12 x i8]*]
@.str23 = private unnamed_addr constant [12 x i8] c"hls_label_5\00", align 1 ; [#uses=1 type=[12 x i8]*]
@.str24 = private unnamed_addr constant [15 x i8] c"xFGradientX5x5\00", align 1 ; [#uses=1 type=[15 x i8]*]
@.str25 = private unnamed_addr constant [15 x i8] c"xFGradientY5x5\00", align 1 ; [#uses=1 type=[15 x i8]*]
@.str26 = private unnamed_addr constant [12 x i8] c"hls_label_6\00", align 1 ; [#uses=1 type=[12 x i8]*]
@.str27 = private unnamed_addr constant [12 x i8] c"hls_label_7\00", align 1 ; [#uses=1 type=[12 x i8]*]
@.str28 = private unnamed_addr constant [18 x i8] c"Compute_Grad_Loop\00", align 1 ; [#uses=1 type=[18 x i8]*]
@llvm.global_ctors = appending global [0 x { i32, void ()* }] zeroinitializer ; [#uses=0 type=[0 x { i32, void ()* }]*]

; [#uses=0]
define void @_Z11sobel_accelRN2xf3MatILi0ELi480ELi640ELi1EEES2_S2_(%"class.xf::Mat"* %_src, %"class.xf::Mat"* %_dstgx, %"class.xf::Mat"* %_dstgy) nounwind {
  %1 = alloca %"class.xf::Mat"*, align 4          ; [#uses=2 type=%"class.xf::Mat"**]
  %2 = alloca %"class.xf::Mat"*, align 4          ; [#uses=2 type=%"class.xf::Mat"**]
  %3 = alloca %"class.xf::Mat"*, align 4          ; [#uses=2 type=%"class.xf::Mat"**]
  store %"class.xf::Mat"* %_src, %"class.xf::Mat"** %1, align 4
  call void @llvm.dbg.declare(metadata !{%"class.xf::Mat"** %1}, metadata !11768), !dbg !11769 ; [debug line = 33:56] [debug variable = _src]
  store %"class.xf::Mat"* %_dstgx, %"class.xf::Mat"** %2, align 4
  call void @llvm.dbg.declare(metadata !{%"class.xf::Mat"** %2}, metadata !11770), !dbg !11771 ; [debug line = 33:99] [debug variable = _dstgx]
  store %"class.xf::Mat"* %_dstgy, %"class.xf::Mat"** %3, align 4
  call void @llvm.dbg.declare(metadata !{%"class.xf::Mat"** %3}, metadata !11772), !dbg !11773 ; [debug line = 33:144] [debug variable = _dstgy]
  call void (...)* @_ssdm_op_SpecLatency(i32 1, i32 65535, i8* getelementptr inbounds ([1 x i8]* @.str, i32 0, i32 0)) nounwind, !dbg !11774 ; [debug line = 35:1]
  %4 = load %"class.xf::Mat"** %1, align 4, !dbg !11776 ; [#uses=1 type=%"class.xf::Mat"*] [debug line = 37:2]
  %5 = load %"class.xf::Mat"** %2, align 4, !dbg !11776 ; [#uses=1 type=%"class.xf::Mat"*] [debug line = 37:2]
  %6 = load %"class.xf::Mat"** %3, align 4, !dbg !11776 ; [#uses=1 type=%"class.xf::Mat"*] [debug line = 37:2]
  call void @_ZN2xf5SobelILi0ELi3ELi0ELi0ELi480ELi640ELi1EEEvRNS_3MatIXT1_EXT3_EXT4_EXT5_EEERNS1_IXT2_EXT3_EXT4_EXT5_EEES5_(%"class.xf::Mat"* %4, %"class.xf::Mat"* %5, %"class.xf::Mat"* %6), !dbg !11776 ; [debug line = 37:2]
  ret void, !dbg !11777                           ; [debug line = 39:1]
}

; [#uses=931]
declare void @llvm.dbg.declare(metadata, metadata) nounwind readnone

; [#uses=1]
declare void @_ssdm_op_SpecLatency(...) nounwind

; [#uses=1]
define internal void @_ZN2xf5SobelILi0ELi3ELi0ELi0ELi480ELi640ELi1EEEvRNS_3MatIXT1_EXT3_EXT4_EXT5_EEERNS1_IXT2_EXT3_EXT4_EXT5_EEES5_(%"class.xf::Mat"* %_src_mat, %"class.xf::Mat"* %_dst_matx, %"class.xf::Mat"* %_dst_maty) nounwind {
  %1 = alloca %"class.xf::Mat"*, align 4          ; [#uses=7 type=%"class.xf::Mat"**]
  %2 = alloca %"class.xf::Mat"*, align 4          ; [#uses=5 type=%"class.xf::Mat"**]
  %3 = alloca %"class.xf::Mat"*, align 4          ; [#uses=3 type=%"class.xf::Mat"**]
  %_src = alloca %"class.hls::stream", align 1    ; [#uses=3 type=%"class.hls::stream"*]
  %_dstx = alloca %"class.hls::stream", align 1   ; [#uses=3 type=%"class.hls::stream"*]
  %_dsty = alloca %"class.hls::stream", align 1   ; [#uses=3 type=%"class.hls::stream"*]
  %i = alloca i32, align 4                        ; [#uses=5 type=i32*]
  %j = alloca i32, align 4                        ; [#uses=5 type=i32*]
  %i1 = alloca i32, align 4                       ; [#uses=6 type=i32*]
  %j2 = alloca i32, align 4                       ; [#uses=6 type=i32*]
  %4 = alloca %struct.ap_uint, align 1            ; [#uses=2 type=%struct.ap_uint*]
  %5 = alloca %struct.ap_uint, align 1            ; [#uses=2 type=%struct.ap_uint*]
  store %"class.xf::Mat"* %_src_mat, %"class.xf::Mat"** %1, align 4
  call void @llvm.dbg.declare(metadata !{%"class.xf::Mat"** %1}, metadata !11778), !dbg !11779 ; [debug line = 1450:46] [debug variable = _src_mat]
  store %"class.xf::Mat"* %_dst_matx, %"class.xf::Mat"** %2, align 4
  call void @llvm.dbg.declare(metadata !{%"class.xf::Mat"** %2}, metadata !11780), !dbg !11781 ; [debug line = 1450:89] [debug variable = _dst_matx]
  store %"class.xf::Mat"* %_dst_maty, %"class.xf::Mat"** %3, align 4
  call void @llvm.dbg.declare(metadata !{%"class.xf::Mat"** %3}, metadata !11782), !dbg !11783 ; [debug line = 1450:133] [debug variable = _dst_maty]
  call void @llvm.dbg.declare(metadata !{%"class.hls::stream"* %_src}, metadata !11784), !dbg !11786 ; [debug line = 1454:51] [debug variable = _src]
  call void @_ZN3hls6streamI7ap_uintILi8EEEC1Ev(%"class.hls::stream"* %_src), !dbg !11787 ; [debug line = 1454:55]
  call void @llvm.dbg.declare(metadata !{%"class.hls::stream"* %_dstx}, metadata !11788), !dbg !11789 ; [debug line = 1455:51] [debug variable = _dstx]
  call void @_ZN3hls6streamI7ap_uintILi8EEEC1Ev(%"class.hls::stream"* %_dstx), !dbg !11790 ; [debug line = 1455:56]
  call void @llvm.dbg.declare(metadata !{%"class.hls::stream"* %_dsty}, metadata !11791), !dbg !11792 ; [debug line = 1456:51] [debug variable = _dsty]
  call void @_ZN3hls6streamI7ap_uintILi8EEEC1Ev(%"class.hls::stream"* %_dsty), !dbg !11793 ; [debug line = 1456:56]
  call void (...)* @_ssdm_InlineSelf(i32 2, i8* getelementptr inbounds ([1 x i8]* @.str, i32 0, i32 0)) nounwind, !dbg !11794 ; [debug line = 1457:1]
  call void (...)* @_ssdm_op_SpecDataflowPipeline(i32 -1, i8* getelementptr inbounds ([1 x i8]* @.str, i32 0, i32 0)) nounwind, !dbg !11795 ; [debug line = 1458:1]
  call void @llvm.dbg.declare(metadata !{i32* %i}, metadata !11796), !dbg !11798 ; [debug line = 1460:10] [debug variable = i]
  store i32 0, i32* %i, align 4, !dbg !11799      ; [debug line = 1460:13]
  br label %6, !dbg !11799                        ; [debug line = 1460:13]

; <label>:6                                       ; preds = %37, %0
  %7 = load i32* %i, align 4, !dbg !11799         ; [#uses=1 type=i32] [debug line = 1460:13]
  %8 = load %"class.xf::Mat"** %1, align 4, !dbg !11799 ; [#uses=1 type=%"class.xf::Mat"*] [debug line = 1460:13]
  %9 = getelementptr inbounds %"class.xf::Mat"* %8, i32 0, i32 1, !dbg !11799 ; [#uses=1 type=i32*] [debug line = 1460:13]
  %10 = load i32* %9, align 4, !dbg !11799        ; [#uses=1 type=i32] [debug line = 1460:13]
  %11 = icmp slt i32 %7, %10, !dbg !11799         ; [#uses=1 type=i1] [debug line = 1460:13]
  br i1 %11, label %12, label %40, !dbg !11799    ; [debug line = 1460:13]

; <label>:12                                      ; preds = %6
  call void (...)* @_ssdm_RegionBegin(i8* getelementptr inbounds ([12 x i8]* @.str1, i32 0, i32 0)) nounwind, !dbg !11800 ; [debug line = 1461:3]
  call void (...)* @_ssdm_op_SpecLoopTripCount(i32 1, i32 480, i32 0, i8* getelementptr inbounds ([1 x i8]* @.str, i32 0, i32 0)) nounwind, !dbg !11802 ; [debug line = 1462:1]
  call void @llvm.dbg.declare(metadata !{i32* %j}, metadata !11803), !dbg !11805 ; [debug line = 1463:10] [debug variable = j]
  store i32 0, i32* %j, align 4, !dbg !11806      ; [debug line = 1463:13]
  br label %13, !dbg !11806                       ; [debug line = 1463:13]

; <label>:13                                      ; preds = %33, %12
  %14 = load i32* %j, align 4, !dbg !11806        ; [#uses=1 type=i32] [debug line = 1463:13]
  %15 = load %"class.xf::Mat"** %1, align 4, !dbg !11806 ; [#uses=1 type=%"class.xf::Mat"*] [debug line = 1463:13]
  %16 = getelementptr inbounds %"class.xf::Mat"* %15, i32 0, i32 2, !dbg !11806 ; [#uses=1 type=i32*] [debug line = 1463:13]
  %17 = load i32* %16, align 4, !dbg !11806       ; [#uses=1 type=i32] [debug line = 1463:13]
  %18 = ashr i32 %17, 0, !dbg !11806              ; [#uses=1 type=i32] [debug line = 1463:13]
  %19 = icmp slt i32 %14, %18, !dbg !11806        ; [#uses=1 type=i1] [debug line = 1463:13]
  br i1 %19, label %20, label %36, !dbg !11806    ; [debug line = 1463:13]

; <label>:20                                      ; preds = %13
  call void (...)* @_ssdm_RegionBegin(i8* getelementptr inbounds ([12 x i8]* @.str2, i32 0, i32 0)) nounwind, !dbg !11807 ; [debug line = 1464:4]
  call void (...)* @_ssdm_op_SpecLoopTripCount(i32 1, i32 640, i32 0, i8* getelementptr inbounds ([1 x i8]* @.str, i32 0, i32 0)) nounwind, !dbg !11809 ; [debug line = 1465:1]
  call void (...)* @_ssdm_SpecLoopFlatten(i32 1, i8* getelementptr inbounds ([1 x i8]* @.str, i32 0, i32 0)) nounwind, !dbg !11810 ; [debug line = 1466:1]
  call void (...)* @_ssdm_op_SpecPipeline(i32 -1, i32 1, i32 1, i32 0, i8* getelementptr inbounds ([1 x i8]* @.str, i32 0, i32 0)) nounwind, !dbg !11811 ; [debug line = 1467:1]
  %21 = load %"class.xf::Mat"** %1, align 4, !dbg !11812 ; [#uses=1 type=%"class.xf::Mat"*] [debug line = 1468:2]
  %22 = getelementptr inbounds %"class.xf::Mat"* %21, i32 0, i32 4, !dbg !11812 ; [#uses=1 type=[307200 x %struct.ap_uint]*] [debug line = 1468:2]
  %23 = getelementptr inbounds [307200 x %struct.ap_uint]* %22, i32 0, i32 0, !dbg !11812 ; [#uses=1 type=%struct.ap_uint*] [debug line = 1468:2]
  %24 = load i32* %i, align 4, !dbg !11812        ; [#uses=1 type=i32] [debug line = 1468:2]
  %25 = load %"class.xf::Mat"** %1, align 4, !dbg !11812 ; [#uses=1 type=%"class.xf::Mat"*] [debug line = 1468:2]
  %26 = getelementptr inbounds %"class.xf::Mat"* %25, i32 0, i32 2, !dbg !11812 ; [#uses=1 type=i32*] [debug line = 1468:2]
  %27 = load i32* %26, align 4, !dbg !11812       ; [#uses=1 type=i32] [debug line = 1468:2]
  %28 = ashr i32 %27, 0, !dbg !11812              ; [#uses=1 type=i32] [debug line = 1468:2]
  %29 = mul nsw i32 %24, %28, !dbg !11812         ; [#uses=1 type=i32] [debug line = 1468:2]
  %30 = getelementptr inbounds %struct.ap_uint* %23, i32 %29, !dbg !11812 ; [#uses=1 type=%struct.ap_uint*] [debug line = 1468:2]
  %31 = load i32* %j, align 4, !dbg !11812        ; [#uses=1 type=i32] [debug line = 1468:2]
  %32 = getelementptr inbounds %struct.ap_uint* %30, i32 %31, !dbg !11812 ; [#uses=1 type=%struct.ap_uint*] [debug line = 1468:2]
  call void @_ZN3hls6streamI7ap_uintILi8EEE5writeERKS2_(%"class.hls::stream"* %_src, %struct.ap_uint* %32), !dbg !11812 ; [debug line = 1468:2]
  call void (...)* @_ssdm_RegionEnd(i8* getelementptr inbounds ([12 x i8]* @.str2, i32 0, i32 0)) nounwind, !dbg !11813 ; [debug line = 1469:3]
  br label %33, !dbg !11813                       ; [debug line = 1469:3]

; <label>:33                                      ; preds = %20
  %34 = load i32* %j, align 4, !dbg !11814        ; [#uses=1 type=i32] [debug line = 1463:70]
  %35 = add nsw i32 %34, 1, !dbg !11814           ; [#uses=1 type=i32] [debug line = 1463:70]
  store i32 %35, i32* %j, align 4, !dbg !11814    ; [debug line = 1463:70]
  br label %13, !dbg !11814                       ; [debug line = 1463:70]

; <label>:36                                      ; preds = %13
  call void (...)* @_ssdm_RegionEnd(i8* getelementptr inbounds ([12 x i8]* @.str1, i32 0, i32 0)) nounwind, !dbg !11815 ; [debug line = 1470:2]
  br label %37, !dbg !11815                       ; [debug line = 1470:2]

; <label>:37                                      ; preds = %36
  %38 = load i32* %i, align 4, !dbg !11816        ; [#uses=1 type=i32] [debug line = 1460:31]
  %39 = add nsw i32 %38, 1, !dbg !11816           ; [#uses=1 type=i32] [debug line = 1460:31]
  store i32 %39, i32* %i, align 4, !dbg !11816    ; [debug line = 1460:31]
  br label %6, !dbg !11816                        ; [debug line = 1460:31]

; <label>:40                                      ; preds = %6
  %41 = load %"class.xf::Mat"** %1, align 4, !dbg !11817 ; [#uses=1 type=%"class.xf::Mat"*] [debug line = 1474:2]
  %42 = getelementptr inbounds %"class.xf::Mat"* %41, i32 0, i32 1, !dbg !11817 ; [#uses=1 type=i32*] [debug line = 1474:2]
  %43 = load i32* %42, align 4, !dbg !11817       ; [#uses=1 type=i32] [debug line = 1474:2]
  %44 = trunc i32 %43 to i16, !dbg !11817         ; [#uses=1 type=i16] [debug line = 1474:2]
  %45 = load %"class.xf::Mat"** %1, align 4, !dbg !11817 ; [#uses=1 type=%"class.xf::Mat"*] [debug line = 1474:2]
  %46 = getelementptr inbounds %"class.xf::Mat"* %45, i32 0, i32 2, !dbg !11817 ; [#uses=1 type=i32*] [debug line = 1474:2]
  %47 = load i32* %46, align 4, !dbg !11817       ; [#uses=1 type=i32] [debug line = 1474:2]
  %48 = trunc i32 %47 to i16, !dbg !11817         ; [#uses=1 type=i16] [debug line = 1474:2]
  call void @_ZN2xf13xFSobelFilterILi480ELi640ELi0ELi0ELi1ELi0ELi0EEEvRN3hls6streamIN10StreamTypeIXT4_EE4nameEEERNS2_INS3_IXT5_EE4nameEEESB_iiss(%"class.hls::stream"* %_src, %"class.hls::stream"* %_dstx, %"class.hls::stream"* %_dsty, i32 3, i32 0, i16 signext %44, i16 signext %48), !dbg !11817 ; [debug line = 1474:2]
  call void @llvm.dbg.declare(metadata !{i32* %i1}, metadata !11818), !dbg !11820 ; [debug line = 1477:10] [debug variable = i]
  store i32 0, i32* %i1, align 4, !dbg !11821     ; [debug line = 1477:13]
  br label %49, !dbg !11821                       ; [debug line = 1477:13]

; <label>:49                                      ; preds = %94, %40
  %50 = load i32* %i1, align 4, !dbg !11821       ; [#uses=1 type=i32] [debug line = 1477:13]
  %51 = load %"class.xf::Mat"** %2, align 4, !dbg !11821 ; [#uses=1 type=%"class.xf::Mat"*] [debug line = 1477:13]
  %52 = getelementptr inbounds %"class.xf::Mat"* %51, i32 0, i32 1, !dbg !11821 ; [#uses=1 type=i32*] [debug line = 1477:13]
  %53 = load i32* %52, align 4, !dbg !11821       ; [#uses=1 type=i32] [debug line = 1477:13]
  %54 = icmp slt i32 %50, %53, !dbg !11821        ; [#uses=1 type=i1] [debug line = 1477:13]
  br i1 %54, label %55, label %97, !dbg !11821    ; [debug line = 1477:13]

; <label>:55                                      ; preds = %49
  call void (...)* @_ssdm_RegionBegin(i8* getelementptr inbounds ([12 x i8]* @.str3, i32 0, i32 0)) nounwind, !dbg !11822 ; [debug line = 1478:3]
  call void (...)* @_ssdm_op_SpecLoopTripCount(i32 1, i32 480, i32 0, i8* getelementptr inbounds ([1 x i8]* @.str, i32 0, i32 0)) nounwind, !dbg !11824 ; [debug line = 1479:1]
  call void @llvm.dbg.declare(metadata !{i32* %j2}, metadata !11825), !dbg !11827 ; [debug line = 1480:10] [debug variable = j]
  store i32 0, i32* %j2, align 4, !dbg !11828     ; [debug line = 1480:13]
  br label %56, !dbg !11828                       ; [debug line = 1480:13]

; <label>:56                                      ; preds = %90, %55
  %57 = load i32* %j2, align 4, !dbg !11828       ; [#uses=1 type=i32] [debug line = 1480:13]
  %58 = load %"class.xf::Mat"** %2, align 4, !dbg !11828 ; [#uses=1 type=%"class.xf::Mat"*] [debug line = 1480:13]
  %59 = getelementptr inbounds %"class.xf::Mat"* %58, i32 0, i32 2, !dbg !11828 ; [#uses=1 type=i32*] [debug line = 1480:13]
  %60 = load i32* %59, align 4, !dbg !11828       ; [#uses=1 type=i32] [debug line = 1480:13]
  %61 = ashr i32 %60, 0, !dbg !11828              ; [#uses=1 type=i32] [debug line = 1480:13]
  %62 = icmp slt i32 %57, %61, !dbg !11828        ; [#uses=1 type=i1] [debug line = 1480:13]
  br i1 %62, label %63, label %93, !dbg !11828    ; [debug line = 1480:13]

; <label>:63                                      ; preds = %56
  call void (...)* @_ssdm_RegionBegin(i8* getelementptr inbounds ([12 x i8]* @.str4, i32 0, i32 0)) nounwind, !dbg !11829 ; [debug line = 1481:4]
  call void (...)* @_ssdm_op_SpecLoopTripCount(i32 1, i32 640, i32 0, i8* getelementptr inbounds ([1 x i8]* @.str, i32 0, i32 0)) nounwind, !dbg !11831 ; [debug line = 1482:1]
  call void (...)* @_ssdm_op_SpecPipeline(i32 -1, i32 1, i32 1, i32 0, i8* getelementptr inbounds ([1 x i8]* @.str, i32 0, i32 0)) nounwind, !dbg !11832 ; [debug line = 1483:1]
  call void (...)* @_ssdm_SpecLoopFlatten(i32 1, i8* getelementptr inbounds ([1 x i8]* @.str, i32 0, i32 0)) nounwind, !dbg !11833 ; [debug line = 1484:1]
  %64 = load %"class.xf::Mat"** %2, align 4, !dbg !11834 ; [#uses=1 type=%"class.xf::Mat"*] [debug line = 1485:2]
  %65 = getelementptr inbounds %"class.xf::Mat"* %64, i32 0, i32 4, !dbg !11834 ; [#uses=1 type=[307200 x %struct.ap_uint]*] [debug line = 1485:2]
  %66 = getelementptr inbounds [307200 x %struct.ap_uint]* %65, i32 0, i32 0, !dbg !11834 ; [#uses=1 type=%struct.ap_uint*] [debug line = 1485:2]
  %67 = load i32* %i1, align 4, !dbg !11834       ; [#uses=1 type=i32] [debug line = 1485:2]
  %68 = load %"class.xf::Mat"** %2, align 4, !dbg !11834 ; [#uses=1 type=%"class.xf::Mat"*] [debug line = 1485:2]
  %69 = getelementptr inbounds %"class.xf::Mat"* %68, i32 0, i32 2, !dbg !11834 ; [#uses=1 type=i32*] [debug line = 1485:2]
  %70 = load i32* %69, align 4, !dbg !11834       ; [#uses=1 type=i32] [debug line = 1485:2]
  %71 = ashr i32 %70, 0, !dbg !11834              ; [#uses=1 type=i32] [debug line = 1485:2]
  %72 = mul nsw i32 %67, %71, !dbg !11834         ; [#uses=1 type=i32] [debug line = 1485:2]
  %73 = getelementptr inbounds %struct.ap_uint* %66, i32 %72, !dbg !11834 ; [#uses=1 type=%struct.ap_uint*] [debug line = 1485:2]
  %74 = load i32* %j2, align 4, !dbg !11834       ; [#uses=1 type=i32] [debug line = 1485:2]
  %75 = getelementptr inbounds %struct.ap_uint* %73, i32 %74, !dbg !11834 ; [#uses=1 type=%struct.ap_uint*] [debug line = 1485:2]
  call void @_ZN3hls6streamI7ap_uintILi8EEE4readEv(%struct.ap_uint* sret %4, %"class.hls::stream"* %_dstx), !dbg !11835 ; [debug line = 1485:83]
  %76 = call %struct.ap_uint* @_ZN7ap_uintILi8EEaSERKS0_(%struct.ap_uint* %75, %struct.ap_uint* %4), !dbg !11835 ; [#uses=0 type=%struct.ap_uint*] [debug line = 1485:83]
  %77 = load %"class.xf::Mat"** %3, align 4, !dbg !11836 ; [#uses=1 type=%"class.xf::Mat"*] [debug line = 1486:4]
  %78 = getelementptr inbounds %"class.xf::Mat"* %77, i32 0, i32 4, !dbg !11836 ; [#uses=1 type=[307200 x %struct.ap_uint]*] [debug line = 1486:4]
  %79 = getelementptr inbounds [307200 x %struct.ap_uint]* %78, i32 0, i32 0, !dbg !11836 ; [#uses=1 type=%struct.ap_uint*] [debug line = 1486:4]
  %80 = load i32* %i1, align 4, !dbg !11836       ; [#uses=1 type=i32] [debug line = 1486:4]
  %81 = load %"class.xf::Mat"** %3, align 4, !dbg !11836 ; [#uses=1 type=%"class.xf::Mat"*] [debug line = 1486:4]
  %82 = getelementptr inbounds %"class.xf::Mat"* %81, i32 0, i32 2, !dbg !11836 ; [#uses=1 type=i32*] [debug line = 1486:4]
  %83 = load i32* %82, align 4, !dbg !11836       ; [#uses=1 type=i32] [debug line = 1486:4]
  %84 = ashr i32 %83, 0, !dbg !11836              ; [#uses=1 type=i32] [debug line = 1486:4]
  %85 = mul nsw i32 %80, %84, !dbg !11836         ; [#uses=1 type=i32] [debug line = 1486:4]
  %86 = getelementptr inbounds %struct.ap_uint* %79, i32 %85, !dbg !11836 ; [#uses=1 type=%struct.ap_uint*] [debug line = 1486:4]
  %87 = load i32* %j2, align 4, !dbg !11836       ; [#uses=1 type=i32] [debug line = 1486:4]
  %88 = getelementptr inbounds %struct.ap_uint* %86, i32 %87, !dbg !11836 ; [#uses=1 type=%struct.ap_uint*] [debug line = 1486:4]
  call void @_ZN3hls6streamI7ap_uintILi8EEE4readEv(%struct.ap_uint* sret %5, %"class.hls::stream"* %_dsty), !dbg !11837 ; [debug line = 1486:85]
  %89 = call %struct.ap_uint* @_ZN7ap_uintILi8EEaSERKS0_(%struct.ap_uint* %88, %struct.ap_uint* %5), !dbg !11837 ; [#uses=0 type=%struct.ap_uint*] [debug line = 1486:85]
  call void (...)* @_ssdm_RegionEnd(i8* getelementptr inbounds ([12 x i8]* @.str4, i32 0, i32 0)) nounwind, !dbg !11838 ; [debug line = 1487:3]
  br label %90, !dbg !11838                       ; [debug line = 1487:3]

; <label>:90                                      ; preds = %63
  %91 = load i32* %j2, align 4, !dbg !11839       ; [#uses=1 type=i32] [debug line = 1480:71]
  %92 = add nsw i32 %91, 1, !dbg !11839           ; [#uses=1 type=i32] [debug line = 1480:71]
  store i32 %92, i32* %j2, align 4, !dbg !11839   ; [debug line = 1480:71]
  br label %56, !dbg !11839                       ; [debug line = 1480:71]

; <label>:93                                      ; preds = %56
  call void (...)* @_ssdm_RegionEnd(i8* getelementptr inbounds ([12 x i8]* @.str3, i32 0, i32 0)) nounwind, !dbg !11840 ; [debug line = 1488:2]
  br label %94, !dbg !11840                       ; [debug line = 1488:2]

; <label>:94                                      ; preds = %93
  %95 = load i32* %i1, align 4, !dbg !11841       ; [#uses=1 type=i32] [debug line = 1477:32]
  %96 = add nsw i32 %95, 1, !dbg !11841           ; [#uses=1 type=i32] [debug line = 1477:32]
  store i32 %96, i32* %i1, align 4, !dbg !11841   ; [debug line = 1477:32]
  br label %49, !dbg !11841                       ; [debug line = 1477:32]

; <label>:97                                      ; preds = %49
  ret void, !dbg !11842                           ; [debug line = 1490:1]
}

; [#uses=3]
define internal void @_ZN3hls6streamI7ap_uintILi8EEEC1Ev(%"class.hls::stream"* %this) unnamed_addr nounwind inlinehint alwaysinline align 2 {
  %1 = alloca %"class.hls::stream"*, align 4      ; [#uses=2 type=%"class.hls::stream"**]
  store %"class.hls::stream"* %this, %"class.hls::stream"** %1, align 4
  call void @llvm.dbg.declare(metadata !{%"class.hls::stream"** %1}, metadata !11843), !dbg !11845 ; [debug line = 83:43] [debug variable = this]
  %2 = load %"class.hls::stream"** %1             ; [#uses=1 type=%"class.hls::stream"*]
  call void @_ZN3hls6streamI7ap_uintILi8EEEC2Ev(%"class.hls::stream"* %2), !dbg !11846 ; [debug line = 84:5]
  ret void, !dbg !11846                           ; [debug line = 84:5]
}

; [#uses=17]
declare void @_ssdm_InlineSelf(...) nounwind

; [#uses=1]
declare void @_ssdm_op_SpecDataflowPipeline(...) nounwind

; [#uses=26]
declare void @_ssdm_RegionBegin(...) nounwind

; [#uses=20]
declare void @_ssdm_op_SpecLoopTripCount(...) nounwind

; [#uses=2]
declare void @_ssdm_SpecLoopFlatten(...) nounwind

; [#uses=13]
declare void @_ssdm_op_SpecPipeline(...) nounwind

; [#uses=15]
define internal void @_ZN3hls6streamI7ap_uintILi8EEE5writeERKS2_(%"class.hls::stream"* %this, %struct.ap_uint* %din) nounwind inlinehint alwaysinline align 2 {
  %1 = alloca %"class.hls::stream"*, align 4      ; [#uses=2 type=%"class.hls::stream"**]
  %2 = alloca %struct.ap_uint*, align 4           ; [#uses=2 type=%struct.ap_uint**]
  %tmp = alloca %struct.ap_uint, align 1          ; [#uses=3 type=%struct.ap_uint*]
  store %"class.hls::stream"* %this, %"class.hls::stream"** %1, align 4
  call void @llvm.dbg.declare(metadata !{%"class.hls::stream"** %1}, metadata !11847), !dbg !11848 ; [debug line = 144:48] [debug variable = this]
  store %struct.ap_uint* %din, %struct.ap_uint** %2, align 4
  call void @llvm.dbg.declare(metadata !{%struct.ap_uint** %2}, metadata !11849), !dbg !11850 ; [debug line = 144:74] [debug variable = din]
  %3 = load %"class.hls::stream"** %1             ; [#uses=1 type=%"class.hls::stream"*]
  call void @llvm.dbg.declare(metadata !{%struct.ap_uint* %tmp}, metadata !11851), !dbg !11853 ; [debug line = 145:22] [debug variable = tmp]
  %4 = load %struct.ap_uint** %2, align 4, !dbg !11854 ; [#uses=2 type=%struct.ap_uint*] [debug line = 145:31]
  %5 = bitcast %struct.ap_uint* %tmp to i8*, !dbg !11854 ; [#uses=0 type=i8*] [debug line = 145:31]
  %6 = bitcast %struct.ap_uint* %4 to i8*, !dbg !11854 ; [#uses=0 type=i8*] [debug line = 145:31]
  %7 = getelementptr inbounds %struct.ap_uint* %tmp, i32 0, i32 0, !dbg !11854 ; [#uses=1 type=%struct.ap_int_base*] [debug line = 145:31]
  %8 = getelementptr inbounds %struct.ap_uint* %4, i32 0, i32 0, !dbg !11854 ; [#uses=1 type=%struct.ap_int_base*] [debug line = 145:31]
  %9 = getelementptr inbounds %struct.ap_int_base* %7, i32 0, i32 0, !dbg !11854 ; [#uses=1 type=%struct.ssdm_int*] [debug line = 145:31]
  %10 = getelementptr inbounds %struct.ap_int_base* %8, i32 0, i32 0, !dbg !11854 ; [#uses=1 type=%struct.ssdm_int*] [debug line = 145:31]
  %11 = getelementptr inbounds %struct.ssdm_int* %9, i32 0, i32 0, !dbg !11854 ; [#uses=1 type=i8*] [debug line = 145:31]
  %12 = getelementptr inbounds %struct.ssdm_int* %10, i32 0, i32 0, !dbg !11854 ; [#uses=1 type=i8*] [debug line = 145:31]
  %13 = load i8* %12, !dbg !11854                 ; [#uses=1 type=i8] [debug line = 145:31]
  store i8 %13, i8* %11, !dbg !11854              ; [debug line = 145:31]
  %14 = getelementptr inbounds %"class.hls::stream"* %3, i32 0, i32 0, !dbg !11855 ; [#uses=1 type=%struct.ap_uint*] [debug line = 146:9]
  call void (...)* @_ssdm_StreamWrite(%struct.ap_uint* %14, %struct.ap_uint* %tmp) nounwind, !dbg !11855 ; [debug line = 146:9]
  ret void, !dbg !11856                           ; [debug line = 147:5]
}

; [#uses=26]
declare void @_ssdm_RegionEnd(...) nounwind

; [#uses=1]
define internal void @_ZN2xf13xFSobelFilterILi480ELi640ELi0ELi0ELi1ELi0ELi0EEEvRN3hls6streamIN10StreamTypeIXT4_EE4nameEEERNS2_INS3_IXT5_EE4nameEEESB_iiss(%"class.hls::stream"* %_src, %"class.hls::stream"* %_gradx, %"class.hls::stream"* %_grady, i32 %_filter_width, i32 %_border_type, i16 signext %height, i16 signext %width) nounwind {
  %1 = alloca %"class.hls::stream"*, align 4      ; [#uses=4 type=%"class.hls::stream"**]
  %2 = alloca %"class.hls::stream"*, align 4      ; [#uses=4 type=%"class.hls::stream"**]
  %3 = alloca %"class.hls::stream"*, align 4      ; [#uses=4 type=%"class.hls::stream"**]
  %4 = alloca i32, align 4                        ; [#uses=7 type=i32*]
  %5 = alloca i32, align 4                        ; [#uses=2 type=i32*]
  %6 = alloca i16, align 2                        ; [#uses=5 type=i16*]
  %7 = alloca i16, align 2                        ; [#uses=7 type=i16*]
  store %"class.hls::stream"* %_src, %"class.hls::stream"** %1, align 4
  call void @llvm.dbg.declare(metadata !{%"class.hls::stream"** %1}, metadata !11857), !dbg !11858 ; [debug line = 1393:76] [debug variable = _src]
  store %"class.hls::stream"* %_gradx, %"class.hls::stream"** %2, align 4
  call void @llvm.dbg.declare(metadata !{%"class.hls::stream"** %2}, metadata !11859), !dbg !11860 ; [debug line = 1394:58] [debug variable = _gradx]
  store %"class.hls::stream"* %_grady, %"class.hls::stream"** %3, align 4
  call void @llvm.dbg.declare(metadata !{%"class.hls::stream"** %3}, metadata !11861), !dbg !11862 ; [debug line = 1395:58] [debug variable = _grady]
  store i32 %_filter_width, i32* %4, align 4
  call void @llvm.dbg.declare(metadata !{i32* %4}, metadata !11863), !dbg !11864 ; [debug line = 1396:7] [debug variable = _filter_width]
  store i32 %_border_type, i32* %5, align 4
  call void @llvm.dbg.declare(metadata !{i32* %5}, metadata !11865), !dbg !11866 ; [debug line = 1397:7] [debug variable = _border_type]
  store i16 %height, i16* %6, align 2
  call void @llvm.dbg.declare(metadata !{i16* %6}, metadata !11867), !dbg !11868 ; [debug line = 1397:30] [debug variable = height]
  store i16 %width, i16* %7, align 2
  call void @llvm.dbg.declare(metadata !{i16* %7}, metadata !11869), !dbg !11870 ; [debug line = 1397:47] [debug variable = width]
  call void (...)* @_ssdm_InlineSelf(i32 0, i8* getelementptr inbounds ([1 x i8]* @.str, i32 0, i32 0)) nounwind, !dbg !11871 ; [debug line = 1401:1]
  %8 = load i16* %7, align 2, !dbg !11873         ; [#uses=1 type=i16] [debug line = 1403:2]
  %9 = sext i16 %8 to i32, !dbg !11873            ; [#uses=1 type=i32] [debug line = 1403:2]
  %10 = ashr i32 %9, 0, !dbg !11873               ; [#uses=1 type=i32] [debug line = 1403:2]
  %11 = trunc i32 %10 to i16, !dbg !11873         ; [#uses=1 type=i16] [debug line = 1403:2]
  store i16 %11, i16* %7, align 2, !dbg !11873    ; [debug line = 1403:2]
  %12 = load i32* %4, align 4, !dbg !11874        ; [#uses=1 type=i32] [debug line = 1405:2]
  %13 = icmp eq i32 %12, 3, !dbg !11874           ; [#uses=1 type=i1] [debug line = 1405:2]
  br i1 %13, label %21, label %14, !dbg !11874    ; [debug line = 1405:2]

; <label>:14                                      ; preds = %0
  %15 = load i32* %4, align 4, !dbg !11874        ; [#uses=1 type=i32] [debug line = 1405:2]
  %16 = icmp eq i32 %15, 5, !dbg !11874           ; [#uses=1 type=i1] [debug line = 1405:2]
  br i1 %16, label %21, label %17, !dbg !11874    ; [debug line = 1405:2]

; <label>:17                                      ; preds = %14
  %18 = load i32* %4, align 4, !dbg !11874        ; [#uses=1 type=i32] [debug line = 1405:2]
  %19 = icmp eq i32 %18, 7, !dbg !11874           ; [#uses=1 type=i1] [debug line = 1405:2]
  br i1 %19, label %21, label %20, !dbg !11874    ; [debug line = 1405:2]

; <label>:20                                      ; preds = %17
  call void @_assert(i8* getelementptr inbounds ([181 x i8]* @.str5, i32 0, i32 0), i8* getelementptr inbounds ([41 x i8]* @.str6, i32 0, i32 0), i32 1406), !dbg !11875 ; [debug line = 1405:201]
  br label %21, !dbg !11875                       ; [debug line = 1405:201]

; <label>:21                                      ; preds = %20, %17, %14, %0
  %22 = phi i1 [ true, %17 ], [ true, %14 ], [ true, %0 ], [ false, %20 ] ; [#uses=0 type=i1]
  %23 = load i32* %5, align 4, !dbg !11876        ; [#uses=1 type=i32] [debug line = 1413:2]
  %24 = icmp eq i32 %23, 0, !dbg !11876           ; [#uses=1 type=i1] [debug line = 1413:2]
  br i1 %24, label %26, label %25, !dbg !11876    ; [debug line = 1413:2]

; <label>:25                                      ; preds = %21
  call void @_assert(i8* getelementptr inbounds ([82 x i8]* @.str7, i32 0, i32 0), i8* getelementptr inbounds ([41 x i8]* @.str6, i32 0, i32 0), i32 1413), !dbg !11877 ; [debug line = 1413:102]
  br label %26, !dbg !11877                       ; [debug line = 1413:102]

; <label>:26                                      ; preds = %25, %21
  %27 = phi i1 [ true, %21 ], [ false, %25 ]      ; [#uses=0 type=i1]
  %28 = load i16* %6, align 2, !dbg !11878        ; [#uses=1 type=i16] [debug line = 1415:2]
  %29 = sext i16 %28 to i32, !dbg !11878          ; [#uses=1 type=i32] [debug line = 1415:2]
  %30 = icmp sle i32 %29, 480, !dbg !11878        ; [#uses=1 type=i1] [debug line = 1415:2]
  br i1 %30, label %31, label %35, !dbg !11878    ; [debug line = 1415:2]

; <label>:31                                      ; preds = %26
  %32 = load i16* %7, align 2, !dbg !11878        ; [#uses=1 type=i16] [debug line = 1415:2]
  %33 = sext i16 %32 to i32, !dbg !11878          ; [#uses=1 type=i32] [debug line = 1415:2]
  %34 = icmp sle i32 %33, 640, !dbg !11878        ; [#uses=1 type=i1] [debug line = 1415:2]
  br i1 %34, label %36, label %35, !dbg !11878    ; [debug line = 1415:2]

; <label>:35                                      ; preds = %31, %26
  call void @_assert(i8* getelementptr inbounds ([93 x i8]* @.str8, i32 0, i32 0), i8* getelementptr inbounds ([41 x i8]* @.str6, i32 0, i32 0), i32 1415), !dbg !11879 ; [debug line = 1415:113]
  br label %36, !dbg !11879                       ; [debug line = 1415:113]

; <label>:36                                      ; preds = %35, %31
  %37 = phi i1 [ true, %31 ], [ false, %35 ]      ; [#uses=0 type=i1]
  %38 = load i32* %4, align 4, !dbg !11880        ; [#uses=1 type=i32] [debug line = 1420:2]
  %39 = icmp eq i32 %38, 3, !dbg !11880           ; [#uses=1 type=i1] [debug line = 1420:2]
  br i1 %39, label %40, label %46, !dbg !11880    ; [debug line = 1420:2]

; <label>:40                                      ; preds = %36
  %41 = load %"class.hls::stream"** %1, align 4, !dbg !11881 ; [#uses=1 type=%"class.hls::stream"*] [debug line = 1422:3]
  %42 = load %"class.hls::stream"** %2, align 4, !dbg !11881 ; [#uses=1 type=%"class.hls::stream"*] [debug line = 1422:3]
  %43 = load %"class.hls::stream"** %3, align 4, !dbg !11881 ; [#uses=1 type=%"class.hls::stream"*] [debug line = 1422:3]
  %44 = load i16* %6, align 2, !dbg !11881        ; [#uses=1 type=i16] [debug line = 1422:3]
  %45 = load i16* %7, align 2, !dbg !11881        ; [#uses=1 type=i16] [debug line = 1422:3]
  call void @_ZN2xf16xFSobelFilter3x3ILi480ELi640ELi0ELi0ELi1ELi0ELi0ELi640EEEvRN3hls6streamIN10StreamTypeIXT4_EE4nameEEERNS2_INS3_IXT5_EE4nameEEESB_tt(%"class.hls::stream"* %41, %"class.hls::stream"* %42, %"class.hls::stream"* %43, i16 zeroext %44, i16 zeroext %45), !dbg !11881 ; [debug line = 1422:3]
  br label %66, !dbg !11883                       ; [debug line = 1424:2]

; <label>:46                                      ; preds = %36
  %47 = load i32* %4, align 4, !dbg !11884        ; [#uses=1 type=i32] [debug line = 1426:7]
  %48 = icmp eq i32 %47, 5, !dbg !11884           ; [#uses=1 type=i1] [debug line = 1426:7]
  br i1 %48, label %49, label %55, !dbg !11884    ; [debug line = 1426:7]

; <label>:49                                      ; preds = %46
  %50 = load %"class.hls::stream"** %1, align 4, !dbg !11885 ; [#uses=1 type=%"class.hls::stream"*] [debug line = 1428:3]
  %51 = load %"class.hls::stream"** %2, align 4, !dbg !11885 ; [#uses=1 type=%"class.hls::stream"*] [debug line = 1428:3]
  %52 = load %"class.hls::stream"** %3, align 4, !dbg !11885 ; [#uses=1 type=%"class.hls::stream"*] [debug line = 1428:3]
  %53 = load i16* %6, align 2, !dbg !11885        ; [#uses=1 type=i16] [debug line = 1428:3]
  %54 = load i16* %7, align 2, !dbg !11885        ; [#uses=1 type=i16] [debug line = 1428:3]
  call void @_ZN2xf16xFSobelFilter5x5ILi480ELi640ELi0ELi0ELi1ELi0ELi0ELi640EEEvRN3hls6streamIN10StreamTypeIXT4_EE4nameEEERNS2_INS3_IXT5_EE4nameEEESB_tt(%"class.hls::stream"* %50, %"class.hls::stream"* %51, %"class.hls::stream"* %52, i16 zeroext %53, i16 zeroext %54), !dbg !11885 ; [debug line = 1428:3]
  br label %65, !dbg !11887                       ; [debug line = 1430:2]

; <label>:55                                      ; preds = %46
  %56 = load i32* %4, align 4, !dbg !11888        ; [#uses=1 type=i32] [debug line = 1432:7]
  %57 = icmp eq i32 %56, 7, !dbg !11888           ; [#uses=1 type=i1] [debug line = 1432:7]
  br i1 %57, label %58, label %64, !dbg !11888    ; [debug line = 1432:7]

; <label>:58                                      ; preds = %55
  %59 = load %"class.hls::stream"** %1, align 4, !dbg !11889 ; [#uses=1 type=%"class.hls::stream"*] [debug line = 1434:3]
  %60 = load %"class.hls::stream"** %2, align 4, !dbg !11889 ; [#uses=1 type=%"class.hls::stream"*] [debug line = 1434:3]
  %61 = load %"class.hls::stream"** %3, align 4, !dbg !11889 ; [#uses=1 type=%"class.hls::stream"*] [debug line = 1434:3]
  %62 = load i16* %6, align 2, !dbg !11889        ; [#uses=1 type=i16] [debug line = 1434:3]
  %63 = load i16* %7, align 2, !dbg !11889        ; [#uses=1 type=i16] [debug line = 1434:3]
  call void @_ZN2xf16xFSobelFilter7x7ILi480ELi640ELi0ELi0ELi1ELi0ELi0ELi640EEEvRN3hls6streamIN10StreamTypeIXT4_EE4nameEEERNS2_INS3_IXT5_EE4nameEEESB_tt(%"class.hls::stream"* %59, %"class.hls::stream"* %60, %"class.hls::stream"* %61, i16 zeroext %62, i16 zeroext %63), !dbg !11889 ; [debug line = 1434:3]
  br label %64, !dbg !11891                       ; [debug line = 1436:2]

; <label>:64                                      ; preds = %58, %55
  br label %65

; <label>:65                                      ; preds = %64, %49
  br label %66

; <label>:66                                      ; preds = %65, %40
  ret void, !dbg !11892                           ; [debug line = 1438:1]
}

; [#uses=172]
define internal %struct.ap_uint* @_ZN7ap_uintILi8EEaSERKS0_(%struct.ap_uint* %this, %struct.ap_uint* %op2) nounwind inlinehint alwaysinline align 2 {
  %1 = alloca %struct.ap_uint*, align 4           ; [#uses=2 type=%struct.ap_uint**]
  %2 = alloca %struct.ap_uint*, align 4           ; [#uses=2 type=%struct.ap_uint**]
  store %struct.ap_uint* %this, %struct.ap_uint** %1, align 4
  call void @llvm.dbg.declare(metadata !{%struct.ap_uint** %1}, metadata !11893), !dbg !11895 ; [debug line = 280:50] [debug variable = this]
  store %struct.ap_uint* %op2, %struct.ap_uint** %2, align 4
  call void @llvm.dbg.declare(metadata !{%struct.ap_uint** %2}, metadata !11896), !dbg !11897 ; [debug line = 280:84] [debug variable = op2]
  %3 = load %struct.ap_uint** %1                  ; [#uses=2 type=%struct.ap_uint*]
  %4 = load %struct.ap_uint** %2, align 4, !dbg !11898 ; [#uses=1 type=%struct.ap_uint*] [debug line = 281:5]
  %5 = bitcast %struct.ap_uint* %4 to %struct.ssdm_int*, !dbg !11898 ; [#uses=1 type=%struct.ssdm_int*] [debug line = 281:5]
  %6 = getelementptr inbounds %struct.ssdm_int* %5, i32 0, i32 0, !dbg !11898 ; [#uses=1 type=i8*] [debug line = 281:5]
  %7 = load i8* %6, align 1, !dbg !11898          ; [#uses=1 type=i8] [debug line = 281:5]
  %8 = bitcast %struct.ap_uint* %3 to %struct.ap_int_base*, !dbg !11898 ; [#uses=1 type=%struct.ap_int_base*] [debug line = 281:5]
  %9 = bitcast %struct.ap_int_base* %8 to %struct.ssdm_int*, !dbg !11898 ; [#uses=1 type=%struct.ssdm_int*] [debug line = 281:5]
  %10 = getelementptr inbounds %struct.ssdm_int* %9, i32 0, i32 0, !dbg !11898 ; [#uses=1 type=i8*] [debug line = 281:5]
  store i8 %7, i8* %10, align 1, !dbg !11898      ; [debug line = 281:5]
  ret %struct.ap_uint* %3, !dbg !11900            ; [debug line = 282:5]
}

; [#uses=11]
define internal void @_ZN3hls6streamI7ap_uintILi8EEE4readEv(%struct.ap_uint* noalias sret %agg.result, %"class.hls::stream"* %this) nounwind inlinehint alwaysinline align 2 {
  %1 = alloca %"class.hls::stream"*, align 4      ; [#uses=2 type=%"class.hls::stream"**]
  store %"class.hls::stream"* %this, %"class.hls::stream"** %1, align 4
  call void @llvm.dbg.declare(metadata !{%"class.hls::stream"** %1}, metadata !11901), !dbg !11902 ; [debug line = 129:56] [debug variable = this]
  %2 = load %"class.hls::stream"** %1             ; [#uses=1 type=%"class.hls::stream"*]
  call void @llvm.dbg.declare(metadata !{%struct.ap_uint* %agg.result}, metadata !11903), !dbg !11905 ; [debug line = 130:22] [debug variable = tmp]
  call void @_ZN7ap_uintILi8EEC1Ev(%struct.ap_uint* %agg.result), !dbg !11906 ; [debug line = 130:25]
  %3 = getelementptr inbounds %"class.hls::stream"* %2, i32 0, i32 0, !dbg !11907 ; [#uses=1 type=%struct.ap_uint*] [debug line = 131:9]
  call void (...)* @_ssdm_StreamRead(%struct.ap_uint* %3, %struct.ap_uint* %agg.result) nounwind, !dbg !11907 ; [debug line = 131:9]
  ret void, !dbg !11908                           ; [debug line = 132:9]
}

; [#uses=49]
define internal void @_ZN7ap_uintILi8EEC1Ev(%struct.ap_uint* %this) unnamed_addr nounwind inlinehint alwaysinline align 2 {
  %1 = alloca %struct.ap_uint*, align 4           ; [#uses=2 type=%struct.ap_uint**]
  store %struct.ap_uint* %this, %struct.ap_uint** %1, align 4
  call void @llvm.dbg.declare(metadata !{%struct.ap_uint** %1}, metadata !11909), !dbg !11910 ; [debug line = 186:41] [debug variable = this]
  %2 = load %struct.ap_uint** %1                  ; [#uses=1 type=%struct.ap_uint*]
  call void @_ZN7ap_uintILi8EEC2Ev(%struct.ap_uint* %2), !dbg !11911 ; [debug line = 186:60]
  ret void, !dbg !11911                           ; [debug line = 186:60]
}

; [#uses=1]
declare void @_ssdm_StreamRead(...) nounwind

; [#uses=1]
define internal void @_ZN7ap_uintILi8EEC2Ev(%struct.ap_uint* %this) unnamed_addr nounwind inlinehint alwaysinline align 2 {
  %1 = alloca %struct.ap_uint*, align 4           ; [#uses=2 type=%struct.ap_uint**]
  store %struct.ap_uint* %this, %struct.ap_uint** %1, align 4
  call void @llvm.dbg.declare(metadata !{%struct.ap_uint** %1}, metadata !11912), !dbg !11913 ; [debug line = 186:41] [debug variable = this]
  %2 = load %struct.ap_uint** %1                  ; [#uses=1 type=%struct.ap_uint*]
  %3 = bitcast %struct.ap_uint* %2 to %struct.ap_int_base*, !dbg !11914 ; [#uses=1 type=%struct.ap_int_base*] [debug line = 186:59]
  call void @_ZN11ap_int_baseILi8ELb0ELb1EEC2Ev(%struct.ap_int_base* %3), !dbg !11914 ; [debug line = 186:59]
  ret void, !dbg !11915                           ; [debug line = 186:60]
}

; [#uses=5]
define internal void @_ZN11ap_int_baseILi8ELb0ELb1EEC2Ev(%struct.ap_int_base* %this) unnamed_addr nounwind inlinehint alwaysinline align 2 {
  %1 = alloca %struct.ap_int_base*, align 4       ; [#uses=2 type=%struct.ap_int_base**]
  store %struct.ap_int_base* %this, %struct.ap_int_base** %1, align 4
  call void @llvm.dbg.declare(metadata !{%struct.ap_int_base** %1}, metadata !11917), !dbg !11918 ; [debug line = 1494:41] [debug variable = this]
  %2 = load %struct.ap_int_base** %1              ; [#uses=1 type=%struct.ap_int_base*]
  %3 = bitcast %struct.ap_int_base* %2 to %struct.ssdm_int*, !dbg !11919 ; [#uses=1 type=%struct.ssdm_int*] [debug line = 1494:55]
  call void @_ZN8ssdm_intILi8ELb0EEC2Ev(%struct.ssdm_int* %3), !dbg !11919 ; [debug line = 1494:55]
  ret void, !dbg !11920                           ; [debug line = 1500:3]
}

; [#uses=1]
define internal void @_ZN8ssdm_intILi8ELb0EEC2Ev(%struct.ssdm_int* %this) unnamed_addr nounwind inlinehint alwaysinline align 2 {
  %1 = alloca %struct.ssdm_int*, align 4          ; [#uses=2 type=%struct.ssdm_int**]
  store %struct.ssdm_int* %this, %struct.ssdm_int** %1, align 4
  call void @llvm.dbg.declare(metadata !{%struct.ssdm_int** %1}, metadata !11922), !dbg !11924 ; [debug line = 10:0] [debug variable = this]
  %2 = load %struct.ssdm_int** %1                 ; [#uses=0 type=%struct.ssdm_int*]
  ret void, !dbg !11925                           ; [debug line = 10:0]
}

; [#uses=3]
declare void @_assert(i8*, i8*, i32)

; [#uses=1]
define internal void @_ZN2xf16xFSobelFilter3x3ILi480ELi640ELi0ELi0ELi1ELi0ELi0ELi640EEEvRN3hls6streamIN10StreamTypeIXT4_EE4nameEEERNS2_INS3_IXT5_EE4nameEEESB_tt(%"class.hls::stream"* %_src_mat, %"class.hls::stream"* %_gradx_mat, %"class.hls::stream"* %_grady_mat, i16 zeroext %img_height, i16 zeroext %img_width) nounwind {
  %1 = alloca %"class.hls::stream"*, align 4      ; [#uses=3 type=%"class.hls::stream"**]
  %2 = alloca %"class.hls::stream"*, align 4      ; [#uses=3 type=%"class.hls::stream"**]
  %3 = alloca %"class.hls::stream"*, align 4      ; [#uses=3 type=%"class.hls::stream"**]
  %4 = alloca i16, align 2                        ; [#uses=3 type=i16*]
  %5 = alloca i16, align 2                        ; [#uses=3 type=i16*]
  %row_ind = alloca %struct.ap_uint.9, align 2    ; [#uses=12 type=%struct.ap_uint.9*]
  %tp = alloca %struct.ap_uint.55, align 1        ; [#uses=6 type=%struct.ap_uint.55*]
  %mid = alloca %struct.ap_uint.55, align 1       ; [#uses=6 type=%struct.ap_uint.55*]
  %bottom = alloca %struct.ap_uint.55, align 1    ; [#uses=6 type=%struct.ap_uint.55*]
  %buf_size = alloca %struct.ap_uint, align 1     ; [#uses=13 type=%struct.ap_uint*]
  %shift_x = alloca i16, align 2                  ; [#uses=4 type=i16*]
  %shift_y = alloca i16, align 2                  ; [#uses=4 type=i16*]
  %row = alloca %struct.ap_uint.9, align 2        ; [#uses=6 type=%struct.ap_uint.9*]
  %col = alloca %struct.ap_uint.9, align 2        ; [#uses=6 type=%struct.ap_uint.9*]
  %GradientValuesX = alloca [1 x %struct.ap_uint], align 1 ; [#uses=6 type=[1 x %struct.ap_uint]*]
  %GradientValuesY = alloca [1 x %struct.ap_uint], align 1 ; [#uses=6 type=[1 x %struct.ap_uint]*]
  %src_buf1 = alloca [3 x %struct.ap_uint], align 1 ; [#uses=10 type=[3 x %struct.ap_uint]*]
  %src_buf2 = alloca [3 x %struct.ap_uint], align 1 ; [#uses=10 type=[3 x %struct.ap_uint]*]
  %src_buf3 = alloca [3 x %struct.ap_uint], align 1 ; [#uses=10 type=[3 x %struct.ap_uint]*]
  %P0 = alloca %struct.ap_uint, align 1           ; [#uses=6 type=%struct.ap_uint*]
  %P1 = alloca %struct.ap_uint, align 1           ; [#uses=6 type=%struct.ap_uint*]
  %buf = alloca [3 x [640 x %struct.ap_uint]], align 1 ; [#uses=7 type=[3 x [640 x %struct.ap_uint]]*]
  %6 = alloca %struct.ap_uint.9, align 2          ; [#uses=2 type=%struct.ap_uint.9*]
  %7 = alloca %struct.ap_uint.9, align 2          ; [#uses=2 type=%struct.ap_uint.9*]
  %8 = alloca %struct.ap_uint, align 1            ; [#uses=2 type=%struct.ap_uint*]
  %9 = alloca %struct.ap_uint, align 1            ; [#uses=2 type=%struct.ap_uint*]
  %10 = alloca %struct.ap_int_base.10, align 2    ; [#uses=1 type=%struct.ap_int_base.10*]
  %11 = alloca %struct.ap_int_base.10, align 2    ; [#uses=1 type=%struct.ap_int_base.10*]
  %12 = alloca %struct.ap_uint.9, align 2         ; [#uses=2 type=%struct.ap_uint.9*]
  %13 = alloca %struct.ap_uint.55, align 1        ; [#uses=2 type=%struct.ap_uint.55*]
  %14 = alloca %struct.ap_uint.55, align 1        ; [#uses=2 type=%struct.ap_uint.55*]
  %15 = alloca %struct.ap_uint.55, align 1        ; [#uses=2 type=%struct.ap_uint.55*]
  %16 = alloca %struct.ap_uint.55, align 1        ; [#uses=2 type=%struct.ap_uint.55*]
  %17 = alloca %struct.ap_uint.55, align 1        ; [#uses=2 type=%struct.ap_uint.55*]
  %18 = alloca %struct.ap_uint.55, align 1        ; [#uses=2 type=%struct.ap_uint.55*]
  %19 = alloca %struct.ap_uint.55, align 1        ; [#uses=2 type=%struct.ap_uint.55*]
  %20 = alloca %struct.ap_uint.55, align 1        ; [#uses=2 type=%struct.ap_uint.55*]
  %21 = alloca %struct.ap_uint.55, align 1        ; [#uses=2 type=%struct.ap_uint.55*]
  %22 = alloca %struct.ap_uint, align 1           ; [#uses=2 type=%struct.ap_uint*]
  %23 = alloca %struct.ap_uint, align 1           ; [#uses=2 type=%struct.ap_uint*]
  %24 = alloca %struct.ap_uint, align 1           ; [#uses=2 type=%struct.ap_uint*]
  %25 = alloca %struct.ap_uint, align 1           ; [#uses=2 type=%struct.ap_uint*]
  %26 = alloca %struct.ap_uint.9, align 2         ; [#uses=3 type=%struct.ap_uint.9*]
  %27 = alloca %struct.ap_uint.55, align 1        ; [#uses=3 type=%struct.ap_uint.55*]
  %28 = alloca %struct.ap_uint.55, align 1        ; [#uses=3 type=%struct.ap_uint.55*]
  %29 = alloca %struct.ap_uint.55, align 1        ; [#uses=3 type=%struct.ap_uint.55*]
  %30 = alloca %struct.ap_uint.9, align 2         ; [#uses=3 type=%struct.ap_uint.9*]
  %31 = alloca %struct.ap_uint, align 1           ; [#uses=2 type=%struct.ap_uint*]
  %32 = alloca %struct.ap_uint, align 1           ; [#uses=3 type=%struct.ap_uint*]
  %33 = alloca %struct.ap_int_base.21, align 8    ; [#uses=2 type=%struct.ap_int_base.21*]
  %34 = alloca %struct.ap_uint, align 1           ; [#uses=3 type=%struct.ap_uint*]
  %35 = alloca %struct.ap_int_base.21, align 8    ; [#uses=2 type=%struct.ap_int_base.21*]
  %36 = alloca %struct.ap_uint, align 1           ; [#uses=2 type=%struct.ap_uint*]
  %37 = alloca %struct.ap_uint, align 1           ; [#uses=3 type=%struct.ap_uint*]
  %38 = alloca %struct.ap_int_base.21, align 8    ; [#uses=2 type=%struct.ap_int_base.21*]
  %39 = alloca %struct.ap_uint, align 1           ; [#uses=3 type=%struct.ap_uint*]
  %40 = alloca %struct.ap_int_base.21, align 8    ; [#uses=2 type=%struct.ap_int_base.21*]
  %41 = alloca %struct.ap_uint, align 1           ; [#uses=2 type=%struct.ap_uint*]
  %42 = alloca %struct.ap_uint, align 1           ; [#uses=3 type=%struct.ap_uint*]
  %43 = alloca %struct.ap_int_base.21, align 8    ; [#uses=2 type=%struct.ap_int_base.21*]
  %44 = alloca %struct.ap_uint, align 1           ; [#uses=3 type=%struct.ap_uint*]
  %45 = alloca %struct.ap_int_base.21, align 8    ; [#uses=2 type=%struct.ap_int_base.21*]
  %46 = alloca %struct.ap_uint, align 1           ; [#uses=2 type=%struct.ap_uint*]
  %47 = alloca %struct.ap_uint, align 1           ; [#uses=2 type=%struct.ap_uint*]
  %48 = alloca %struct.ap_uint, align 1           ; [#uses=3 type=%struct.ap_uint*]
  %49 = alloca %struct.ap_int_base.21, align 8    ; [#uses=2 type=%struct.ap_int_base.21*]
  %50 = alloca %struct.ap_uint, align 1           ; [#uses=3 type=%struct.ap_uint*]
  %51 = alloca %struct.ap_int_base.21, align 8    ; [#uses=2 type=%struct.ap_int_base.21*]
  %52 = alloca %struct.ap_uint, align 1           ; [#uses=2 type=%struct.ap_uint*]
  %53 = alloca %struct.ap_uint, align 1           ; [#uses=3 type=%struct.ap_uint*]
  %54 = alloca %struct.ap_int_base.21, align 8    ; [#uses=2 type=%struct.ap_int_base.21*]
  %55 = alloca %struct.ap_uint, align 1           ; [#uses=3 type=%struct.ap_uint*]
  %56 = alloca %struct.ap_int_base.21, align 8    ; [#uses=2 type=%struct.ap_int_base.21*]
  %57 = alloca %struct.ap_uint, align 1           ; [#uses=2 type=%struct.ap_uint*]
  %58 = alloca %struct.ap_uint, align 1           ; [#uses=3 type=%struct.ap_uint*]
  %59 = alloca %struct.ap_int_base.21, align 8    ; [#uses=2 type=%struct.ap_int_base.21*]
  %60 = alloca %struct.ap_uint, align 1           ; [#uses=3 type=%struct.ap_uint*]
  %61 = alloca %struct.ap_int_base.21, align 8    ; [#uses=2 type=%struct.ap_int_base.21*]
  %62 = alloca %struct.ap_uint, align 1           ; [#uses=2 type=%struct.ap_uint*]
  %63 = alloca %struct.ap_uint, align 1           ; [#uses=2 type=%struct.ap_uint*]
  %64 = alloca %struct.ap_uint, align 1           ; [#uses=2 type=%struct.ap_uint*]
  %65 = alloca %struct.ap_int_base.10, align 2    ; [#uses=1 type=%struct.ap_int_base.10*]
  %66 = alloca %struct.ap_uint.9, align 2         ; [#uses=2 type=%struct.ap_uint.9*]
  %67 = alloca %struct.ap_int_base.10, align 2    ; [#uses=1 type=%struct.ap_int_base.10*]
  store %"class.hls::stream"* %_src_mat, %"class.hls::stream"** %1, align 4
  call void @llvm.dbg.declare(metadata !{%"class.hls::stream"** %1}, metadata !11927), !dbg !11928 ; [debug line = 262:80] [debug variable = _src_mat]
  store %"class.hls::stream"* %_gradx_mat, %"class.hls::stream"** %2, align 4
  call void @llvm.dbg.declare(metadata !{%"class.hls::stream"** %2}, metadata !11929), !dbg !11930 ; [debug line = 263:60] [debug variable = _gradx_mat]
  store %"class.hls::stream"* %_grady_mat, %"class.hls::stream"** %3, align 4
  call void @llvm.dbg.declare(metadata !{%"class.hls::stream"** %3}, metadata !11931), !dbg !11932 ; [debug line = 264:60] [debug variable = _grady_mat]
  store i16 %img_height, i16* %4, align 2
  call void @llvm.dbg.declare(metadata !{i16* %4}, metadata !11933), !dbg !11934 ; [debug line = 264:81] [debug variable = img_height]
  store i16 %img_width, i16* %5, align 2
  call void @llvm.dbg.declare(metadata !{i16* %5}, metadata !11935), !dbg !11936 ; [debug line = 264:102] [debug variable = img_width]
  call void @llvm.dbg.declare(metadata !{%struct.ap_uint.9* %row_ind}, metadata !11937), !dbg !11939 ; [debug line = 266:14] [debug variable = row_ind]
  call void @_ZN7ap_uintILi13EEC1Ev(%struct.ap_uint.9* %row_ind), !dbg !11940 ; [debug line = 266:21]
  call void @llvm.dbg.declare(metadata !{%struct.ap_uint.55* %tp}, metadata !11941), !dbg !11942 ; [debug line = 267:13] [debug variable = tp]
  call void @_ZN7ap_uintILi2EEC1Ev(%struct.ap_uint.55* %tp), !dbg !11943 ; [debug line = 267:28]
  call void @llvm.dbg.declare(metadata !{%struct.ap_uint.55* %mid}, metadata !11944), !dbg !11945 ; [debug line = 267:17] [debug variable = mid]
  call void @_ZN7ap_uintILi2EEC1Ev(%struct.ap_uint.55* %mid), !dbg !11943 ; [debug line = 267:28]
  call void @llvm.dbg.declare(metadata !{%struct.ap_uint.55* %bottom}, metadata !11946), !dbg !11947 ; [debug line = 267:22] [debug variable = bottom]
  call void @_ZN7ap_uintILi2EEC1Ev(%struct.ap_uint.55* %bottom), !dbg !11943 ; [debug line = 267:28]
  call void @llvm.dbg.declare(metadata !{%struct.ap_uint* %buf_size}, metadata !11948), !dbg !11949 ; [debug line = 268:13] [debug variable = buf_size]
  call void @_ZN7ap_uintILi8EEC1Ei(%struct.ap_uint* %buf_size, i32 3), !dbg !11950 ; [debug line = 268:56]
  call void @llvm.dbg.declare(metadata !{i16* %shift_x}, metadata !11951), !dbg !11952 ; [debug line = 269:11] [debug variable = shift_x]
  store i16 0, i16* %shift_x, align 2, !dbg !11953 ; [debug line = 269:35]
  call void @llvm.dbg.declare(metadata !{i16* %shift_y}, metadata !11954), !dbg !11955 ; [debug line = 269:24] [debug variable = shift_y]
  store i16 0, i16* %shift_y, align 2, !dbg !11953 ; [debug line = 269:35]
  call void @llvm.dbg.declare(metadata !{%struct.ap_uint.9* %row}, metadata !11956), !dbg !11957 ; [debug line = 270:14] [debug variable = row]
  call void @_ZN7ap_uintILi13EEC1Ev(%struct.ap_uint.9* %row), !dbg !11958 ; [debug line = 270:22]
  call void @llvm.dbg.declare(metadata !{%struct.ap_uint.9* %col}, metadata !11959), !dbg !11960 ; [debug line = 270:19] [debug variable = col]
  call void @_ZN7ap_uintILi13EEC1Ev(%struct.ap_uint.9* %col), !dbg !11958 ; [debug line = 270:22]
  call void @llvm.dbg.declare(metadata !{[1 x %struct.ap_uint]* %GradientValuesX}, metadata !11961), !dbg !11965 ; [debug line = 273:2] [debug variable = GradientValuesX]
  %68 = getelementptr inbounds [1 x %struct.ap_uint]* %GradientValuesX, i32 0, i32 0, !dbg !11966 ; [#uses=0 type=%struct.ap_uint*] [debug line = 273:47]
  br label %arrayctor.loop

arrayctor.loop:                                   ; preds = %arrayctor.loop, %0
  %69 = phi i32 [ 0, %0 ], [ %70, %arrayctor.loop ], !dbg !11966 ; [#uses=3 type=i32] [debug line = 273:47]
  %70 = add i32 %69, 1, !dbg !11966               ; [#uses=1 type=i32] [debug line = 273:47]
  %71 = getelementptr inbounds [1 x %struct.ap_uint]* %GradientValuesX, i32 0, i32 %69, !dbg !11966 ; [#uses=1 type=%struct.ap_uint*] [debug line = 273:47]
  call void @_ZN7ap_uintILi8EEC1Ev(%struct.ap_uint* %71), !dbg !11966 ; [debug line = 273:47]
  %72 = icmp eq i32 %69, 0, !dbg !11966           ; [#uses=1 type=i1] [debug line = 273:47]
  br i1 %72, label %73, label %arrayctor.loop, !dbg !11966 ; [debug line = 273:47]

; <label>:73                                      ; preds = %arrayctor.loop
  br label %74, !dbg !11966                       ; [debug line = 273:47]

; <label>:74                                      ; preds = %73
  call void @llvm.dbg.declare(metadata !{[1 x %struct.ap_uint]* %GradientValuesY}, metadata !11967), !dbg !11968 ; [debug line = 274:38] [debug variable = GradientValuesY]
  %75 = getelementptr inbounds [1 x %struct.ap_uint]* %GradientValuesY, i32 0, i32 0, !dbg !11969 ; [#uses=0 type=%struct.ap_uint*] [debug line = 274:83]
  br label %arrayctor.loop1

arrayctor.loop1:                                  ; preds = %arrayctor.loop1, %74
  %76 = phi i32 [ 0, %74 ], [ %77, %arrayctor.loop1 ], !dbg !11969 ; [#uses=3 type=i32] [debug line = 274:83]
  %77 = add i32 %76, 1, !dbg !11969               ; [#uses=1 type=i32] [debug line = 274:83]
  %78 = getelementptr inbounds [1 x %struct.ap_uint]* %GradientValuesY, i32 0, i32 %76, !dbg !11969 ; [#uses=1 type=%struct.ap_uint*] [debug line = 274:83]
  call void @_ZN7ap_uintILi8EEC1Ev(%struct.ap_uint* %78), !dbg !11969 ; [debug line = 274:83]
  %79 = icmp eq i32 %76, 0, !dbg !11969           ; [#uses=1 type=i1] [debug line = 274:83]
  br i1 %79, label %80, label %arrayctor.loop1, !dbg !11969 ; [debug line = 274:83]

; <label>:80                                      ; preds = %arrayctor.loop1
  br label %81, !dbg !11969                       ; [debug line = 274:83]

; <label>:81                                      ; preds = %80
  %82 = getelementptr inbounds [1 x %struct.ap_uint]* %GradientValuesX, i32 0, i32 0, !dbg !11970 ; [#uses=1 type=%struct.ap_uint*] [debug line = 275:1]
  call void (...)* @_ssdm_SpecArrayPartition(%struct.ap_uint* %82, i32 1, i8* getelementptr inbounds ([9 x i8]* @.str9, i32 0, i32 0), i32 0, i8* getelementptr inbounds ([1 x i8]* @.str, i32 0, i32 0)) nounwind, !dbg !11970 ; [debug line = 275:1]
  %83 = getelementptr inbounds [1 x %struct.ap_uint]* %GradientValuesY, i32 0, i32 0, !dbg !11971 ; [#uses=1 type=%struct.ap_uint*] [debug line = 276:1]
  call void (...)* @_ssdm_SpecArrayPartition(%struct.ap_uint* %83, i32 1, i8* getelementptr inbounds ([9 x i8]* @.str9, i32 0, i32 0), i32 0, i8* getelementptr inbounds ([1 x i8]* @.str, i32 0, i32 0)) nounwind, !dbg !11971 ; [debug line = 276:1]
  call void @llvm.dbg.declare(metadata !{[3 x %struct.ap_uint]* %src_buf1}, metadata !11972), !dbg !11976 ; [debug line = 278:38] [debug variable = src_buf1]
  %84 = getelementptr inbounds [3 x %struct.ap_uint]* %src_buf1, i32 0, i32 0, !dbg !11977 ; [#uses=0 type=%struct.ap_uint*] [debug line = 279:44]
  br label %arrayctor.loop2

arrayctor.loop2:                                  ; preds = %arrayctor.loop2, %81
  %85 = phi i32 [ 0, %81 ], [ %86, %arrayctor.loop2 ], !dbg !11977 ; [#uses=3 type=i32] [debug line = 279:44]
  %86 = add i32 %85, 1, !dbg !11977               ; [#uses=1 type=i32] [debug line = 279:44]
  %87 = getelementptr inbounds [3 x %struct.ap_uint]* %src_buf1, i32 0, i32 %85, !dbg !11977 ; [#uses=1 type=%struct.ap_uint*] [debug line = 279:44]
  call void @_ZN7ap_uintILi8EEC1Ev(%struct.ap_uint* %87), !dbg !11977 ; [debug line = 279:44]
  %88 = icmp eq i32 %85, 2, !dbg !11977           ; [#uses=1 type=i1] [debug line = 279:44]
  br i1 %88, label %89, label %arrayctor.loop2, !dbg !11977 ; [debug line = 279:44]

; <label>:89                                      ; preds = %arrayctor.loop2
  br label %90, !dbg !11977                       ; [debug line = 279:44]

; <label>:90                                      ; preds = %89
  call void @llvm.dbg.declare(metadata !{[3 x %struct.ap_uint]* %src_buf2}, metadata !11978), !dbg !11979 ; [debug line = 278:80] [debug variable = src_buf2]
  %91 = getelementptr inbounds [3 x %struct.ap_uint]* %src_buf2, i32 0, i32 0, !dbg !11977 ; [#uses=0 type=%struct.ap_uint*] [debug line = 279:44]
  br label %arrayctor.loop3

arrayctor.loop3:                                  ; preds = %arrayctor.loop3, %90
  %92 = phi i32 [ 0, %90 ], [ %93, %arrayctor.loop3 ], !dbg !11977 ; [#uses=3 type=i32] [debug line = 279:44]
  %93 = add i32 %92, 1, !dbg !11977               ; [#uses=1 type=i32] [debug line = 279:44]
  %94 = getelementptr inbounds [3 x %struct.ap_uint]* %src_buf2, i32 0, i32 %92, !dbg !11977 ; [#uses=1 type=%struct.ap_uint*] [debug line = 279:44]
  call void @_ZN7ap_uintILi8EEC1Ev(%struct.ap_uint* %94), !dbg !11977 ; [debug line = 279:44]
  %95 = icmp eq i32 %92, 2, !dbg !11977           ; [#uses=1 type=i1] [debug line = 279:44]
  br i1 %95, label %96, label %arrayctor.loop3, !dbg !11977 ; [debug line = 279:44]

; <label>:96                                      ; preds = %arrayctor.loop3
  br label %97, !dbg !11977                       ; [debug line = 279:44]

; <label>:97                                      ; preds = %96
  call void @llvm.dbg.declare(metadata !{[3 x %struct.ap_uint]* %src_buf3}, metadata !11980), !dbg !11981 ; [debug line = 279:4] [debug variable = src_buf3]
  %98 = getelementptr inbounds [3 x %struct.ap_uint]* %src_buf3, i32 0, i32 0, !dbg !11977 ; [#uses=0 type=%struct.ap_uint*] [debug line = 279:44]
  br label %arrayctor.loop4

arrayctor.loop4:                                  ; preds = %arrayctor.loop4, %97
  %99 = phi i32 [ 0, %97 ], [ %100, %arrayctor.loop4 ], !dbg !11977 ; [#uses=3 type=i32] [debug line = 279:44]
  %100 = add i32 %99, 1, !dbg !11977              ; [#uses=1 type=i32] [debug line = 279:44]
  %101 = getelementptr inbounds [3 x %struct.ap_uint]* %src_buf3, i32 0, i32 %99, !dbg !11977 ; [#uses=1 type=%struct.ap_uint*] [debug line = 279:44]
  call void @_ZN7ap_uintILi8EEC1Ev(%struct.ap_uint* %101), !dbg !11977 ; [debug line = 279:44]
  %102 = icmp eq i32 %99, 2, !dbg !11977          ; [#uses=1 type=i1] [debug line = 279:44]
  br i1 %102, label %103, label %arrayctor.loop4, !dbg !11977 ; [debug line = 279:44]

; <label>:103                                     ; preds = %arrayctor.loop4
  br label %104, !dbg !11977                      ; [debug line = 279:44]

; <label>:104                                     ; preds = %103
  %105 = getelementptr inbounds [3 x %struct.ap_uint]* %src_buf1, i32 0, i32 0, !dbg !11982 ; [#uses=1 type=%struct.ap_uint*] [debug line = 280:1]
  call void (...)* @_ssdm_SpecArrayPartition(%struct.ap_uint* %105, i32 1, i8* getelementptr inbounds ([9 x i8]* @.str9, i32 0, i32 0), i32 0, i8* getelementptr inbounds ([1 x i8]* @.str, i32 0, i32 0)) nounwind, !dbg !11982 ; [debug line = 280:1]
  %106 = getelementptr inbounds [3 x %struct.ap_uint]* %src_buf2, i32 0, i32 0, !dbg !11983 ; [#uses=1 type=%struct.ap_uint*] [debug line = 281:1]
  call void (...)* @_ssdm_SpecArrayPartition(%struct.ap_uint* %106, i32 1, i8* getelementptr inbounds ([9 x i8]* @.str9, i32 0, i32 0), i32 0, i8* getelementptr inbounds ([1 x i8]* @.str, i32 0, i32 0)) nounwind, !dbg !11983 ; [debug line = 281:1]
  %107 = getelementptr inbounds [3 x %struct.ap_uint]* %src_buf3, i32 0, i32 0, !dbg !11984 ; [#uses=1 type=%struct.ap_uint*] [debug line = 282:1]
  call void (...)* @_ssdm_SpecArrayPartition(%struct.ap_uint* %107, i32 1, i8* getelementptr inbounds ([9 x i8]* @.str9, i32 0, i32 0), i32 0, i8* getelementptr inbounds ([1 x i8]* @.str, i32 0, i32 0)) nounwind, !dbg !11984 ; [debug line = 282:1]
  call void @llvm.dbg.declare(metadata !{%struct.ap_uint* %P0}, metadata !11985), !dbg !11986 ; [debug line = 284:43] [debug variable = P0]
  call void @_ZN7ap_uintILi8EEC1Ev(%struct.ap_uint* %P0), !dbg !11987 ; [debug line = 284:49]
  call void @llvm.dbg.declare(metadata !{%struct.ap_uint* %P1}, metadata !11988), !dbg !11989 ; [debug line = 284:47] [debug variable = P1]
  call void @_ZN7ap_uintILi8EEC1Ev(%struct.ap_uint* %P1), !dbg !11987 ; [debug line = 284:49]
  call void @llvm.dbg.declare(metadata !{[3 x [640 x %struct.ap_uint]]* %buf}, metadata !11990), !dbg !11993 ; [debug line = 286:43] [debug variable = buf]
  %108 = getelementptr inbounds [3 x [640 x %struct.ap_uint]]* %buf, i32 0, i32 0, i32 0, !dbg !11994 ; [#uses=0 type=%struct.ap_uint*] [debug line = 286:94]
  br label %arrayctor.loop5

arrayctor.loop5:                                  ; preds = %arrayctor.loop56, %104
  %109 = phi i32 [ 0, %104 ], [ %110, %arrayctor.loop56 ], !dbg !11994 ; [#uses=3 type=i32] [debug line = 286:94]
  %110 = add i32 %109, 1, !dbg !11994             ; [#uses=1 type=i32] [debug line = 286:94]
  %111 = getelementptr inbounds [3 x [640 x %struct.ap_uint]]* %buf, i32 0, i32 %109, !dbg !11994 ; [#uses=1 type=[640 x %struct.ap_uint]*] [debug line = 286:94]
  br label %arrayctor.loop8

arrayctor.loop8:                                  ; preds = %arrayctor.loop8, %arrayctor.loop5
  %112 = phi i32 [ 0, %arrayctor.loop5 ], [ %113, %arrayctor.loop8 ], !dbg !11994 ; [#uses=3 type=i32] [debug line = 286:94]
  %113 = add i32 %112, 1, !dbg !11994             ; [#uses=1 type=i32] [debug line = 286:94]
  %114 = getelementptr inbounds [640 x %struct.ap_uint]* %111, i32 0, i32 %112, !dbg !11994 ; [#uses=1 type=%struct.ap_uint*] [debug line = 286:94]
  call void @_ZN7ap_uintILi8EEC1Ev(%struct.ap_uint* %114), !dbg !11994 ; [debug line = 286:94]
  %115 = icmp eq i32 %112, 639, !dbg !11994       ; [#uses=1 type=i1] [debug line = 286:94]
  br i1 %115, label %arrayctor.loop57, label %arrayctor.loop8, !dbg !11994 ; [debug line = 286:94]

arrayctor.loop57:                                 ; preds = %arrayctor.loop8
  br label %arrayctor.loop56, !dbg !11994         ; [debug line = 286:94]

; <label>:116                                     ; preds = %arrayctor.loop56
  br label %117, !dbg !11994                      ; [debug line = 286:94]

; <label>:117                                     ; preds = %116
  %118 = getelementptr inbounds [3 x [640 x %struct.ap_uint]]* %buf, i32 0, i32 0, !dbg !11995 ; [#uses=1 type=[640 x %struct.ap_uint]*] [debug line = 287:1]
  call void (...)* @_ssdm_op_SpecResource([640 x %struct.ap_uint]* %118, i8* getelementptr inbounds ([1 x i8]* @.str, i32 0, i32 0), i8* getelementptr inbounds ([13 x i8]* @.str10, i32 0, i32 0), i8* getelementptr inbounds ([1 x i8]* @.str, i32 0, i32 0), i32 -1, i8* getelementptr inbounds ([1 x i8]* @.str, i32 0, i32 0), i8* getelementptr inbounds ([1 x i8]* @.str, i32 0, i32 0), i8* getelementptr inbounds ([1 x i8]* @.str, i32 0, i32 0), i8* getelementptr inbounds ([1 x i8]* @.str, i32 0, i32 0), i8* getelementptr inbounds ([1 x i8]* @.str, i32 0, i32 0)) nounwind, !dbg !11995 ; [debug line = 287:1]
  %119 = getelementptr inbounds [3 x [640 x %struct.ap_uint]]* %buf, i32 0, i32 0, !dbg !11996 ; [#uses=1 type=[640 x %struct.ap_uint]*] [debug line = 288:1]
  call void (...)* @_ssdm_SpecArrayPartition([640 x %struct.ap_uint]* %119, i32 1, i8* getelementptr inbounds ([9 x i8]* @.str9, i32 0, i32 0), i32 0, i8* getelementptr inbounds ([1 x i8]* @.str, i32 0, i32 0)) nounwind, !dbg !11996 ; [debug line = 288:1]
  call void @_ZN7ap_uintILi13EEC1Ei(%struct.ap_uint.9* %6, i32 1), !dbg !11997 ; [debug line = 289:2]
  %120 = call %struct.ap_uint.9* @_ZN7ap_uintILi13EEaSERKS0_(%struct.ap_uint.9* %row_ind, %struct.ap_uint.9* %6), !dbg !11997 ; [#uses=0 type=%struct.ap_uint.9*] [debug line = 289:2]
  br label %121, !dbg !11997                      ; [debug line = 289:2]

; <label>:121                                     ; preds = %117
  call void @_ZN7ap_uintILi13EEC1Ei(%struct.ap_uint.9* %7, i32 0), !dbg !11998 ; [debug line = 292:6]
  %122 = call %struct.ap_uint.9* @_ZN7ap_uintILi13EEaSERKS0_(%struct.ap_uint.9* %col, %struct.ap_uint.9* %7), !dbg !11998 ; [#uses=0 type=%struct.ap_uint.9*] [debug line = 292:6]
  br label %123, !dbg !11998                      ; [debug line = 292:6]

; <label>:123                                     ; preds = %144, %121
  %124 = bitcast %struct.ap_uint.9* %col to %struct.ap_int_base.10*, !dbg !12000 ; [#uses=1 type=%struct.ap_int_base.10*] [debug line = 292:15]
  %125 = load i16* %5, align 2, !dbg !12000       ; [#uses=1 type=i16] [debug line = 292:15]
  %126 = call zeroext i1 @_ZltILi13ELb0EEbRK11ap_int_baseIXT_EXT0_EXleT_Li64EEEt(%struct.ap_int_base.10* %124, i16 zeroext %125), !dbg !12000 ; [#uses=1 type=i1] [debug line = 292:15]
  br i1 %126, label %127, label %147, !dbg !12000 ; [debug line = 292:15]

; <label>:127                                     ; preds = %123
  call void (...)* @_ssdm_op_SpecLoopName(i8* getelementptr inbounds ([15 x i8]* @.str11, i32 0, i32 0)) nounwind, !dbg !12001 ; [debug line = 293:3]
  call void (...)* @_ssdm_RegionBegin(i8* getelementptr inbounds ([15 x i8]* @.str11, i32 0, i32 0)) nounwind, !dbg !12001 ; [debug line = 293:3]
  call void (...)* @_ssdm_op_SpecLoopTripCount(i32 640, i32 640, i32 0, i8* getelementptr inbounds ([1 x i8]* @.str, i32 0, i32 0)) nounwind, !dbg !12003 ; [debug line = 294:1]
  call void (...)* @_ssdm_op_SpecPipeline(i32 -1, i32 1, i32 1, i32 0, i8* getelementptr inbounds ([1 x i8]* @.str, i32 0, i32 0)) nounwind, !dbg !12004 ; [debug line = 295:1]
  %128 = bitcast %struct.ap_uint.9* %col to %struct.ap_int_base.10*, !dbg !12005 ; [#uses=1 type=%struct.ap_int_base.10*] [debug line = 296:9]
  %129 = call zeroext i16 @_ZNK11ap_int_baseILi13ELb0ELb1EEcvtEv(%struct.ap_int_base.10* %128), !dbg !12005 ; [#uses=1 type=i16] [debug line = 296:9]
  %130 = zext i16 %129 to i32, !dbg !12005        ; [#uses=1 type=i32] [debug line = 296:9]
  %131 = getelementptr inbounds [3 x [640 x %struct.ap_uint]]* %buf, i32 0, i32 0, !dbg !12005 ; [#uses=1 type=[640 x %struct.ap_uint]*] [debug line = 296:9]
  %132 = getelementptr inbounds [640 x %struct.ap_uint]* %131, i32 0, i32 %130, !dbg !12005 ; [#uses=1 type=%struct.ap_uint*] [debug line = 296:9]
  call void @_ZN7ap_uintILi8EEC1Ei(%struct.ap_uint* %8, i32 0), !dbg !12005 ; [debug line = 296:9]
  %133 = call %struct.ap_uint* @_ZN7ap_uintILi8EEaSERKS0_(%struct.ap_uint* %132, %struct.ap_uint* %8), !dbg !12005 ; [#uses=0 type=%struct.ap_uint*] [debug line = 296:9]
  %134 = bitcast %struct.ap_uint.9* %col to %struct.ap_int_base.10*, !dbg !12006 ; [#uses=1 type=%struct.ap_int_base.10*] [debug line = 297:16]
  %135 = call zeroext i16 @_ZNK11ap_int_baseILi13ELb0ELb1EEcvtEv(%struct.ap_int_base.10* %134), !dbg !12006 ; [#uses=1 type=i16] [debug line = 297:16]
  %136 = zext i16 %135 to i32, !dbg !12006        ; [#uses=1 type=i32] [debug line = 297:16]
  %137 = bitcast %struct.ap_uint.9* %row_ind to %struct.ap_int_base.10*, !dbg !12007 ; [#uses=1 type=%struct.ap_int_base.10*] [debug line = 297:7]
  %138 = call zeroext i16 @_ZNK11ap_int_baseILi13ELb0ELb1EEcvtEv(%struct.ap_int_base.10* %137), !dbg !12007 ; [#uses=1 type=i16] [debug line = 297:7]
  %139 = zext i16 %138 to i32, !dbg !12007        ; [#uses=1 type=i32] [debug line = 297:7]
  %140 = getelementptr inbounds [3 x [640 x %struct.ap_uint]]* %buf, i32 0, i32 %139, !dbg !12007 ; [#uses=1 type=[640 x %struct.ap_uint]*] [debug line = 297:7]
  %141 = getelementptr inbounds [640 x %struct.ap_uint]* %140, i32 0, i32 %136, !dbg !12007 ; [#uses=1 type=%struct.ap_uint*] [debug line = 297:7]
  %142 = load %"class.hls::stream"** %1, align 4, !dbg !12008 ; [#uses=1 type=%"class.hls::stream"*] [debug line = 297:23]
  call void @_ZN3hls6streamI7ap_uintILi8EEE4readEv(%struct.ap_uint* sret %9, %"class.hls::stream"* %142), !dbg !12008 ; [debug line = 297:23]
  %143 = call %struct.ap_uint* @_ZN7ap_uintILi8EEaSERKS0_(%struct.ap_uint* %141, %struct.ap_uint* %9), !dbg !12008 ; [#uses=0 type=%struct.ap_uint*] [debug line = 297:23]
  call void (...)* @_ssdm_RegionEnd(i8* getelementptr inbounds ([15 x i8]* @.str11, i32 0, i32 0)) nounwind, !dbg !12009 ; [debug line = 298:2]
  br label %144, !dbg !12009                      ; [debug line = 298:2]

; <label>:144                                     ; preds = %127
  %145 = bitcast %struct.ap_uint.9* %col to %struct.ap_int_base.10*, !dbg !12010 ; [#uses=1 type=%struct.ap_int_base.10*] [debug line = 292:32]
  call void @_ZN11ap_int_baseILi13ELb0ELb1EEppEi(%struct.ap_int_base.10* sret %10, %struct.ap_int_base.10* %145, i32 0), !dbg !12010 ; [debug line = 292:32]
  br label %123, !dbg !12010                      ; [debug line = 292:32]

arrayctor.loop56:                                 ; preds = %arrayctor.loop57
  %146 = icmp eq i32 %109, 2, !dbg !11994         ; [#uses=1 type=i1] [debug line = 286:94]
  br i1 %146, label %116, label %arrayctor.loop5, !dbg !11994 ; [debug line = 286:94]

; <label>:147                                     ; preds = %123
  %148 = bitcast %struct.ap_uint.9* %row_ind to %struct.ap_int_base.10*, !dbg !12011 ; [#uses=1 type=%struct.ap_int_base.10*] [debug line = 299:2]
  call void @_ZN11ap_int_baseILi13ELb0ELb1EEppEi(%struct.ap_int_base.10* sret %11, %struct.ap_int_base.10* %148, i32 0), !dbg !12011 ; [debug line = 299:2]
  br label %149, !dbg !12011                      ; [debug line = 299:2]

; <label>:149                                     ; preds = %147
  call void @_ZN7ap_uintILi13EEC1Ei(%struct.ap_uint.9* %12, i32 1), !dbg !12012 ; [debug line = 302:6]
  %150 = call %struct.ap_uint.9* @_ZN7ap_uintILi13EEaSERKS0_(%struct.ap_uint.9* %row, %struct.ap_uint.9* %12), !dbg !12012 ; [#uses=0 type=%struct.ap_uint.9*] [debug line = 302:6]
  br label %151, !dbg !12012                      ; [debug line = 302:6]

; <label>:151                                     ; preds = %423, %149
  %152 = bitcast %struct.ap_uint.9* %row to %struct.ap_int_base.10*, !dbg !12014 ; [#uses=1 type=%struct.ap_int_base.10*] [debug line = 302:15]
  %153 = load i16* %4, align 2, !dbg !12014       ; [#uses=1 type=i16] [debug line = 302:15]
  %154 = zext i16 %153 to i32, !dbg !12014        ; [#uses=1 type=i32] [debug line = 302:15]
  %155 = add nsw i32 %154, 1, !dbg !12014         ; [#uses=1 type=i32] [debug line = 302:15]
  %156 = call zeroext i1 @_ZltILi13ELb0EEbRK11ap_int_baseIXT_EXT0_EXleT_Li64EEEi(%struct.ap_int_base.10* %152, i32 %155), !dbg !12014 ; [#uses=1 type=i1] [debug line = 302:15]
  br i1 %156, label %157, label %425, !dbg !12014 ; [debug line = 302:15]

; <label>:157                                     ; preds = %151
  call void (...)* @_ssdm_op_SpecLoopName(i8* getelementptr inbounds ([9 x i8]* @.str14, i32 0, i32 0)) nounwind, !dbg !12015 ; [debug line = 303:3]
  call void (...)* @_ssdm_RegionBegin(i8* getelementptr inbounds ([9 x i8]* @.str14, i32 0, i32 0)) nounwind, !dbg !12015 ; [debug line = 303:3]
  call void (...)* @_ssdm_op_SpecLoopTripCount(i32 480, i32 480, i32 0, i8* getelementptr inbounds ([1 x i8]* @.str, i32 0, i32 0)) nounwind, !dbg !12017 ; [debug line = 304:1]
  %158 = bitcast %struct.ap_uint.9* %row_ind to %struct.ap_int_base.10*, !dbg !12018 ; [#uses=1 type=%struct.ap_int_base.10*] [debug line = 305:5]
  %159 = call zeroext i1 @_ZeqILi13ELb0EEbRK11ap_int_baseIXT_EXT0_EXleT_Li64EEEi(%struct.ap_int_base.10* %158, i32 2), !dbg !12018 ; [#uses=1 type=i1] [debug line = 305:5]
  br i1 %159, label %160, label %164, !dbg !12018 ; [debug line = 305:5]

; <label>:160                                     ; preds = %157
  call void @_ZN7ap_uintILi2EEC1Ei(%struct.ap_uint.55* %13, i32 0), !dbg !12019 ; [debug line = 307:4]
  %161 = call %struct.ap_uint.55* @_ZN7ap_uintILi2EEaSERKS0_(%struct.ap_uint.55* %tp, %struct.ap_uint.55* %13), !dbg !12019 ; [#uses=0 type=%struct.ap_uint.55*] [debug line = 307:4]
  call void @_ZN7ap_uintILi2EEC1Ei(%struct.ap_uint.55* %14, i32 1), !dbg !12021 ; [debug line = 307:12]
  %162 = call %struct.ap_uint.55* @_ZN7ap_uintILi2EEaSERKS0_(%struct.ap_uint.55* %mid, %struct.ap_uint.55* %14), !dbg !12021 ; [#uses=0 type=%struct.ap_uint.55*] [debug line = 307:12]
  call void @_ZN7ap_uintILi2EEC1Ei(%struct.ap_uint.55* %15, i32 2), !dbg !12022 ; [debug line = 307:21]
  %163 = call %struct.ap_uint.55* @_ZN7ap_uintILi2EEaSERKS0_(%struct.ap_uint.55* %bottom, %struct.ap_uint.55* %15), !dbg !12022 ; [#uses=0 type=%struct.ap_uint.55*] [debug line = 307:21]
  br label %180, !dbg !12023                      ; [debug line = 308:3]

; <label>:164                                     ; preds = %157
  %165 = bitcast %struct.ap_uint.9* %row_ind to %struct.ap_int_base.10*, !dbg !12024 ; [#uses=1 type=%struct.ap_int_base.10*] [debug line = 309:11]
  %166 = call zeroext i1 @_ZeqILi13ELb0EEbRK11ap_int_baseIXT_EXT0_EXleT_Li64EEEi(%struct.ap_int_base.10* %165, i32 0), !dbg !12024 ; [#uses=1 type=i1] [debug line = 309:11]
  br i1 %166, label %167, label %171, !dbg !12024 ; [debug line = 309:11]

; <label>:167                                     ; preds = %164
  call void @_ZN7ap_uintILi2EEC1Ei(%struct.ap_uint.55* %16, i32 1), !dbg !12025 ; [debug line = 311:4]
  %168 = call %struct.ap_uint.55* @_ZN7ap_uintILi2EEaSERKS0_(%struct.ap_uint.55* %tp, %struct.ap_uint.55* %16), !dbg !12025 ; [#uses=0 type=%struct.ap_uint.55*] [debug line = 311:4]
  call void @_ZN7ap_uintILi2EEC1Ei(%struct.ap_uint.55* %17, i32 2), !dbg !12027 ; [debug line = 311:12]
  %169 = call %struct.ap_uint.55* @_ZN7ap_uintILi2EEaSERKS0_(%struct.ap_uint.55* %mid, %struct.ap_uint.55* %17), !dbg !12027 ; [#uses=0 type=%struct.ap_uint.55*] [debug line = 311:12]
  call void @_ZN7ap_uintILi2EEC1Ei(%struct.ap_uint.55* %18, i32 0), !dbg !12028 ; [debug line = 311:21]
  %170 = call %struct.ap_uint.55* @_ZN7ap_uintILi2EEaSERKS0_(%struct.ap_uint.55* %bottom, %struct.ap_uint.55* %18), !dbg !12028 ; [#uses=0 type=%struct.ap_uint.55*] [debug line = 311:21]
  br label %179, !dbg !12029                      ; [debug line = 312:3]

; <label>:171                                     ; preds = %164
  %172 = bitcast %struct.ap_uint.9* %row_ind to %struct.ap_int_base.10*, !dbg !12030 ; [#uses=1 type=%struct.ap_int_base.10*] [debug line = 313:11]
  %173 = call zeroext i1 @_ZeqILi13ELb0EEbRK11ap_int_baseIXT_EXT0_EXleT_Li64EEEi(%struct.ap_int_base.10* %172, i32 1), !dbg !12030 ; [#uses=1 type=i1] [debug line = 313:11]
  br i1 %173, label %174, label %178, !dbg !12030 ; [debug line = 313:11]

; <label>:174                                     ; preds = %171
  call void @_ZN7ap_uintILi2EEC1Ei(%struct.ap_uint.55* %19, i32 2), !dbg !12031 ; [debug line = 315:4]
  %175 = call %struct.ap_uint.55* @_ZN7ap_uintILi2EEaSERKS0_(%struct.ap_uint.55* %tp, %struct.ap_uint.55* %19), !dbg !12031 ; [#uses=0 type=%struct.ap_uint.55*] [debug line = 315:4]
  call void @_ZN7ap_uintILi2EEC1Ei(%struct.ap_uint.55* %20, i32 0), !dbg !12033 ; [debug line = 315:12]
  %176 = call %struct.ap_uint.55* @_ZN7ap_uintILi2EEaSERKS0_(%struct.ap_uint.55* %mid, %struct.ap_uint.55* %20), !dbg !12033 ; [#uses=0 type=%struct.ap_uint.55*] [debug line = 315:12]
  call void @_ZN7ap_uintILi2EEC1Ei(%struct.ap_uint.55* %21, i32 1), !dbg !12034 ; [debug line = 315:21]
  %177 = call %struct.ap_uint.55* @_ZN7ap_uintILi2EEaSERKS0_(%struct.ap_uint.55* %bottom, %struct.ap_uint.55* %21), !dbg !12034 ; [#uses=0 type=%struct.ap_uint.55*] [debug line = 315:21]
  br label %178, !dbg !12035                      ; [debug line = 316:3]

; <label>:178                                     ; preds = %174, %171
  br label %179

; <label>:179                                     ; preds = %178, %167
  br label %180

; <label>:180                                     ; preds = %179, %160
  %181 = getelementptr inbounds [3 x %struct.ap_uint]* %src_buf1, i32 0, i32 0, !dbg !12036 ; [#uses=1 type=%struct.ap_uint*] [debug line = 318:3]
  %182 = getelementptr inbounds [3 x %struct.ap_uint]* %src_buf1, i32 0, i32 1, !dbg !12037 ; [#uses=1 type=%struct.ap_uint*] [debug line = 318:17]
  call void @_ZN7ap_uintILi8EEC1Ei(%struct.ap_uint* %22, i32 0), !dbg !12037 ; [debug line = 318:17]
  %183 = call %struct.ap_uint* @_ZN7ap_uintILi8EEaSERKS0_(%struct.ap_uint* %182, %struct.ap_uint* %22), !dbg !12037 ; [#uses=1 type=%struct.ap_uint*] [debug line = 318:17]
  %184 = call %struct.ap_uint* @_ZN7ap_uintILi8EEaSERKS0_(%struct.ap_uint* %181, %struct.ap_uint* %183), !dbg !12037 ; [#uses=0 type=%struct.ap_uint*] [debug line = 318:17]
  %185 = getelementptr inbounds [3 x %struct.ap_uint]* %src_buf2, i32 0, i32 0, !dbg !12038 ; [#uses=1 type=%struct.ap_uint*] [debug line = 319:3]
  %186 = getelementptr inbounds [3 x %struct.ap_uint]* %src_buf2, i32 0, i32 1, !dbg !12039 ; [#uses=1 type=%struct.ap_uint*] [debug line = 319:17]
  call void @_ZN7ap_uintILi8EEC1Ei(%struct.ap_uint* %23, i32 0), !dbg !12039 ; [debug line = 319:17]
  %187 = call %struct.ap_uint* @_ZN7ap_uintILi8EEaSERKS0_(%struct.ap_uint* %186, %struct.ap_uint* %23), !dbg !12039 ; [#uses=1 type=%struct.ap_uint*] [debug line = 319:17]
  %188 = call %struct.ap_uint* @_ZN7ap_uintILi8EEaSERKS0_(%struct.ap_uint* %185, %struct.ap_uint* %187), !dbg !12039 ; [#uses=0 type=%struct.ap_uint*] [debug line = 319:17]
  %189 = getelementptr inbounds [3 x %struct.ap_uint]* %src_buf3, i32 0, i32 0, !dbg !12040 ; [#uses=1 type=%struct.ap_uint*] [debug line = 320:3]
  %190 = getelementptr inbounds [3 x %struct.ap_uint]* %src_buf3, i32 0, i32 1, !dbg !12041 ; [#uses=1 type=%struct.ap_uint*] [debug line = 320:17]
  call void @_ZN7ap_uintILi8EEC1Ei(%struct.ap_uint* %24, i32 0), !dbg !12041 ; [debug line = 320:17]
  %191 = call %struct.ap_uint* @_ZN7ap_uintILi8EEaSERKS0_(%struct.ap_uint* %190, %struct.ap_uint* %24), !dbg !12041 ; [#uses=1 type=%struct.ap_uint*] [debug line = 320:17]
  %192 = call %struct.ap_uint* @_ZN7ap_uintILi8EEaSERKS0_(%struct.ap_uint* %189, %struct.ap_uint* %191), !dbg !12041 ; [#uses=0 type=%struct.ap_uint*] [debug line = 320:17]
  call void @_ZN7ap_uintILi8EEC1Ei(%struct.ap_uint* %25, i32 0), !dbg !12042 ; [debug line = 323:8]
  %193 = call %struct.ap_uint* @_ZN7ap_uintILi8EEaSERKS0_(%struct.ap_uint* %P1, %struct.ap_uint* %25), !dbg !12042 ; [#uses=1 type=%struct.ap_uint*] [debug line = 323:8]
  %194 = call %struct.ap_uint* @_ZN7ap_uintILi8EEaSERKS0_(%struct.ap_uint* %P0, %struct.ap_uint* %193), !dbg !12042 ; [#uses=0 type=%struct.ap_uint*] [debug line = 323:8]
  %195 = load %"class.hls::stream"** %1, align 4, !dbg !12043 ; [#uses=1 type=%"class.hls::stream"*] [debug line = 324:3]
  %196 = load %"class.hls::stream"** %2, align 4, !dbg !12043 ; [#uses=1 type=%"class.hls::stream"*] [debug line = 324:3]
  %197 = load %"class.hls::stream"** %3, align 4, !dbg !12043 ; [#uses=1 type=%"class.hls::stream"*] [debug line = 324:3]
  %198 = getelementptr inbounds [3 x [640 x %struct.ap_uint]]* %buf, i32 0, i32 0, !dbg !12043 ; [#uses=1 type=[640 x %struct.ap_uint]*] [debug line = 324:3]
  %199 = getelementptr inbounds [3 x %struct.ap_uint]* %src_buf1, i32 0, i32 0, !dbg !12043 ; [#uses=1 type=%struct.ap_uint*] [debug line = 324:3]
  %200 = getelementptr inbounds [3 x %struct.ap_uint]* %src_buf2, i32 0, i32 0, !dbg !12043 ; [#uses=1 type=%struct.ap_uint*] [debug line = 324:3]
  %201 = getelementptr inbounds [3 x %struct.ap_uint]* %src_buf3, i32 0, i32 0, !dbg !12043 ; [#uses=1 type=%struct.ap_uint*] [debug line = 324:3]
  %202 = getelementptr inbounds [1 x %struct.ap_uint]* %GradientValuesX, i32 0, i32 0, !dbg !12043 ; [#uses=1 type=%struct.ap_uint*] [debug line = 324:3]
  %203 = getelementptr inbounds [1 x %struct.ap_uint]* %GradientValuesY, i32 0, i32 0, !dbg !12043 ; [#uses=1 type=%struct.ap_uint*] [debug line = 324:3]
  %204 = load i16* %5, align 2, !dbg !12043       ; [#uses=1 type=i16] [debug line = 324:3]
  %205 = load i16* %4, align 2, !dbg !12043       ; [#uses=1 type=i16] [debug line = 324:3]
  %206 = bitcast %struct.ap_uint.9* %26 to i8*, !dbg !12043 ; [#uses=0 type=i8*] [debug line = 324:3]
  %207 = bitcast %struct.ap_uint.9* %row_ind to i8*, !dbg !12043 ; [#uses=0 type=i8*] [debug line = 324:3]
  %208 = getelementptr inbounds %struct.ap_uint.9* %26, i32 0, i32 0, !dbg !12043 ; [#uses=1 type=%struct.ap_int_base.10*] [debug line = 324:3]
  %209 = getelementptr inbounds %struct.ap_uint.9* %row_ind, i32 0, i32 0, !dbg !12043 ; [#uses=1 type=%struct.ap_int_base.10*] [debug line = 324:3]
  %210 = getelementptr inbounds %struct.ap_int_base.10* %208, i32 0, i32 0, !dbg !12043 ; [#uses=1 type=%struct.ssdm_int.11*] [debug line = 324:3]
  %211 = getelementptr inbounds %struct.ap_int_base.10* %209, i32 0, i32 0, !dbg !12043 ; [#uses=1 type=%struct.ssdm_int.11*] [debug line = 324:3]
  %212 = getelementptr inbounds %struct.ssdm_int.11* %210, i32 0, i32 0, !dbg !12043 ; [#uses=1 type=i13*] [debug line = 324:3]
  %213 = getelementptr inbounds %struct.ssdm_int.11* %211, i32 0, i32 0, !dbg !12043 ; [#uses=1 type=i13*] [debug line = 324:3]
  %214 = load i13* %213, !dbg !12043              ; [#uses=1 type=i13] [debug line = 324:3]
  store i13 %214, i13* %212, !dbg !12043          ; [debug line = 324:3]
  %215 = bitcast %struct.ap_uint.55* %27 to i8*, !dbg !12043 ; [#uses=0 type=i8*] [debug line = 324:3]
  %216 = bitcast %struct.ap_uint.55* %tp to i8*, !dbg !12043 ; [#uses=0 type=i8*] [debug line = 324:3]
  %217 = getelementptr inbounds %struct.ap_uint.55* %27, i32 0, i32 0, !dbg !12043 ; [#uses=1 type=%struct.ap_int_base.56*] [debug line = 324:3]
  %218 = getelementptr inbounds %struct.ap_uint.55* %tp, i32 0, i32 0, !dbg !12043 ; [#uses=1 type=%struct.ap_int_base.56*] [debug line = 324:3]
  %219 = getelementptr inbounds %struct.ap_int_base.56* %217, i32 0, i32 0, !dbg !12043 ; [#uses=1 type=%struct.ssdm_int.57*] [debug line = 324:3]
  %220 = getelementptr inbounds %struct.ap_int_base.56* %218, i32 0, i32 0, !dbg !12043 ; [#uses=1 type=%struct.ssdm_int.57*] [debug line = 324:3]
  %221 = getelementptr inbounds %struct.ssdm_int.57* %219, i32 0, i32 0, !dbg !12043 ; [#uses=1 type=i2*] [debug line = 324:3]
  %222 = getelementptr inbounds %struct.ssdm_int.57* %220, i32 0, i32 0, !dbg !12043 ; [#uses=1 type=i2*] [debug line = 324:3]
  %223 = load i2* %222, !dbg !12043               ; [#uses=1 type=i2] [debug line = 324:3]
  store i2 %223, i2* %221, !dbg !12043            ; [debug line = 324:3]
  %224 = bitcast %struct.ap_uint.55* %28 to i8*, !dbg !12043 ; [#uses=0 type=i8*] [debug line = 324:3]
  %225 = bitcast %struct.ap_uint.55* %mid to i8*, !dbg !12043 ; [#uses=0 type=i8*] [debug line = 324:3]
  %226 = getelementptr inbounds %struct.ap_uint.55* %28, i32 0, i32 0, !dbg !12043 ; [#uses=1 type=%struct.ap_int_base.56*] [debug line = 324:3]
  %227 = getelementptr inbounds %struct.ap_uint.55* %mid, i32 0, i32 0, !dbg !12043 ; [#uses=1 type=%struct.ap_int_base.56*] [debug line = 324:3]
  %228 = getelementptr inbounds %struct.ap_int_base.56* %226, i32 0, i32 0, !dbg !12043 ; [#uses=1 type=%struct.ssdm_int.57*] [debug line = 324:3]
  %229 = getelementptr inbounds %struct.ap_int_base.56* %227, i32 0, i32 0, !dbg !12043 ; [#uses=1 type=%struct.ssdm_int.57*] [debug line = 324:3]
  %230 = getelementptr inbounds %struct.ssdm_int.57* %228, i32 0, i32 0, !dbg !12043 ; [#uses=1 type=i2*] [debug line = 324:3]
  %231 = getelementptr inbounds %struct.ssdm_int.57* %229, i32 0, i32 0, !dbg !12043 ; [#uses=1 type=i2*] [debug line = 324:3]
  %232 = load i2* %231, !dbg !12043               ; [#uses=1 type=i2] [debug line = 324:3]
  store i2 %232, i2* %230, !dbg !12043            ; [debug line = 324:3]
  %233 = bitcast %struct.ap_uint.55* %29 to i8*, !dbg !12043 ; [#uses=0 type=i8*] [debug line = 324:3]
  %234 = bitcast %struct.ap_uint.55* %bottom to i8*, !dbg !12043 ; [#uses=0 type=i8*] [debug line = 324:3]
  %235 = getelementptr inbounds %struct.ap_uint.55* %29, i32 0, i32 0, !dbg !12043 ; [#uses=1 type=%struct.ap_int_base.56*] [debug line = 324:3]
  %236 = getelementptr inbounds %struct.ap_uint.55* %bottom, i32 0, i32 0, !dbg !12043 ; [#uses=1 type=%struct.ap_int_base.56*] [debug line = 324:3]
  %237 = getelementptr inbounds %struct.ap_int_base.56* %235, i32 0, i32 0, !dbg !12043 ; [#uses=1 type=%struct.ssdm_int.57*] [debug line = 324:3]
  %238 = getelementptr inbounds %struct.ap_int_base.56* %236, i32 0, i32 0, !dbg !12043 ; [#uses=1 type=%struct.ssdm_int.57*] [debug line = 324:3]
  %239 = getelementptr inbounds %struct.ssdm_int.57* %237, i32 0, i32 0, !dbg !12043 ; [#uses=1 type=i2*] [debug line = 324:3]
  %240 = getelementptr inbounds %struct.ssdm_int.57* %238, i32 0, i32 0, !dbg !12043 ; [#uses=1 type=i2*] [debug line = 324:3]
  %241 = load i2* %240, !dbg !12043               ; [#uses=1 type=i2] [debug line = 324:3]
  store i2 %241, i2* %239, !dbg !12043            ; [debug line = 324:3]
  %242 = bitcast %struct.ap_uint.9* %30 to i8*, !dbg !12043 ; [#uses=0 type=i8*] [debug line = 324:3]
  %243 = bitcast %struct.ap_uint.9* %row to i8*, !dbg !12043 ; [#uses=0 type=i8*] [debug line = 324:3]
  %244 = getelementptr inbounds %struct.ap_uint.9* %30, i32 0, i32 0, !dbg !12043 ; [#uses=1 type=%struct.ap_int_base.10*] [debug line = 324:3]
  %245 = getelementptr inbounds %struct.ap_uint.9* %row, i32 0, i32 0, !dbg !12043 ; [#uses=1 type=%struct.ap_int_base.10*] [debug line = 324:3]
  %246 = getelementptr inbounds %struct.ap_int_base.10* %244, i32 0, i32 0, !dbg !12043 ; [#uses=1 type=%struct.ssdm_int.11*] [debug line = 324:3]
  %247 = getelementptr inbounds %struct.ap_int_base.10* %245, i32 0, i32 0, !dbg !12043 ; [#uses=1 type=%struct.ssdm_int.11*] [debug line = 324:3]
  %248 = getelementptr inbounds %struct.ssdm_int.11* %246, i32 0, i32 0, !dbg !12043 ; [#uses=1 type=i13*] [debug line = 324:3]
  %249 = getelementptr inbounds %struct.ssdm_int.11* %247, i32 0, i32 0, !dbg !12043 ; [#uses=1 type=i13*] [debug line = 324:3]
  %250 = load i13* %249, !dbg !12043              ; [#uses=1 type=i13] [debug line = 324:3]
  store i13 %250, i13* %248, !dbg !12043          ; [debug line = 324:3]
  call void @_ZN2xf15ProcessSobel3x3ILi480ELi640ELi0ELi0ELi1ELi0ELi0ELi640EEEvRN3hls6streamIN10StreamTypeIXT4_EE4nameEEERNS2_INS3_IXT5_EE4nameEEESB_PArsT0_sr17xfNPixelsPerCycleIXT3_EEE9datashift_S5_PN9PixelTypeIXT1_EE4nameESH_SH_PNSE_IXT2_EE4nameESK_RS9_SL_tt7ap_uintILi13EERtSO_SM_ILi2EESP_SP_SN_(%"class.hls::stream"* %195, %"class.hls::stream"* %196, %"class.hls::stream"* %197, [640 x %struct.ap_uint]* %198, %struct.ap_uint* %199, %struct.ap_uint* %200, %struct.ap_uint* %201, %struct.ap_uint* %202, %struct.ap_uint* %203, %struct.ap_uint* %P0, %struct.ap_uint* %P1, i16 zeroext %204, i16 zeroext %205, %struct.ap_uint.9* byval align 4 %26, i16* %shift_x, i16* %shift_y, %struct.ap_uint.55* byval align 4 %27, %struct.ap_uint.55* byval align 4 %28, %struct.ap_uint.55* byval align 4 %29, %struct.ap_uint.9* byval align 4 %30), !dbg !12043 ; [debug line = 324:3]
  %251 = getelementptr inbounds [1 x %struct.ap_uint]* %GradientValuesX, i32 0, i32 0, !dbg !12044 ; [#uses=1 type=%struct.ap_uint*] [debug line = 343:4]
  %252 = bitcast %struct.ap_uint* %buf_size to %struct.ap_int_base*, !dbg !12046 ; [#uses=1 type=%struct.ap_int_base*] [debug line = 344:15]
  call void @_ZmiILi8ELb0EEN11ap_int_baseIXT_EXT0_EXleT_Li64EEE5RTypeIXLi32EEXLb1EEE5minusERKS1_i(%struct.ap_int_base.21* sret %33, %struct.ap_int_base* %252, i32 3), !dbg !12046 ; [debug line = 344:15]
  %253 = call i64 @_ZNK11ap_int_baseILi33ELb1ELb1EEcvxEv(%struct.ap_int_base.21* %33), !dbg !12046 ; [#uses=1 type=i64] [debug line = 344:15]
  %254 = trunc i64 %253 to i32, !dbg !12046       ; [#uses=1 type=i32] [debug line = 344:15]
  %255 = getelementptr inbounds [3 x %struct.ap_uint]* %src_buf1, i32 0, i32 %254, !dbg !12046 ; [#uses=2 type=%struct.ap_uint*] [debug line = 344:15]
  %256 = bitcast %struct.ap_uint* %32 to i8*, !dbg !12046 ; [#uses=0 type=i8*] [debug line = 344:15]
  %257 = bitcast %struct.ap_uint* %255 to i8*, !dbg !12046 ; [#uses=0 type=i8*] [debug line = 344:15]
  %258 = getelementptr inbounds %struct.ap_uint* %32, i32 0, i32 0, !dbg !12046 ; [#uses=1 type=%struct.ap_int_base*] [debug line = 344:15]
  %259 = getelementptr inbounds %struct.ap_uint* %255, i32 0, i32 0, !dbg !12046 ; [#uses=1 type=%struct.ap_int_base*] [debug line = 344:15]
  %260 = getelementptr inbounds %struct.ap_int_base* %258, i32 0, i32 0, !dbg !12046 ; [#uses=1 type=%struct.ssdm_int*] [debug line = 344:15]
  %261 = getelementptr inbounds %struct.ap_int_base* %259, i32 0, i32 0, !dbg !12046 ; [#uses=1 type=%struct.ssdm_int*] [debug line = 344:15]
  %262 = getelementptr inbounds %struct.ssdm_int* %260, i32 0, i32 0, !dbg !12046 ; [#uses=1 type=i8*] [debug line = 344:15]
  %263 = getelementptr inbounds %struct.ssdm_int* %261, i32 0, i32 0, !dbg !12046 ; [#uses=1 type=i8*] [debug line = 344:15]
  %264 = load i8* %263, !dbg !12046               ; [#uses=1 type=i8] [debug line = 344:15]
  store i8 %264, i8* %262, !dbg !12046            ; [debug line = 344:15]
  %265 = bitcast %struct.ap_uint* %buf_size to %struct.ap_int_base*, !dbg !12047 ; [#uses=1 type=%struct.ap_int_base*] [debug line = 344:37]
  call void @_ZmiILi8ELb0EEN11ap_int_baseIXT_EXT0_EXleT_Li64EEE5RTypeIXLi32EEXLb1EEE5minusERKS1_i(%struct.ap_int_base.21* sret %35, %struct.ap_int_base* %265, i32 2), !dbg !12047 ; [debug line = 344:37]
  %266 = call i64 @_ZNK11ap_int_baseILi33ELb1ELb1EEcvxEv(%struct.ap_int_base.21* %35), !dbg !12047 ; [#uses=1 type=i64] [debug line = 344:37]
  %267 = trunc i64 %266 to i32, !dbg !12047       ; [#uses=1 type=i32] [debug line = 344:37]
  %268 = getelementptr inbounds [3 x %struct.ap_uint]* %src_buf1, i32 0, i32 %267, !dbg !12047 ; [#uses=2 type=%struct.ap_uint*] [debug line = 344:37]
  %269 = bitcast %struct.ap_uint* %34 to i8*, !dbg !12047 ; [#uses=0 type=i8*] [debug line = 344:37]
  %270 = bitcast %struct.ap_uint* %268 to i8*, !dbg !12047 ; [#uses=0 type=i8*] [debug line = 344:37]
  %271 = getelementptr inbounds %struct.ap_uint* %34, i32 0, i32 0, !dbg !12047 ; [#uses=1 type=%struct.ap_int_base*] [debug line = 344:37]
  %272 = getelementptr inbounds %struct.ap_uint* %268, i32 0, i32 0, !dbg !12047 ; [#uses=1 type=%struct.ap_int_base*] [debug line = 344:37]
  %273 = getelementptr inbounds %struct.ap_int_base* %271, i32 0, i32 0, !dbg !12047 ; [#uses=1 type=%struct.ssdm_int*] [debug line = 344:37]
  %274 = getelementptr inbounds %struct.ap_int_base* %272, i32 0, i32 0, !dbg !12047 ; [#uses=1 type=%struct.ssdm_int*] [debug line = 344:37]
  %275 = getelementptr inbounds %struct.ssdm_int* %273, i32 0, i32 0, !dbg !12047 ; [#uses=1 type=i8*] [debug line = 344:37]
  %276 = getelementptr inbounds %struct.ssdm_int* %274, i32 0, i32 0, !dbg !12047 ; [#uses=1 type=i8*] [debug line = 344:37]
  %277 = load i8* %276, !dbg !12047               ; [#uses=1 type=i8] [debug line = 344:37]
  store i8 %277, i8* %275, !dbg !12047            ; [debug line = 344:37]
  call void @_ZN7ap_uintILi8EEC1Ei(%struct.ap_uint* %36, i32 0), !dbg !12047 ; [debug line = 344:37]
  %278 = bitcast %struct.ap_uint* %buf_size to %struct.ap_int_base*, !dbg !12048 ; [#uses=1 type=%struct.ap_int_base*] [debug line = 345:15]
  call void @_ZmiILi8ELb0EEN11ap_int_baseIXT_EXT0_EXleT_Li64EEE5RTypeIXLi32EEXLb1EEE5minusERKS1_i(%struct.ap_int_base.21* sret %38, %struct.ap_int_base* %278, i32 3), !dbg !12048 ; [debug line = 345:15]
  %279 = call i64 @_ZNK11ap_int_baseILi33ELb1ELb1EEcvxEv(%struct.ap_int_base.21* %38), !dbg !12048 ; [#uses=1 type=i64] [debug line = 345:15]
  %280 = trunc i64 %279 to i32, !dbg !12048       ; [#uses=1 type=i32] [debug line = 345:15]
  %281 = getelementptr inbounds [3 x %struct.ap_uint]* %src_buf2, i32 0, i32 %280, !dbg !12048 ; [#uses=2 type=%struct.ap_uint*] [debug line = 345:15]
  %282 = bitcast %struct.ap_uint* %37 to i8*, !dbg !12048 ; [#uses=0 type=i8*] [debug line = 345:15]
  %283 = bitcast %struct.ap_uint* %281 to i8*, !dbg !12048 ; [#uses=0 type=i8*] [debug line = 345:15]
  %284 = getelementptr inbounds %struct.ap_uint* %37, i32 0, i32 0, !dbg !12048 ; [#uses=1 type=%struct.ap_int_base*] [debug line = 345:15]
  %285 = getelementptr inbounds %struct.ap_uint* %281, i32 0, i32 0, !dbg !12048 ; [#uses=1 type=%struct.ap_int_base*] [debug line = 345:15]
  %286 = getelementptr inbounds %struct.ap_int_base* %284, i32 0, i32 0, !dbg !12048 ; [#uses=1 type=%struct.ssdm_int*] [debug line = 345:15]
  %287 = getelementptr inbounds %struct.ap_int_base* %285, i32 0, i32 0, !dbg !12048 ; [#uses=1 type=%struct.ssdm_int*] [debug line = 345:15]
  %288 = getelementptr inbounds %struct.ssdm_int* %286, i32 0, i32 0, !dbg !12048 ; [#uses=1 type=i8*] [debug line = 345:15]
  %289 = getelementptr inbounds %struct.ssdm_int* %287, i32 0, i32 0, !dbg !12048 ; [#uses=1 type=i8*] [debug line = 345:15]
  %290 = load i8* %289, !dbg !12048               ; [#uses=1 type=i8] [debug line = 345:15]
  store i8 %290, i8* %288, !dbg !12048            ; [debug line = 345:15]
  %291 = bitcast %struct.ap_uint* %buf_size to %struct.ap_int_base*, !dbg !12049 ; [#uses=1 type=%struct.ap_int_base*] [debug line = 345:37]
  call void @_ZmiILi8ELb0EEN11ap_int_baseIXT_EXT0_EXleT_Li64EEE5RTypeIXLi32EEXLb1EEE5minusERKS1_i(%struct.ap_int_base.21* sret %40, %struct.ap_int_base* %291, i32 2), !dbg !12049 ; [debug line = 345:37]
  %292 = call i64 @_ZNK11ap_int_baseILi33ELb1ELb1EEcvxEv(%struct.ap_int_base.21* %40), !dbg !12049 ; [#uses=1 type=i64] [debug line = 345:37]
  %293 = trunc i64 %292 to i32, !dbg !12049       ; [#uses=1 type=i32] [debug line = 345:37]
  %294 = getelementptr inbounds [3 x %struct.ap_uint]* %src_buf2, i32 0, i32 %293, !dbg !12049 ; [#uses=2 type=%struct.ap_uint*] [debug line = 345:37]
  %295 = bitcast %struct.ap_uint* %39 to i8*, !dbg !12049 ; [#uses=0 type=i8*] [debug line = 345:37]
  %296 = bitcast %struct.ap_uint* %294 to i8*, !dbg !12049 ; [#uses=0 type=i8*] [debug line = 345:37]
  %297 = getelementptr inbounds %struct.ap_uint* %39, i32 0, i32 0, !dbg !12049 ; [#uses=1 type=%struct.ap_int_base*] [debug line = 345:37]
  %298 = getelementptr inbounds %struct.ap_uint* %294, i32 0, i32 0, !dbg !12049 ; [#uses=1 type=%struct.ap_int_base*] [debug line = 345:37]
  %299 = getelementptr inbounds %struct.ap_int_base* %297, i32 0, i32 0, !dbg !12049 ; [#uses=1 type=%struct.ssdm_int*] [debug line = 345:37]
  %300 = getelementptr inbounds %struct.ap_int_base* %298, i32 0, i32 0, !dbg !12049 ; [#uses=1 type=%struct.ssdm_int*] [debug line = 345:37]
  %301 = getelementptr inbounds %struct.ssdm_int* %299, i32 0, i32 0, !dbg !12049 ; [#uses=1 type=i8*] [debug line = 345:37]
  %302 = getelementptr inbounds %struct.ssdm_int* %300, i32 0, i32 0, !dbg !12049 ; [#uses=1 type=i8*] [debug line = 345:37]
  %303 = load i8* %302, !dbg !12049               ; [#uses=1 type=i8] [debug line = 345:37]
  store i8 %303, i8* %301, !dbg !12049            ; [debug line = 345:37]
  call void @_ZN7ap_uintILi8EEC1Ei(%struct.ap_uint* %41, i32 0), !dbg !12049 ; [debug line = 345:37]
  %304 = bitcast %struct.ap_uint* %buf_size to %struct.ap_int_base*, !dbg !12050 ; [#uses=1 type=%struct.ap_int_base*] [debug line = 346:15]
  call void @_ZmiILi8ELb0EEN11ap_int_baseIXT_EXT0_EXleT_Li64EEE5RTypeIXLi32EEXLb1EEE5minusERKS1_i(%struct.ap_int_base.21* sret %43, %struct.ap_int_base* %304, i32 3), !dbg !12050 ; [debug line = 346:15]
  %305 = call i64 @_ZNK11ap_int_baseILi33ELb1ELb1EEcvxEv(%struct.ap_int_base.21* %43), !dbg !12050 ; [#uses=1 type=i64] [debug line = 346:15]
  %306 = trunc i64 %305 to i32, !dbg !12050       ; [#uses=1 type=i32] [debug line = 346:15]
  %307 = getelementptr inbounds [3 x %struct.ap_uint]* %src_buf3, i32 0, i32 %306, !dbg !12050 ; [#uses=2 type=%struct.ap_uint*] [debug line = 346:15]
  %308 = bitcast %struct.ap_uint* %42 to i8*, !dbg !12050 ; [#uses=0 type=i8*] [debug line = 346:15]
  %309 = bitcast %struct.ap_uint* %307 to i8*, !dbg !12050 ; [#uses=0 type=i8*] [debug line = 346:15]
  %310 = getelementptr inbounds %struct.ap_uint* %42, i32 0, i32 0, !dbg !12050 ; [#uses=1 type=%struct.ap_int_base*] [debug line = 346:15]
  %311 = getelementptr inbounds %struct.ap_uint* %307, i32 0, i32 0, !dbg !12050 ; [#uses=1 type=%struct.ap_int_base*] [debug line = 346:15]
  %312 = getelementptr inbounds %struct.ap_int_base* %310, i32 0, i32 0, !dbg !12050 ; [#uses=1 type=%struct.ssdm_int*] [debug line = 346:15]
  %313 = getelementptr inbounds %struct.ap_int_base* %311, i32 0, i32 0, !dbg !12050 ; [#uses=1 type=%struct.ssdm_int*] [debug line = 346:15]
  %314 = getelementptr inbounds %struct.ssdm_int* %312, i32 0, i32 0, !dbg !12050 ; [#uses=1 type=i8*] [debug line = 346:15]
  %315 = getelementptr inbounds %struct.ssdm_int* %313, i32 0, i32 0, !dbg !12050 ; [#uses=1 type=i8*] [debug line = 346:15]
  %316 = load i8* %315, !dbg !12050               ; [#uses=1 type=i8] [debug line = 346:15]
  store i8 %316, i8* %314, !dbg !12050            ; [debug line = 346:15]
  %317 = bitcast %struct.ap_uint* %buf_size to %struct.ap_int_base*, !dbg !12051 ; [#uses=1 type=%struct.ap_int_base*] [debug line = 346:37]
  call void @_ZmiILi8ELb0EEN11ap_int_baseIXT_EXT0_EXleT_Li64EEE5RTypeIXLi32EEXLb1EEE5minusERKS1_i(%struct.ap_int_base.21* sret %45, %struct.ap_int_base* %317, i32 2), !dbg !12051 ; [debug line = 346:37]
  %318 = call i64 @_ZNK11ap_int_baseILi33ELb1ELb1EEcvxEv(%struct.ap_int_base.21* %45), !dbg !12051 ; [#uses=1 type=i64] [debug line = 346:37]
  %319 = trunc i64 %318 to i32, !dbg !12051       ; [#uses=1 type=i32] [debug line = 346:37]
  %320 = getelementptr inbounds [3 x %struct.ap_uint]* %src_buf3, i32 0, i32 %319, !dbg !12051 ; [#uses=2 type=%struct.ap_uint*] [debug line = 346:37]
  %321 = bitcast %struct.ap_uint* %44 to i8*, !dbg !12051 ; [#uses=0 type=i8*] [debug line = 346:37]
  %322 = bitcast %struct.ap_uint* %320 to i8*, !dbg !12051 ; [#uses=0 type=i8*] [debug line = 346:37]
  %323 = getelementptr inbounds %struct.ap_uint* %44, i32 0, i32 0, !dbg !12051 ; [#uses=1 type=%struct.ap_int_base*] [debug line = 346:37]
  %324 = getelementptr inbounds %struct.ap_uint* %320, i32 0, i32 0, !dbg !12051 ; [#uses=1 type=%struct.ap_int_base*] [debug line = 346:37]
  %325 = getelementptr inbounds %struct.ap_int_base* %323, i32 0, i32 0, !dbg !12051 ; [#uses=1 type=%struct.ssdm_int*] [debug line = 346:37]
  %326 = getelementptr inbounds %struct.ap_int_base* %324, i32 0, i32 0, !dbg !12051 ; [#uses=1 type=%struct.ssdm_int*] [debug line = 346:37]
  %327 = getelementptr inbounds %struct.ssdm_int* %325, i32 0, i32 0, !dbg !12051 ; [#uses=1 type=i8*] [debug line = 346:37]
  %328 = getelementptr inbounds %struct.ssdm_int* %326, i32 0, i32 0, !dbg !12051 ; [#uses=1 type=i8*] [debug line = 346:37]
  %329 = load i8* %328, !dbg !12051               ; [#uses=1 type=i8] [debug line = 346:37]
  store i8 %329, i8* %327, !dbg !12051            ; [debug line = 346:37]
  call void @_ZN7ap_uintILi8EEC1Ei(%struct.ap_uint* %46, i32 0), !dbg !12051 ; [debug line = 346:37]
  call void @_ZN2xf14xFGradientX3x3ILi0ELi0EEEN9PixelTypeIXT0_EE4nameENS1_IXT_EE4nameES5_S5_S5_S5_S5_S5_S5_S5_(%struct.ap_uint* sret %31, %struct.ap_uint* byval align 4 %32, %struct.ap_uint* byval align 4 %34, %struct.ap_uint* byval align 4 %36, %struct.ap_uint* byval align 4 %37, %struct.ap_uint* byval align 4 %39, %struct.ap_uint* byval align 4 %41, %struct.ap_uint* byval align 4 %42, %struct.ap_uint* byval align 4 %44, %struct.ap_uint* byval align 4 %46), !dbg !12051 ; [debug line = 346:37]
  %330 = call %struct.ap_uint* @_ZN7ap_uintILi8EEaSERKS0_(%struct.ap_uint* %251, %struct.ap_uint* %31), !dbg !12051 ; [#uses=0 type=%struct.ap_uint*] [debug line = 346:37]
  %331 = getelementptr inbounds [1 x %struct.ap_uint]* %GradientValuesY, i32 0, i32 0, !dbg !12052 ; [#uses=1 type=%struct.ap_uint*] [debug line = 348:4]
  %332 = bitcast %struct.ap_uint* %buf_size to %struct.ap_int_base*, !dbg !12053 ; [#uses=1 type=%struct.ap_int_base*] [debug line = 349:15]
  call void @_ZmiILi8ELb0EEN11ap_int_baseIXT_EXT0_EXleT_Li64EEE5RTypeIXLi32EEXLb1EEE5minusERKS1_i(%struct.ap_int_base.21* sret %49, %struct.ap_int_base* %332, i32 3), !dbg !12053 ; [debug line = 349:15]
  %333 = call i64 @_ZNK11ap_int_baseILi33ELb1ELb1EEcvxEv(%struct.ap_int_base.21* %49), !dbg !12053 ; [#uses=1 type=i64] [debug line = 349:15]
  %334 = trunc i64 %333 to i32, !dbg !12053       ; [#uses=1 type=i32] [debug line = 349:15]
  %335 = getelementptr inbounds [3 x %struct.ap_uint]* %src_buf1, i32 0, i32 %334, !dbg !12053 ; [#uses=2 type=%struct.ap_uint*] [debug line = 349:15]
  %336 = bitcast %struct.ap_uint* %48 to i8*, !dbg !12053 ; [#uses=0 type=i8*] [debug line = 349:15]
  %337 = bitcast %struct.ap_uint* %335 to i8*, !dbg !12053 ; [#uses=0 type=i8*] [debug line = 349:15]
  %338 = getelementptr inbounds %struct.ap_uint* %48, i32 0, i32 0, !dbg !12053 ; [#uses=1 type=%struct.ap_int_base*] [debug line = 349:15]
  %339 = getelementptr inbounds %struct.ap_uint* %335, i32 0, i32 0, !dbg !12053 ; [#uses=1 type=%struct.ap_int_base*] [debug line = 349:15]
  %340 = getelementptr inbounds %struct.ap_int_base* %338, i32 0, i32 0, !dbg !12053 ; [#uses=1 type=%struct.ssdm_int*] [debug line = 349:15]
  %341 = getelementptr inbounds %struct.ap_int_base* %339, i32 0, i32 0, !dbg !12053 ; [#uses=1 type=%struct.ssdm_int*] [debug line = 349:15]
  %342 = getelementptr inbounds %struct.ssdm_int* %340, i32 0, i32 0, !dbg !12053 ; [#uses=1 type=i8*] [debug line = 349:15]
  %343 = getelementptr inbounds %struct.ssdm_int* %341, i32 0, i32 0, !dbg !12053 ; [#uses=1 type=i8*] [debug line = 349:15]
  %344 = load i8* %343, !dbg !12053               ; [#uses=1 type=i8] [debug line = 349:15]
  store i8 %344, i8* %342, !dbg !12053            ; [debug line = 349:15]
  %345 = bitcast %struct.ap_uint* %buf_size to %struct.ap_int_base*, !dbg !12054 ; [#uses=1 type=%struct.ap_int_base*] [debug line = 349:37]
  call void @_ZmiILi8ELb0EEN11ap_int_baseIXT_EXT0_EXleT_Li64EEE5RTypeIXLi32EEXLb1EEE5minusERKS1_i(%struct.ap_int_base.21* sret %51, %struct.ap_int_base* %345, i32 2), !dbg !12054 ; [debug line = 349:37]
  %346 = call i64 @_ZNK11ap_int_baseILi33ELb1ELb1EEcvxEv(%struct.ap_int_base.21* %51), !dbg !12054 ; [#uses=1 type=i64] [debug line = 349:37]
  %347 = trunc i64 %346 to i32, !dbg !12054       ; [#uses=1 type=i32] [debug line = 349:37]
  %348 = getelementptr inbounds [3 x %struct.ap_uint]* %src_buf1, i32 0, i32 %347, !dbg !12054 ; [#uses=2 type=%struct.ap_uint*] [debug line = 349:37]
  %349 = bitcast %struct.ap_uint* %50 to i8*, !dbg !12054 ; [#uses=0 type=i8*] [debug line = 349:37]
  %350 = bitcast %struct.ap_uint* %348 to i8*, !dbg !12054 ; [#uses=0 type=i8*] [debug line = 349:37]
  %351 = getelementptr inbounds %struct.ap_uint* %50, i32 0, i32 0, !dbg !12054 ; [#uses=1 type=%struct.ap_int_base*] [debug line = 349:37]
  %352 = getelementptr inbounds %struct.ap_uint* %348, i32 0, i32 0, !dbg !12054 ; [#uses=1 type=%struct.ap_int_base*] [debug line = 349:37]
  %353 = getelementptr inbounds %struct.ap_int_base* %351, i32 0, i32 0, !dbg !12054 ; [#uses=1 type=%struct.ssdm_int*] [debug line = 349:37]
  %354 = getelementptr inbounds %struct.ap_int_base* %352, i32 0, i32 0, !dbg !12054 ; [#uses=1 type=%struct.ssdm_int*] [debug line = 349:37]
  %355 = getelementptr inbounds %struct.ssdm_int* %353, i32 0, i32 0, !dbg !12054 ; [#uses=1 type=i8*] [debug line = 349:37]
  %356 = getelementptr inbounds %struct.ssdm_int* %354, i32 0, i32 0, !dbg !12054 ; [#uses=1 type=i8*] [debug line = 349:37]
  %357 = load i8* %356, !dbg !12054               ; [#uses=1 type=i8] [debug line = 349:37]
  store i8 %357, i8* %355, !dbg !12054            ; [debug line = 349:37]
  call void @_ZN7ap_uintILi8EEC1Ei(%struct.ap_uint* %52, i32 0), !dbg !12054 ; [debug line = 349:37]
  %358 = bitcast %struct.ap_uint* %buf_size to %struct.ap_int_base*, !dbg !12055 ; [#uses=1 type=%struct.ap_int_base*] [debug line = 350:15]
  call void @_ZmiILi8ELb0EEN11ap_int_baseIXT_EXT0_EXleT_Li64EEE5RTypeIXLi32EEXLb1EEE5minusERKS1_i(%struct.ap_int_base.21* sret %54, %struct.ap_int_base* %358, i32 3), !dbg !12055 ; [debug line = 350:15]
  %359 = call i64 @_ZNK11ap_int_baseILi33ELb1ELb1EEcvxEv(%struct.ap_int_base.21* %54), !dbg !12055 ; [#uses=1 type=i64] [debug line = 350:15]
  %360 = trunc i64 %359 to i32, !dbg !12055       ; [#uses=1 type=i32] [debug line = 350:15]
  %361 = getelementptr inbounds [3 x %struct.ap_uint]* %src_buf2, i32 0, i32 %360, !dbg !12055 ; [#uses=2 type=%struct.ap_uint*] [debug line = 350:15]
  %362 = bitcast %struct.ap_uint* %53 to i8*, !dbg !12055 ; [#uses=0 type=i8*] [debug line = 350:15]
  %363 = bitcast %struct.ap_uint* %361 to i8*, !dbg !12055 ; [#uses=0 type=i8*] [debug line = 350:15]
  %364 = getelementptr inbounds %struct.ap_uint* %53, i32 0, i32 0, !dbg !12055 ; [#uses=1 type=%struct.ap_int_base*] [debug line = 350:15]
  %365 = getelementptr inbounds %struct.ap_uint* %361, i32 0, i32 0, !dbg !12055 ; [#uses=1 type=%struct.ap_int_base*] [debug line = 350:15]
  %366 = getelementptr inbounds %struct.ap_int_base* %364, i32 0, i32 0, !dbg !12055 ; [#uses=1 type=%struct.ssdm_int*] [debug line = 350:15]
  %367 = getelementptr inbounds %struct.ap_int_base* %365, i32 0, i32 0, !dbg !12055 ; [#uses=1 type=%struct.ssdm_int*] [debug line = 350:15]
  %368 = getelementptr inbounds %struct.ssdm_int* %366, i32 0, i32 0, !dbg !12055 ; [#uses=1 type=i8*] [debug line = 350:15]
  %369 = getelementptr inbounds %struct.ssdm_int* %367, i32 0, i32 0, !dbg !12055 ; [#uses=1 type=i8*] [debug line = 350:15]
  %370 = load i8* %369, !dbg !12055               ; [#uses=1 type=i8] [debug line = 350:15]
  store i8 %370, i8* %368, !dbg !12055            ; [debug line = 350:15]
  %371 = bitcast %struct.ap_uint* %buf_size to %struct.ap_int_base*, !dbg !12056 ; [#uses=1 type=%struct.ap_int_base*] [debug line = 350:37]
  call void @_ZmiILi8ELb0EEN11ap_int_baseIXT_EXT0_EXleT_Li64EEE5RTypeIXLi32EEXLb1EEE5minusERKS1_i(%struct.ap_int_base.21* sret %56, %struct.ap_int_base* %371, i32 2), !dbg !12056 ; [debug line = 350:37]
  %372 = call i64 @_ZNK11ap_int_baseILi33ELb1ELb1EEcvxEv(%struct.ap_int_base.21* %56), !dbg !12056 ; [#uses=1 type=i64] [debug line = 350:37]
  %373 = trunc i64 %372 to i32, !dbg !12056       ; [#uses=1 type=i32] [debug line = 350:37]
  %374 = getelementptr inbounds [3 x %struct.ap_uint]* %src_buf2, i32 0, i32 %373, !dbg !12056 ; [#uses=2 type=%struct.ap_uint*] [debug line = 350:37]
  %375 = bitcast %struct.ap_uint* %55 to i8*, !dbg !12056 ; [#uses=0 type=i8*] [debug line = 350:37]
  %376 = bitcast %struct.ap_uint* %374 to i8*, !dbg !12056 ; [#uses=0 type=i8*] [debug line = 350:37]
  %377 = getelementptr inbounds %struct.ap_uint* %55, i32 0, i32 0, !dbg !12056 ; [#uses=1 type=%struct.ap_int_base*] [debug line = 350:37]
  %378 = getelementptr inbounds %struct.ap_uint* %374, i32 0, i32 0, !dbg !12056 ; [#uses=1 type=%struct.ap_int_base*] [debug line = 350:37]
  %379 = getelementptr inbounds %struct.ap_int_base* %377, i32 0, i32 0, !dbg !12056 ; [#uses=1 type=%struct.ssdm_int*] [debug line = 350:37]
  %380 = getelementptr inbounds %struct.ap_int_base* %378, i32 0, i32 0, !dbg !12056 ; [#uses=1 type=%struct.ssdm_int*] [debug line = 350:37]
  %381 = getelementptr inbounds %struct.ssdm_int* %379, i32 0, i32 0, !dbg !12056 ; [#uses=1 type=i8*] [debug line = 350:37]
  %382 = getelementptr inbounds %struct.ssdm_int* %380, i32 0, i32 0, !dbg !12056 ; [#uses=1 type=i8*] [debug line = 350:37]
  %383 = load i8* %382, !dbg !12056               ; [#uses=1 type=i8] [debug line = 350:37]
  store i8 %383, i8* %381, !dbg !12056            ; [debug line = 350:37]
  call void @_ZN7ap_uintILi8EEC1Ei(%struct.ap_uint* %57, i32 0), !dbg !12056 ; [debug line = 350:37]
  %384 = bitcast %struct.ap_uint* %buf_size to %struct.ap_int_base*, !dbg !12057 ; [#uses=1 type=%struct.ap_int_base*] [debug line = 351:15]
  call void @_ZmiILi8ELb0EEN11ap_int_baseIXT_EXT0_EXleT_Li64EEE5RTypeIXLi32EEXLb1EEE5minusERKS1_i(%struct.ap_int_base.21* sret %59, %struct.ap_int_base* %384, i32 3), !dbg !12057 ; [debug line = 351:15]
  %385 = call i64 @_ZNK11ap_int_baseILi33ELb1ELb1EEcvxEv(%struct.ap_int_base.21* %59), !dbg !12057 ; [#uses=1 type=i64] [debug line = 351:15]
  %386 = trunc i64 %385 to i32, !dbg !12057       ; [#uses=1 type=i32] [debug line = 351:15]
  %387 = getelementptr inbounds [3 x %struct.ap_uint]* %src_buf3, i32 0, i32 %386, !dbg !12057 ; [#uses=2 type=%struct.ap_uint*] [debug line = 351:15]
  %388 = bitcast %struct.ap_uint* %58 to i8*, !dbg !12057 ; [#uses=0 type=i8*] [debug line = 351:15]
  %389 = bitcast %struct.ap_uint* %387 to i8*, !dbg !12057 ; [#uses=0 type=i8*] [debug line = 351:15]
  %390 = getelementptr inbounds %struct.ap_uint* %58, i32 0, i32 0, !dbg !12057 ; [#uses=1 type=%struct.ap_int_base*] [debug line = 351:15]
  %391 = getelementptr inbounds %struct.ap_uint* %387, i32 0, i32 0, !dbg !12057 ; [#uses=1 type=%struct.ap_int_base*] [debug line = 351:15]
  %392 = getelementptr inbounds %struct.ap_int_base* %390, i32 0, i32 0, !dbg !12057 ; [#uses=1 type=%struct.ssdm_int*] [debug line = 351:15]
  %393 = getelementptr inbounds %struct.ap_int_base* %391, i32 0, i32 0, !dbg !12057 ; [#uses=1 type=%struct.ssdm_int*] [debug line = 351:15]
  %394 = getelementptr inbounds %struct.ssdm_int* %392, i32 0, i32 0, !dbg !12057 ; [#uses=1 type=i8*] [debug line = 351:15]
  %395 = getelementptr inbounds %struct.ssdm_int* %393, i32 0, i32 0, !dbg !12057 ; [#uses=1 type=i8*] [debug line = 351:15]
  %396 = load i8* %395, !dbg !12057               ; [#uses=1 type=i8] [debug line = 351:15]
  store i8 %396, i8* %394, !dbg !12057            ; [debug line = 351:15]
  %397 = bitcast %struct.ap_uint* %buf_size to %struct.ap_int_base*, !dbg !12058 ; [#uses=1 type=%struct.ap_int_base*] [debug line = 351:37]
  call void @_ZmiILi8ELb0EEN11ap_int_baseIXT_EXT0_EXleT_Li64EEE5RTypeIXLi32EEXLb1EEE5minusERKS1_i(%struct.ap_int_base.21* sret %61, %struct.ap_int_base* %397, i32 2), !dbg !12058 ; [debug line = 351:37]
  %398 = call i64 @_ZNK11ap_int_baseILi33ELb1ELb1EEcvxEv(%struct.ap_int_base.21* %61), !dbg !12058 ; [#uses=1 type=i64] [debug line = 351:37]
  %399 = trunc i64 %398 to i32, !dbg !12058       ; [#uses=1 type=i32] [debug line = 351:37]
  %400 = getelementptr inbounds [3 x %struct.ap_uint]* %src_buf3, i32 0, i32 %399, !dbg !12058 ; [#uses=2 type=%struct.ap_uint*] [debug line = 351:37]
  %401 = bitcast %struct.ap_uint* %60 to i8*, !dbg !12058 ; [#uses=0 type=i8*] [debug line = 351:37]
  %402 = bitcast %struct.ap_uint* %400 to i8*, !dbg !12058 ; [#uses=0 type=i8*] [debug line = 351:37]
  %403 = getelementptr inbounds %struct.ap_uint* %60, i32 0, i32 0, !dbg !12058 ; [#uses=1 type=%struct.ap_int_base*] [debug line = 351:37]
  %404 = getelementptr inbounds %struct.ap_uint* %400, i32 0, i32 0, !dbg !12058 ; [#uses=1 type=%struct.ap_int_base*] [debug line = 351:37]
  %405 = getelementptr inbounds %struct.ap_int_base* %403, i32 0, i32 0, !dbg !12058 ; [#uses=1 type=%struct.ssdm_int*] [debug line = 351:37]
  %406 = getelementptr inbounds %struct.ap_int_base* %404, i32 0, i32 0, !dbg !12058 ; [#uses=1 type=%struct.ssdm_int*] [debug line = 351:37]
  %407 = getelementptr inbounds %struct.ssdm_int* %405, i32 0, i32 0, !dbg !12058 ; [#uses=1 type=i8*] [debug line = 351:37]
  %408 = getelementptr inbounds %struct.ssdm_int* %406, i32 0, i32 0, !dbg !12058 ; [#uses=1 type=i8*] [debug line = 351:37]
  %409 = load i8* %408, !dbg !12058               ; [#uses=1 type=i8] [debug line = 351:37]
  store i8 %409, i8* %407, !dbg !12058            ; [debug line = 351:37]
  call void @_ZN7ap_uintILi8EEC1Ei(%struct.ap_uint* %62, i32 0), !dbg !12058 ; [debug line = 351:37]
  call void @_ZN2xf14xFGradientY3x3ILi0ELi0EEEN9PixelTypeIXT0_EE4nameENS1_IXT_EE4nameES5_S5_S5_S5_S5_S5_S5_S5_(%struct.ap_uint* sret %47, %struct.ap_uint* byval align 4 %48, %struct.ap_uint* byval align 4 %50, %struct.ap_uint* byval align 4 %52, %struct.ap_uint* byval align 4 %53, %struct.ap_uint* byval align 4 %55, %struct.ap_uint* byval align 4 %57, %struct.ap_uint* byval align 4 %58, %struct.ap_uint* byval align 4 %60, %struct.ap_uint* byval align 4 %62), !dbg !12058 ; [debug line = 351:37]
  %410 = call %struct.ap_uint* @_ZN7ap_uintILi8EEaSERKS0_(%struct.ap_uint* %331, %struct.ap_uint* %47), !dbg !12058 ; [#uses=0 type=%struct.ap_uint*] [debug line = 351:37]
  %411 = getelementptr inbounds [1 x %struct.ap_uint]* %GradientValuesX, i32 0, i32 0, !dbg !12059 ; [#uses=1 type=%struct.ap_uint*] [debug line = 354:3]
  call void @_Z12xfPackPixelsILi1ELi0ELi0EEvPN9PixelTypeIXT1_EE4nameERN10StreamTypeIXT0_EE4nameEtsRt(%struct.ap_uint* %411, %struct.ap_uint* %P0, i16 zeroext 0, i16 signext 1, i16* %shift_x), !dbg !12059 ; [debug line = 354:3]
  %412 = getelementptr inbounds [1 x %struct.ap_uint]* %GradientValuesY, i32 0, i32 0, !dbg !12060 ; [#uses=1 type=%struct.ap_uint*] [debug line = 355:3]
  call void @_Z12xfPackPixelsILi1ELi0ELi0EEvPN9PixelTypeIXT1_EE4nameERN10StreamTypeIXT0_EE4nameEtsRt(%struct.ap_uint* %412, %struct.ap_uint* %P1, i16 zeroext 0, i16 signext 1, i16* %shift_y), !dbg !12060 ; [debug line = 355:3]
  %413 = load %"class.hls::stream"** %2, align 4, !dbg !12061 ; [#uses=1 type=%"class.hls::stream"*] [debug line = 357:3]
  call void @_ZN3hls6streamI7ap_uintILi8EEE5writeERKS2_(%"class.hls::stream"* %413, %struct.ap_uint* %P0), !dbg !12061 ; [debug line = 357:3]
  %414 = load %"class.hls::stream"** %3, align 4, !dbg !12062 ; [#uses=1 type=%"class.hls::stream"*] [debug line = 358:3]
  call void @_ZN3hls6streamI7ap_uintILi8EEE5writeERKS2_(%"class.hls::stream"* %414, %struct.ap_uint* %P1), !dbg !12062 ; [debug line = 358:3]
  store i16 0, i16* %shift_x, align 2, !dbg !12063 ; [debug line = 360:3]
  store i16 0, i16* %shift_y, align 2, !dbg !12064 ; [debug line = 360:16]
  call void @_ZN7ap_uintILi8EEC1Ei(%struct.ap_uint* %63, i32 0), !dbg !12065 ; [debug line = 361:3]
  %415 = call %struct.ap_uint* @_ZN7ap_uintILi8EEaSERKS0_(%struct.ap_uint* %P0, %struct.ap_uint* %63), !dbg !12065 ; [#uses=0 type=%struct.ap_uint*] [debug line = 361:3]
  call void @_ZN7ap_uintILi8EEC1Ei(%struct.ap_uint* %64, i32 0), !dbg !12066 ; [debug line = 361:11]
  %416 = call %struct.ap_uint* @_ZN7ap_uintILi8EEaSERKS0_(%struct.ap_uint* %P1, %struct.ap_uint* %64), !dbg !12066 ; [#uses=0 type=%struct.ap_uint*] [debug line = 361:11]
  %417 = bitcast %struct.ap_uint.9* %row_ind to %struct.ap_int_base.10*, !dbg !12067 ; [#uses=1 type=%struct.ap_int_base.10*] [debug line = 363:3]
  call void @_ZN11ap_int_baseILi13ELb0ELb1EEppEi(%struct.ap_int_base.10* sret %65, %struct.ap_int_base.10* %417, i32 0), !dbg !12067 ; [debug line = 363:3]
  %418 = bitcast %struct.ap_uint.9* %row_ind to %struct.ap_int_base.10*, !dbg !12068 ; [#uses=1 type=%struct.ap_int_base.10*] [debug line = 364:6]
  %419 = call zeroext i1 @_ZeqILi13ELb0EEbRK11ap_int_baseIXT_EXT0_EXleT_Li64EEEi(%struct.ap_int_base.10* %418, i32 3), !dbg !12068 ; [#uses=1 type=i1] [debug line = 364:6]
  br i1 %419, label %420, label %422, !dbg !12068 ; [debug line = 364:6]

; <label>:420                                     ; preds = %180
  call void @_ZN7ap_uintILi13EEC1Ei(%struct.ap_uint.9* %66, i32 0), !dbg !12069 ; [debug line = 366:4]
  %421 = call %struct.ap_uint.9* @_ZN7ap_uintILi13EEaSERKS0_(%struct.ap_uint.9* %row_ind, %struct.ap_uint.9* %66), !dbg !12069 ; [#uses=0 type=%struct.ap_uint.9*] [debug line = 366:4]
  br label %422, !dbg !12071                      ; [debug line = 367:3]

; <label>:422                                     ; preds = %420, %180
  call void (...)* @_ssdm_RegionEnd(i8* getelementptr inbounds ([9 x i8]* @.str14, i32 0, i32 0)) nounwind, !dbg !12072 ; [debug line = 368:2]
  br label %423, !dbg !12072                      ; [debug line = 368:2]

; <label>:423                                     ; preds = %422
  %424 = bitcast %struct.ap_uint.9* %row to %struct.ap_int_base.10*, !dbg !12073 ; [#uses=1 type=%struct.ap_int_base.10*] [debug line = 302:35]
  call void @_ZN11ap_int_baseILi13ELb0ELb1EEppEi(%struct.ap_int_base.10* sret %67, %struct.ap_int_base.10* %424, i32 0), !dbg !12073 ; [debug line = 302:35]
  br label %151, !dbg !12073                      ; [debug line = 302:35]

; <label>:425                                     ; preds = %151
  ret void, !dbg !12074                           ; [debug line = 369:1]
}

; [#uses=1]
define internal void @_ZN2xf16xFSobelFilter5x5ILi480ELi640ELi0ELi0ELi1ELi0ELi0ELi640EEEvRN3hls6streamIN10StreamTypeIXT4_EE4nameEEERNS2_INS3_IXT5_EE4nameEEESB_tt(%"class.hls::stream"* %_src_mat, %"class.hls::stream"* %_gradx_mat, %"class.hls::stream"* %_grady_mat, i16 zeroext %img_height, i16 zeroext %img_width) nounwind {
  %1 = alloca %"class.hls::stream"*, align 4      ; [#uses=4 type=%"class.hls::stream"**]
  %2 = alloca %"class.hls::stream"*, align 4      ; [#uses=4 type=%"class.hls::stream"**]
  %3 = alloca %"class.hls::stream"*, align 4      ; [#uses=4 type=%"class.hls::stream"**]
  %4 = alloca i16, align 2                        ; [#uses=3 type=i16*]
  %5 = alloca i16, align 2                        ; [#uses=4 type=i16*]
  %row_ind = alloca %struct.ap_uint.9, align 2    ; [#uses=16 type=%struct.ap_uint.9*]
  %row = alloca %struct.ap_uint.9, align 2        ; [#uses=6 type=%struct.ap_uint.9*]
  %col = alloca %struct.ap_uint.9, align 2        ; [#uses=11 type=%struct.ap_uint.9*]
  %tp1 = alloca %struct.ap_uint.12, align 1       ; [#uses=8 type=%struct.ap_uint.12*]
  %tp2 = alloca %struct.ap_uint.12, align 1       ; [#uses=8 type=%struct.ap_uint.12*]
  %mid = alloca %struct.ap_uint.12, align 1       ; [#uses=8 type=%struct.ap_uint.12*]
  %bottom1 = alloca %struct.ap_uint.12, align 1   ; [#uses=8 type=%struct.ap_uint.12*]
  %bottom2 = alloca %struct.ap_uint.12, align 1   ; [#uses=8 type=%struct.ap_uint.12*]
  %i = alloca %struct.ap_uint.15, align 1         ; [#uses=1 type=%struct.ap_uint.15*]
  %buf_size = alloca %struct.ap_uint, align 1     ; [#uses=16 type=%struct.ap_uint*]
  %step = alloca %struct.ap_uint.50, align 2      ; [#uses=5 type=%struct.ap_uint.50*]
  %max_loop = alloca %struct.ap_uint.50, align 2  ; [#uses=9 type=%struct.ap_uint.50*]
  %shift_x = alloca i16, align 2                  ; [#uses=2 type=i16*]
  %shift_y = alloca i16, align 2                  ; [#uses=2 type=i16*]
  %GradientValuesX = alloca [1 x %struct.ap_uint], align 1 ; [#uses=8 type=[1 x %struct.ap_uint]*]
  %GradientValuesY = alloca [1 x %struct.ap_uint], align 1 ; [#uses=8 type=[1 x %struct.ap_uint]*]
  %buf0 = alloca %struct.ap_uint, align 1         ; [#uses=1 type=%struct.ap_uint*]
  %buf1 = alloca %struct.ap_uint, align 1         ; [#uses=1 type=%struct.ap_uint*]
  %buf2 = alloca %struct.ap_uint, align 1         ; [#uses=1 type=%struct.ap_uint*]
  %buf3 = alloca %struct.ap_uint, align 1         ; [#uses=1 type=%struct.ap_uint*]
  %buf4 = alloca %struct.ap_uint, align 1         ; [#uses=1 type=%struct.ap_uint*]
  %src_buf1 = alloca [5 x %struct.ap_uint], align 1 ; [#uses=16 type=[5 x %struct.ap_uint]*]
  %src_buf2 = alloca [5 x %struct.ap_uint], align 1 ; [#uses=16 type=[5 x %struct.ap_uint]*]
  %src_buf3 = alloca [5 x %struct.ap_uint], align 1 ; [#uses=16 type=[5 x %struct.ap_uint]*]
  %src_buf4 = alloca [5 x %struct.ap_uint], align 1 ; [#uses=16 type=[5 x %struct.ap_uint]*]
  %src_buf5 = alloca [5 x %struct.ap_uint], align 1 ; [#uses=16 type=[5 x %struct.ap_uint]*]
  %tmp_in = alloca %struct.ap_uint, align 1       ; [#uses=1 type=%struct.ap_uint*]
  %inter_valx = alloca %struct.ap_uint, align 1   ; [#uses=7 type=%struct.ap_uint*]
  %inter_valy = alloca %struct.ap_uint, align 1   ; [#uses=7 type=%struct.ap_uint*]
  %buf = alloca [5 x [640 x %struct.ap_uint]], align 1 ; [#uses=9 type=[5 x [640 x %struct.ap_uint]]*]
  %6 = alloca %struct.ap_uint.9, align 2          ; [#uses=2 type=%struct.ap_uint.9*]
  %7 = alloca %struct.ap_uint.9, align 2          ; [#uses=2 type=%struct.ap_uint.9*]
  %8 = alloca %struct.ap_uint, align 1            ; [#uses=2 type=%struct.ap_uint*]
  %9 = alloca %struct.ap_uint, align 1            ; [#uses=2 type=%struct.ap_uint*]
  %10 = alloca %struct.ap_uint, align 1           ; [#uses=2 type=%struct.ap_uint*]
  %11 = alloca %struct.ap_int_base.10, align 2    ; [#uses=1 type=%struct.ap_int_base.10*]
  %12 = alloca %struct.ap_int_base.10, align 2    ; [#uses=1 type=%struct.ap_int_base.10*]
  %13 = alloca %struct.ap_uint.9, align 2         ; [#uses=2 type=%struct.ap_uint.9*]
  %14 = alloca %struct.ap_uint, align 1           ; [#uses=2 type=%struct.ap_uint*]
  %15 = alloca %struct.ap_int_base.10, align 2    ; [#uses=1 type=%struct.ap_int_base.10*]
  %16 = alloca %struct.ap_int_base.10, align 2    ; [#uses=1 type=%struct.ap_int_base.10*]
  %17 = alloca %struct.ap_uint.9, align 2         ; [#uses=2 type=%struct.ap_uint.9*]
  %18 = alloca %struct.ap_uint.12, align 1        ; [#uses=2 type=%struct.ap_uint.12*]
  %19 = alloca %struct.ap_uint.12, align 1        ; [#uses=2 type=%struct.ap_uint.12*]
  %20 = alloca %struct.ap_uint.12, align 1        ; [#uses=2 type=%struct.ap_uint.12*]
  %21 = alloca %struct.ap_uint.12, align 1        ; [#uses=2 type=%struct.ap_uint.12*]
  %22 = alloca %struct.ap_uint.12, align 1        ; [#uses=2 type=%struct.ap_uint.12*]
  %23 = alloca %struct.ap_uint.12, align 1        ; [#uses=2 type=%struct.ap_uint.12*]
  %24 = alloca %struct.ap_uint.12, align 1        ; [#uses=2 type=%struct.ap_uint.12*]
  %25 = alloca %struct.ap_uint.12, align 1        ; [#uses=2 type=%struct.ap_uint.12*]
  %26 = alloca %struct.ap_uint.12, align 1        ; [#uses=2 type=%struct.ap_uint.12*]
  %27 = alloca %struct.ap_uint.12, align 1        ; [#uses=2 type=%struct.ap_uint.12*]
  %28 = alloca %struct.ap_uint.12, align 1        ; [#uses=2 type=%struct.ap_uint.12*]
  %29 = alloca %struct.ap_uint.12, align 1        ; [#uses=2 type=%struct.ap_uint.12*]
  %30 = alloca %struct.ap_uint.12, align 1        ; [#uses=2 type=%struct.ap_uint.12*]
  %31 = alloca %struct.ap_uint.12, align 1        ; [#uses=2 type=%struct.ap_uint.12*]
  %32 = alloca %struct.ap_uint.12, align 1        ; [#uses=2 type=%struct.ap_uint.12*]
  %33 = alloca %struct.ap_uint.12, align 1        ; [#uses=2 type=%struct.ap_uint.12*]
  %34 = alloca %struct.ap_uint.12, align 1        ; [#uses=2 type=%struct.ap_uint.12*]
  %35 = alloca %struct.ap_uint.12, align 1        ; [#uses=2 type=%struct.ap_uint.12*]
  %36 = alloca %struct.ap_uint.12, align 1        ; [#uses=2 type=%struct.ap_uint.12*]
  %37 = alloca %struct.ap_uint.12, align 1        ; [#uses=2 type=%struct.ap_uint.12*]
  %38 = alloca %struct.ap_uint.12, align 1        ; [#uses=2 type=%struct.ap_uint.12*]
  %39 = alloca %struct.ap_uint.12, align 1        ; [#uses=2 type=%struct.ap_uint.12*]
  %40 = alloca %struct.ap_uint.12, align 1        ; [#uses=2 type=%struct.ap_uint.12*]
  %41 = alloca %struct.ap_uint.12, align 1        ; [#uses=2 type=%struct.ap_uint.12*]
  %42 = alloca %struct.ap_uint.12, align 1        ; [#uses=2 type=%struct.ap_uint.12*]
  %43 = alloca %struct.ap_uint, align 1           ; [#uses=2 type=%struct.ap_uint*]
  %44 = alloca %struct.ap_uint, align 1           ; [#uses=2 type=%struct.ap_uint*]
  %45 = alloca %struct.ap_uint, align 1           ; [#uses=2 type=%struct.ap_uint*]
  %46 = alloca %struct.ap_uint, align 1           ; [#uses=2 type=%struct.ap_uint*]
  %47 = alloca %struct.ap_uint, align 1           ; [#uses=2 type=%struct.ap_uint*]
  %48 = alloca %struct.ap_uint, align 1           ; [#uses=2 type=%struct.ap_uint*]
  %49 = alloca %struct.ap_uint.9, align 2         ; [#uses=3 type=%struct.ap_uint.9*]
  %50 = alloca %struct.ap_uint.12, align 1        ; [#uses=3 type=%struct.ap_uint.12*]
  %51 = alloca %struct.ap_uint.12, align 1        ; [#uses=3 type=%struct.ap_uint.12*]
  %52 = alloca %struct.ap_uint.12, align 1        ; [#uses=3 type=%struct.ap_uint.12*]
  %53 = alloca %struct.ap_uint.12, align 1        ; [#uses=3 type=%struct.ap_uint.12*]
  %54 = alloca %struct.ap_uint.12, align 1        ; [#uses=3 type=%struct.ap_uint.12*]
  %55 = alloca %struct.ap_uint.9, align 2         ; [#uses=3 type=%struct.ap_uint.9*]
  %56 = alloca %struct.ap_int_base.21, align 8    ; [#uses=2 type=%struct.ap_int_base.21*]
  %57 = alloca %struct.ap_uint, align 1           ; [#uses=2 type=%struct.ap_uint*]
  %58 = alloca %struct.ap_int_base.21, align 8    ; [#uses=2 type=%struct.ap_int_base.21*]
  %59 = alloca %struct.ap_uint, align 1           ; [#uses=2 type=%struct.ap_uint*]
  %60 = alloca %struct.ap_int_base.21, align 8    ; [#uses=2 type=%struct.ap_int_base.21*]
  %61 = alloca %struct.ap_uint, align 1           ; [#uses=2 type=%struct.ap_uint*]
  %62 = alloca %struct.ap_int_base.21, align 8    ; [#uses=2 type=%struct.ap_int_base.21*]
  %63 = alloca %struct.ap_uint, align 1           ; [#uses=2 type=%struct.ap_uint*]
  %64 = alloca %struct.ap_int_base.21, align 8    ; [#uses=2 type=%struct.ap_int_base.21*]
  %65 = alloca %struct.ap_uint, align 1           ; [#uses=2 type=%struct.ap_uint*]
  %66 = alloca %struct.ap_uint, align 1           ; [#uses=2 type=%struct.ap_uint*]
  %67 = alloca %struct.ap_uint, align 1           ; [#uses=2 type=%struct.ap_uint*]
  %68 = alloca %struct.ap_int_base.21, align 8    ; [#uses=2 type=%struct.ap_int_base.21*]
  %69 = alloca %struct.ap_int_base.29, align 2    ; [#uses=2 type=%struct.ap_int_base.29*]
  %70 = alloca %struct.ap_range_ref, align 4      ; [#uses=2 type=%struct.ap_range_ref*]
  %71 = alloca %struct.ap_int_base.21, align 8    ; [#uses=2 type=%struct.ap_int_base.21*]
  %72 = alloca %struct.ap_int_base.29, align 2    ; [#uses=2 type=%struct.ap_int_base.29*]
  %73 = alloca %struct.ap_range_ref, align 4      ; [#uses=2 type=%struct.ap_range_ref*]
  %i11 = alloca %struct.ap_uint.12, align 1       ; [#uses=13 type=%struct.ap_uint.12*]
  %74 = alloca %struct.ap_int_base.21, align 8    ; [#uses=2 type=%struct.ap_int_base.21*]
  %75 = alloca %struct.ap_int_base.51, align 8    ; [#uses=2 type=%struct.ap_int_base.51*]
  %76 = alloca %struct.ap_int_base.21, align 8    ; [#uses=2 type=%struct.ap_int_base.21*]
  %77 = alloca %struct.ap_int_base.51, align 8    ; [#uses=2 type=%struct.ap_int_base.51*]
  %78 = alloca %struct.ap_int_base.21, align 8    ; [#uses=2 type=%struct.ap_int_base.21*]
  %79 = alloca %struct.ap_int_base.51, align 8    ; [#uses=2 type=%struct.ap_int_base.51*]
  %80 = alloca %struct.ap_int_base.21, align 8    ; [#uses=2 type=%struct.ap_int_base.21*]
  %81 = alloca %struct.ap_int_base.51, align 8    ; [#uses=2 type=%struct.ap_int_base.51*]
  %82 = alloca %struct.ap_int_base.21, align 8    ; [#uses=2 type=%struct.ap_int_base.21*]
  %83 = alloca %struct.ap_int_base.51, align 8    ; [#uses=2 type=%struct.ap_int_base.51*]
  %84 = alloca %struct.ap_int_base.13, align 1    ; [#uses=1 type=%struct.ap_int_base.13*]
  %85 = alloca %struct.ap_int_base.21, align 8    ; [#uses=2 type=%struct.ap_int_base.21*]
  %86 = alloca %struct.ap_uint, align 1           ; [#uses=2 type=%struct.ap_uint*]
  %87 = alloca %struct.ap_int_base.21, align 8    ; [#uses=2 type=%struct.ap_int_base.21*]
  %88 = alloca %struct.ap_uint, align 1           ; [#uses=2 type=%struct.ap_uint*]
  %89 = alloca %struct.ap_int_base.21, align 8    ; [#uses=2 type=%struct.ap_int_base.21*]
  %90 = alloca %struct.ap_uint, align 1           ; [#uses=2 type=%struct.ap_uint*]
  %91 = alloca %struct.ap_int_base.21, align 8    ; [#uses=2 type=%struct.ap_int_base.21*]
  %92 = alloca %struct.ap_uint, align 1           ; [#uses=2 type=%struct.ap_uint*]
  %93 = alloca %struct.ap_int_base.21, align 8    ; [#uses=2 type=%struct.ap_int_base.21*]
  %94 = alloca %struct.ap_uint, align 1           ; [#uses=2 type=%struct.ap_uint*]
  %95 = alloca %struct.ap_uint, align 1           ; [#uses=2 type=%struct.ap_uint*]
  %96 = alloca %struct.ap_uint, align 1           ; [#uses=2 type=%struct.ap_uint*]
  %97 = alloca %struct.ap_int_base.21, align 8    ; [#uses=2 type=%struct.ap_int_base.21*]
  %98 = alloca %struct.ap_int_base.29, align 2    ; [#uses=2 type=%struct.ap_int_base.29*]
  %99 = alloca %struct.ap_range_ref, align 4      ; [#uses=2 type=%struct.ap_range_ref*]
  %100 = alloca %struct.ap_int_base.21, align 8   ; [#uses=2 type=%struct.ap_int_base.21*]
  %101 = alloca %struct.ap_int_base.29, align 2   ; [#uses=2 type=%struct.ap_int_base.29*]
  %102 = alloca %struct.ap_range_ref, align 4     ; [#uses=2 type=%struct.ap_range_ref*]
  %103 = alloca %struct.ap_int_base.10, align 2   ; [#uses=1 type=%struct.ap_int_base.10*]
  %104 = alloca %struct.ap_uint.9, align 2        ; [#uses=2 type=%struct.ap_uint.9*]
  %105 = alloca %struct.ap_int_base.10, align 2   ; [#uses=1 type=%struct.ap_int_base.10*]
  store %"class.hls::stream"* %_src_mat, %"class.hls::stream"** %1, align 4
  call void @llvm.dbg.declare(metadata !{%"class.hls::stream"** %1}, metadata !12075), !dbg !12076 ; [debug line = 617:81] [debug variable = _src_mat]
  store %"class.hls::stream"* %_gradx_mat, %"class.hls::stream"** %2, align 4
  call void @llvm.dbg.declare(metadata !{%"class.hls::stream"** %2}, metadata !12077), !dbg !12078 ; [debug line = 618:61] [debug variable = _gradx_mat]
  store %"class.hls::stream"* %_grady_mat, %"class.hls::stream"** %3, align 4
  call void @llvm.dbg.declare(metadata !{%"class.hls::stream"** %3}, metadata !12079), !dbg !12080 ; [debug line = 619:61] [debug variable = _grady_mat]
  store i16 %img_height, i16* %4, align 2
  call void @llvm.dbg.declare(metadata !{i16* %4}, metadata !12081), !dbg !12082 ; [debug line = 619:82] [debug variable = img_height]
  store i16 %img_width, i16* %5, align 2
  call void @llvm.dbg.declare(metadata !{i16* %5}, metadata !12083), !dbg !12084 ; [debug line = 619:103] [debug variable = img_width]
  call void @llvm.dbg.declare(metadata !{%struct.ap_uint.9* %row_ind}, metadata !12085), !dbg !12087 ; [debug line = 621:14] [debug variable = row_ind]
  call void @_ZN7ap_uintILi13EEC1Ev(%struct.ap_uint.9* %row_ind), !dbg !12088 ; [debug line = 621:21]
  call void @llvm.dbg.declare(metadata !{%struct.ap_uint.9* %row}, metadata !12089), !dbg !12090 ; [debug line = 622:14] [debug variable = row]
  call void @_ZN7ap_uintILi13EEC1Ev(%struct.ap_uint.9* %row), !dbg !12091 ; [debug line = 622:22]
  call void @llvm.dbg.declare(metadata !{%struct.ap_uint.9* %col}, metadata !12092), !dbg !12093 ; [debug line = 622:19] [debug variable = col]
  call void @_ZN7ap_uintILi13EEC1Ev(%struct.ap_uint.9* %col), !dbg !12091 ; [debug line = 622:22]
  call void @llvm.dbg.declare(metadata !{%struct.ap_uint.12* %tp1}, metadata !12094), !dbg !12095 ; [debug line = 623:13] [debug variable = tp1]
  call void @_ZN7ap_uintILi4EEC1Ev(%struct.ap_uint.12* %tp1), !dbg !12096 ; [debug line = 623:44]
  call void @llvm.dbg.declare(metadata !{%struct.ap_uint.12* %tp2}, metadata !12097), !dbg !12098 ; [debug line = 623:18] [debug variable = tp2]
  call void @_ZN7ap_uintILi4EEC1Ev(%struct.ap_uint.12* %tp2), !dbg !12096 ; [debug line = 623:44]
  call void @llvm.dbg.declare(metadata !{%struct.ap_uint.12* %mid}, metadata !12099), !dbg !12100 ; [debug line = 623:23] [debug variable = mid]
  call void @_ZN7ap_uintILi4EEC1Ev(%struct.ap_uint.12* %mid), !dbg !12096 ; [debug line = 623:44]
  call void @llvm.dbg.declare(metadata !{%struct.ap_uint.12* %bottom1}, metadata !12101), !dbg !12102 ; [debug line = 623:28] [debug variable = bottom1]
  call void @_ZN7ap_uintILi4EEC1Ev(%struct.ap_uint.12* %bottom1), !dbg !12096 ; [debug line = 623:44]
  call void @llvm.dbg.declare(metadata !{%struct.ap_uint.12* %bottom2}, metadata !12103), !dbg !12104 ; [debug line = 623:37] [debug variable = bottom2]
  call void @_ZN7ap_uintILi4EEC1Ev(%struct.ap_uint.12* %bottom2), !dbg !12096 ; [debug line = 623:44]
  call void @llvm.dbg.declare(metadata !{%struct.ap_uint.15* %i}, metadata !12105), !dbg !12106 ; [debug line = 624:13] [debug variable = i]
  call void @_ZN7ap_uintILi5EEC1Ev(%struct.ap_uint.15* %i), !dbg !12107 ; [debug line = 624:14]
  call void @llvm.dbg.declare(metadata !{%struct.ap_uint* %buf_size}, metadata !12108), !dbg !12109 ; [debug line = 626:13] [debug variable = buf_size]
  call void @_ZN7ap_uintILi8EEC1Ei(%struct.ap_uint* %buf_size, i32 5), !dbg !12110 ; [debug line = 626:56]
  call void @llvm.dbg.declare(metadata !{%struct.ap_uint.50* %step}, metadata !12111), !dbg !12112 ; [debug line = 627:13] [debug variable = step]
  call void @_ZN7ap_uintILi9EEC1Ei(%struct.ap_uint.50* %step, i32 8), !dbg !12113 ; [debug line = 627:50]
  call void @llvm.dbg.declare(metadata !{%struct.ap_uint.50* %max_loop}, metadata !12114), !dbg !12115 ; [debug line = 628:13] [debug variable = max_loop]
  call void @_ZN7ap_uintILi9EEC1Ei(%struct.ap_uint.50* %max_loop, i32 8), !dbg !12116 ; [debug line = 628:59]
  call void @llvm.dbg.declare(metadata !{i16* %shift_x}, metadata !12117), !dbg !12118 ; [debug line = 629:11] [debug variable = shift_x]
  store i16 0, i16* %shift_x, align 2, !dbg !12119 ; [debug line = 629:35]
  call void @llvm.dbg.declare(metadata !{i16* %shift_y}, metadata !12120), !dbg !12121 ; [debug line = 629:24] [debug variable = shift_y]
  store i16 0, i16* %shift_y, align 2, !dbg !12119 ; [debug line = 629:35]
  call void @llvm.dbg.declare(metadata !{[1 x %struct.ap_uint]* %GradientValuesX}, metadata !12122), !dbg !12123 ; [debug line = 631:38] [debug variable = GradientValuesX]
  %106 = getelementptr inbounds [1 x %struct.ap_uint]* %GradientValuesX, i32 0, i32 0, !dbg !12124 ; [#uses=0 type=%struct.ap_uint*] [debug line = 631:83]
  br label %arrayctor.loop

arrayctor.loop:                                   ; preds = %arrayctor.loop, %0
  %107 = phi i32 [ 0, %0 ], [ %108, %arrayctor.loop ], !dbg !12124 ; [#uses=3 type=i32] [debug line = 631:83]
  %108 = add i32 %107, 1, !dbg !12124             ; [#uses=1 type=i32] [debug line = 631:83]
  %109 = getelementptr inbounds [1 x %struct.ap_uint]* %GradientValuesX, i32 0, i32 %107, !dbg !12124 ; [#uses=1 type=%struct.ap_uint*] [debug line = 631:83]
  call void @_ZN7ap_uintILi8EEC1Ev(%struct.ap_uint* %109), !dbg !12124 ; [debug line = 631:83]
  %110 = icmp eq i32 %107, 0, !dbg !12124         ; [#uses=1 type=i1] [debug line = 631:83]
  br i1 %110, label %111, label %arrayctor.loop, !dbg !12124 ; [debug line = 631:83]

; <label>:111                                     ; preds = %arrayctor.loop
  br label %112, !dbg !12124                      ; [debug line = 631:83]

; <label>:112                                     ; preds = %111
  call void @llvm.dbg.declare(metadata !{[1 x %struct.ap_uint]* %GradientValuesY}, metadata !12125), !dbg !12126 ; [debug line = 632:38] [debug variable = GradientValuesY]
  %113 = getelementptr inbounds [1 x %struct.ap_uint]* %GradientValuesY, i32 0, i32 0, !dbg !12127 ; [#uses=0 type=%struct.ap_uint*] [debug line = 632:83]
  br label %arrayctor.loop1

arrayctor.loop1:                                  ; preds = %arrayctor.loop1, %112
  %114 = phi i32 [ 0, %112 ], [ %115, %arrayctor.loop1 ], !dbg !12127 ; [#uses=3 type=i32] [debug line = 632:83]
  %115 = add i32 %114, 1, !dbg !12127             ; [#uses=1 type=i32] [debug line = 632:83]
  %116 = getelementptr inbounds [1 x %struct.ap_uint]* %GradientValuesY, i32 0, i32 %114, !dbg !12127 ; [#uses=1 type=%struct.ap_uint*] [debug line = 632:83]
  call void @_ZN7ap_uintILi8EEC1Ev(%struct.ap_uint* %116), !dbg !12127 ; [debug line = 632:83]
  %117 = icmp eq i32 %114, 0, !dbg !12127         ; [#uses=1 type=i1] [debug line = 632:83]
  br i1 %117, label %118, label %arrayctor.loop1, !dbg !12127 ; [debug line = 632:83]

; <label>:118                                     ; preds = %arrayctor.loop1
  br label %119, !dbg !12127                      ; [debug line = 632:83]

; <label>:119                                     ; preds = %118
  %120 = getelementptr inbounds [1 x %struct.ap_uint]* %GradientValuesX, i32 0, i32 0, !dbg !12128 ; [#uses=1 type=%struct.ap_uint*] [debug line = 633:1]
  call void (...)* @_ssdm_SpecArrayPartition(%struct.ap_uint* %120, i32 1, i8* getelementptr inbounds ([9 x i8]* @.str9, i32 0, i32 0), i32 0, i8* getelementptr inbounds ([1 x i8]* @.str, i32 0, i32 0)) nounwind, !dbg !12128 ; [debug line = 633:1]
  %121 = getelementptr inbounds [1 x %struct.ap_uint]* %GradientValuesY, i32 0, i32 0, !dbg !12129 ; [#uses=1 type=%struct.ap_uint*] [debug line = 634:1]
  call void (...)* @_ssdm_SpecArrayPartition(%struct.ap_uint* %121, i32 1, i8* getelementptr inbounds ([9 x i8]* @.str9, i32 0, i32 0), i32 0, i8* getelementptr inbounds ([1 x i8]* @.str, i32 0, i32 0)) nounwind, !dbg !12129 ; [debug line = 634:1]
  call void @llvm.dbg.declare(metadata !{%struct.ap_uint* %buf0}, metadata !12130), !dbg !12131 ; [debug line = 636:43] [debug variable = buf0]
  call void @_ZN7ap_uintILi8EEC1Ev(%struct.ap_uint* %buf0), !dbg !12132 ; [debug line = 636:71]
  call void @llvm.dbg.declare(metadata !{%struct.ap_uint* %buf1}, metadata !12133), !dbg !12134 ; [debug line = 636:49] [debug variable = buf1]
  call void @_ZN7ap_uintILi8EEC1Ev(%struct.ap_uint* %buf1), !dbg !12132 ; [debug line = 636:71]
  call void @llvm.dbg.declare(metadata !{%struct.ap_uint* %buf2}, metadata !12135), !dbg !12136 ; [debug line = 636:55] [debug variable = buf2]
  call void @_ZN7ap_uintILi8EEC1Ev(%struct.ap_uint* %buf2), !dbg !12132 ; [debug line = 636:71]
  call void @llvm.dbg.declare(metadata !{%struct.ap_uint* %buf3}, metadata !12137), !dbg !12138 ; [debug line = 636:61] [debug variable = buf3]
  call void @_ZN7ap_uintILi8EEC1Ev(%struct.ap_uint* %buf3), !dbg !12132 ; [debug line = 636:71]
  call void @llvm.dbg.declare(metadata !{%struct.ap_uint* %buf4}, metadata !12139), !dbg !12140 ; [debug line = 636:67] [debug variable = buf4]
  call void @_ZN7ap_uintILi8EEC1Ev(%struct.ap_uint* %buf4), !dbg !12132 ; [debug line = 636:71]
  call void @llvm.dbg.declare(metadata !{[5 x %struct.ap_uint]* %src_buf1}, metadata !12141), !dbg !12145 ; [debug line = 638:38] [debug variable = src_buf1]
  %122 = getelementptr inbounds [5 x %struct.ap_uint]* %src_buf1, i32 0, i32 0, !dbg !12146 ; [#uses=0 type=%struct.ap_uint*] [debug line = 640:44]
  br label %arrayctor.loop2

arrayctor.loop2:                                  ; preds = %arrayctor.loop2, %119
  %123 = phi i32 [ 0, %119 ], [ %124, %arrayctor.loop2 ], !dbg !12146 ; [#uses=3 type=i32] [debug line = 640:44]
  %124 = add i32 %123, 1, !dbg !12146             ; [#uses=1 type=i32] [debug line = 640:44]
  %125 = getelementptr inbounds [5 x %struct.ap_uint]* %src_buf1, i32 0, i32 %123, !dbg !12146 ; [#uses=1 type=%struct.ap_uint*] [debug line = 640:44]
  call void @_ZN7ap_uintILi8EEC1Ev(%struct.ap_uint* %125), !dbg !12146 ; [debug line = 640:44]
  %126 = icmp eq i32 %123, 4, !dbg !12146         ; [#uses=1 type=i1] [debug line = 640:44]
  br i1 %126, label %127, label %arrayctor.loop2, !dbg !12146 ; [debug line = 640:44]

; <label>:127                                     ; preds = %arrayctor.loop2
  br label %128, !dbg !12146                      ; [debug line = 640:44]

; <label>:128                                     ; preds = %127
  call void @llvm.dbg.declare(metadata !{[5 x %struct.ap_uint]* %src_buf2}, metadata !12147), !dbg !12148 ; [debug line = 638:80] [debug variable = src_buf2]
  %129 = getelementptr inbounds [5 x %struct.ap_uint]* %src_buf2, i32 0, i32 0, !dbg !12146 ; [#uses=0 type=%struct.ap_uint*] [debug line = 640:44]
  br label %arrayctor.loop3

arrayctor.loop3:                                  ; preds = %arrayctor.loop3, %128
  %130 = phi i32 [ 0, %128 ], [ %131, %arrayctor.loop3 ], !dbg !12146 ; [#uses=3 type=i32] [debug line = 640:44]
  %131 = add i32 %130, 1, !dbg !12146             ; [#uses=1 type=i32] [debug line = 640:44]
  %132 = getelementptr inbounds [5 x %struct.ap_uint]* %src_buf2, i32 0, i32 %130, !dbg !12146 ; [#uses=1 type=%struct.ap_uint*] [debug line = 640:44]
  call void @_ZN7ap_uintILi8EEC1Ev(%struct.ap_uint* %132), !dbg !12146 ; [debug line = 640:44]
  %133 = icmp eq i32 %130, 4, !dbg !12146         ; [#uses=1 type=i1] [debug line = 640:44]
  br i1 %133, label %134, label %arrayctor.loop3, !dbg !12146 ; [debug line = 640:44]

; <label>:134                                     ; preds = %arrayctor.loop3
  br label %135, !dbg !12146                      ; [debug line = 640:44]

; <label>:135                                     ; preds = %134
  call void @llvm.dbg.declare(metadata !{[5 x %struct.ap_uint]* %src_buf3}, metadata !12149), !dbg !12150 ; [debug line = 639:4] [debug variable = src_buf3]
  %136 = getelementptr inbounds [5 x %struct.ap_uint]* %src_buf3, i32 0, i32 0, !dbg !12146 ; [#uses=0 type=%struct.ap_uint*] [debug line = 640:44]
  br label %arrayctor.loop4

arrayctor.loop4:                                  ; preds = %arrayctor.loop4, %135
  %137 = phi i32 [ 0, %135 ], [ %138, %arrayctor.loop4 ], !dbg !12146 ; [#uses=3 type=i32] [debug line = 640:44]
  %138 = add i32 %137, 1, !dbg !12146             ; [#uses=1 type=i32] [debug line = 640:44]
  %139 = getelementptr inbounds [5 x %struct.ap_uint]* %src_buf3, i32 0, i32 %137, !dbg !12146 ; [#uses=1 type=%struct.ap_uint*] [debug line = 640:44]
  call void @_ZN7ap_uintILi8EEC1Ev(%struct.ap_uint* %139), !dbg !12146 ; [debug line = 640:44]
  %140 = icmp eq i32 %137, 4, !dbg !12146         ; [#uses=1 type=i1] [debug line = 640:44]
  br i1 %140, label %141, label %arrayctor.loop4, !dbg !12146 ; [debug line = 640:44]

; <label>:141                                     ; preds = %arrayctor.loop4
  br label %142, !dbg !12146                      ; [debug line = 640:44]

; <label>:142                                     ; preds = %141
  call void @llvm.dbg.declare(metadata !{[5 x %struct.ap_uint]* %src_buf4}, metadata !12151), !dbg !12152 ; [debug line = 639:46] [debug variable = src_buf4]
  %143 = getelementptr inbounds [5 x %struct.ap_uint]* %src_buf4, i32 0, i32 0, !dbg !12146 ; [#uses=0 type=%struct.ap_uint*] [debug line = 640:44]
  br label %arrayctor.loop5

arrayctor.loop5:                                  ; preds = %arrayctor.loop5, %142
  %144 = phi i32 [ 0, %142 ], [ %145, %arrayctor.loop5 ], !dbg !12146 ; [#uses=3 type=i32] [debug line = 640:44]
  %145 = add i32 %144, 1, !dbg !12146             ; [#uses=1 type=i32] [debug line = 640:44]
  %146 = getelementptr inbounds [5 x %struct.ap_uint]* %src_buf4, i32 0, i32 %144, !dbg !12146 ; [#uses=1 type=%struct.ap_uint*] [debug line = 640:44]
  call void @_ZN7ap_uintILi8EEC1Ev(%struct.ap_uint* %146), !dbg !12146 ; [debug line = 640:44]
  %147 = icmp eq i32 %144, 4, !dbg !12146         ; [#uses=1 type=i1] [debug line = 640:44]
  br i1 %147, label %148, label %arrayctor.loop5, !dbg !12146 ; [debug line = 640:44]

; <label>:148                                     ; preds = %arrayctor.loop5
  br label %149, !dbg !12146                      ; [debug line = 640:44]

; <label>:149                                     ; preds = %148
  call void @llvm.dbg.declare(metadata !{[5 x %struct.ap_uint]* %src_buf5}, metadata !12153), !dbg !12154 ; [debug line = 640:4] [debug variable = src_buf5]
  %150 = getelementptr inbounds [5 x %struct.ap_uint]* %src_buf5, i32 0, i32 0, !dbg !12146 ; [#uses=0 type=%struct.ap_uint*] [debug line = 640:44]
  br label %arrayctor.loop6

arrayctor.loop6:                                  ; preds = %arrayctor.loop6, %149
  %151 = phi i32 [ 0, %149 ], [ %152, %arrayctor.loop6 ], !dbg !12146 ; [#uses=3 type=i32] [debug line = 640:44]
  %152 = add i32 %151, 1, !dbg !12146             ; [#uses=1 type=i32] [debug line = 640:44]
  %153 = getelementptr inbounds [5 x %struct.ap_uint]* %src_buf5, i32 0, i32 %151, !dbg !12146 ; [#uses=1 type=%struct.ap_uint*] [debug line = 640:44]
  call void @_ZN7ap_uintILi8EEC1Ev(%struct.ap_uint* %153), !dbg !12146 ; [debug line = 640:44]
  %154 = icmp eq i32 %151, 4, !dbg !12146         ; [#uses=1 type=i1] [debug line = 640:44]
  br i1 %154, label %155, label %arrayctor.loop6, !dbg !12146 ; [debug line = 640:44]

; <label>:155                                     ; preds = %arrayctor.loop6
  br label %156, !dbg !12146                      ; [debug line = 640:44]

; <label>:156                                     ; preds = %155
  %157 = getelementptr inbounds [5 x %struct.ap_uint]* %src_buf1, i32 0, i32 0, !dbg !12155 ; [#uses=1 type=%struct.ap_uint*] [debug line = 641:1]
  call void (...)* @_ssdm_SpecArrayPartition(%struct.ap_uint* %157, i32 1, i8* getelementptr inbounds ([9 x i8]* @.str9, i32 0, i32 0), i32 0, i8* getelementptr inbounds ([1 x i8]* @.str, i32 0, i32 0)) nounwind, !dbg !12155 ; [debug line = 641:1]
  %158 = getelementptr inbounds [5 x %struct.ap_uint]* %src_buf2, i32 0, i32 0, !dbg !12156 ; [#uses=1 type=%struct.ap_uint*] [debug line = 642:1]
  call void (...)* @_ssdm_SpecArrayPartition(%struct.ap_uint* %158, i32 1, i8* getelementptr inbounds ([9 x i8]* @.str9, i32 0, i32 0), i32 0, i8* getelementptr inbounds ([1 x i8]* @.str, i32 0, i32 0)) nounwind, !dbg !12156 ; [debug line = 642:1]
  %159 = getelementptr inbounds [5 x %struct.ap_uint]* %src_buf3, i32 0, i32 0, !dbg !12157 ; [#uses=1 type=%struct.ap_uint*] [debug line = 643:1]
  call void (...)* @_ssdm_SpecArrayPartition(%struct.ap_uint* %159, i32 1, i8* getelementptr inbounds ([9 x i8]* @.str9, i32 0, i32 0), i32 0, i8* getelementptr inbounds ([1 x i8]* @.str, i32 0, i32 0)) nounwind, !dbg !12157 ; [debug line = 643:1]
  %160 = getelementptr inbounds [5 x %struct.ap_uint]* %src_buf4, i32 0, i32 0, !dbg !12158 ; [#uses=1 type=%struct.ap_uint*] [debug line = 644:1]
  call void (...)* @_ssdm_SpecArrayPartition(%struct.ap_uint* %160, i32 1, i8* getelementptr inbounds ([9 x i8]* @.str9, i32 0, i32 0), i32 0, i8* getelementptr inbounds ([1 x i8]* @.str, i32 0, i32 0)) nounwind, !dbg !12158 ; [debug line = 644:1]
  %161 = getelementptr inbounds [5 x %struct.ap_uint]* %src_buf5, i32 0, i32 0, !dbg !12159 ; [#uses=1 type=%struct.ap_uint*] [debug line = 645:1]
  call void (...)* @_ssdm_SpecArrayPartition(%struct.ap_uint* %161, i32 1, i8* getelementptr inbounds ([9 x i8]* @.str9, i32 0, i32 0), i32 0, i8* getelementptr inbounds ([1 x i8]* @.str, i32 0, i32 0)) nounwind, !dbg !12159 ; [debug line = 645:1]
  call void @llvm.dbg.declare(metadata !{%struct.ap_uint* %tmp_in}, metadata !12160), !dbg !12161 ; [debug line = 647:43] [debug variable = tmp_in]
  call void @_ZN7ap_uintILi8EEC1Ev(%struct.ap_uint* %tmp_in), !dbg !12162 ; [debug line = 647:49]
  call void @llvm.dbg.declare(metadata !{%struct.ap_uint* %inter_valx}, metadata !12163), !dbg !12164 ; [debug line = 648:43] [debug variable = inter_valx]
  call void @_ZN7ap_uintILi8EEC1Ei(%struct.ap_uint* %inter_valx, i32 0), !dbg !12165 ; [debug line = 648:73]
  call void @llvm.dbg.declare(metadata !{%struct.ap_uint* %inter_valy}, metadata !12166), !dbg !12167 ; [debug line = 648:59] [debug variable = inter_valy]
  call void @_ZN7ap_uintILi8EEC1Ei(%struct.ap_uint* %inter_valy, i32 0), !dbg !12165 ; [debug line = 648:73]
  call void @llvm.dbg.declare(metadata !{[5 x [640 x %struct.ap_uint]]* %buf}, metadata !12168), !dbg !12171 ; [debug line = 650:43] [debug variable = buf]
  %162 = getelementptr inbounds [5 x [640 x %struct.ap_uint]]* %buf, i32 0, i32 0, i32 0, !dbg !12172 ; [#uses=0 type=%struct.ap_uint*] [debug line = 650:94]
  br label %arrayctor.loop7

arrayctor.loop7:                                  ; preds = %arrayctor.loop78, %156
  %163 = phi i32 [ 0, %156 ], [ %164, %arrayctor.loop78 ], !dbg !12172 ; [#uses=3 type=i32] [debug line = 650:94]
  %164 = add i32 %163, 1, !dbg !12172             ; [#uses=1 type=i32] [debug line = 650:94]
  %165 = getelementptr inbounds [5 x [640 x %struct.ap_uint]]* %buf, i32 0, i32 %163, !dbg !12172 ; [#uses=1 type=[640 x %struct.ap_uint]*] [debug line = 650:94]
  br label %arrayctor.loop10

arrayctor.loop10:                                 ; preds = %arrayctor.loop10, %arrayctor.loop7
  %166 = phi i32 [ 0, %arrayctor.loop7 ], [ %167, %arrayctor.loop10 ], !dbg !12172 ; [#uses=3 type=i32] [debug line = 650:94]
  %167 = add i32 %166, 1, !dbg !12172             ; [#uses=1 type=i32] [debug line = 650:94]
  %168 = getelementptr inbounds [640 x %struct.ap_uint]* %165, i32 0, i32 %166, !dbg !12172 ; [#uses=1 type=%struct.ap_uint*] [debug line = 650:94]
  call void @_ZN7ap_uintILi8EEC1Ev(%struct.ap_uint* %168), !dbg !12172 ; [debug line = 650:94]
  %169 = icmp eq i32 %166, 639, !dbg !12172       ; [#uses=1 type=i1] [debug line = 650:94]
  br i1 %169, label %arrayctor.loop79, label %arrayctor.loop10, !dbg !12172 ; [debug line = 650:94]

arrayctor.loop79:                                 ; preds = %arrayctor.loop10
  br label %arrayctor.loop78, !dbg !12172         ; [debug line = 650:94]

; <label>:170                                     ; preds = %arrayctor.loop78
  br label %171, !dbg !12172                      ; [debug line = 650:94]

; <label>:171                                     ; preds = %170
  %172 = getelementptr inbounds [5 x [640 x %struct.ap_uint]]* %buf, i32 0, i32 0, !dbg !12173 ; [#uses=1 type=[640 x %struct.ap_uint]*] [debug line = 651:1]
  call void (...)* @_ssdm_op_SpecResource([640 x %struct.ap_uint]* %172, i8* getelementptr inbounds ([1 x i8]* @.str, i32 0, i32 0), i8* getelementptr inbounds ([13 x i8]* @.str10, i32 0, i32 0), i8* getelementptr inbounds ([1 x i8]* @.str, i32 0, i32 0), i32 -1, i8* getelementptr inbounds ([1 x i8]* @.str, i32 0, i32 0), i8* getelementptr inbounds ([1 x i8]* @.str, i32 0, i32 0), i8* getelementptr inbounds ([1 x i8]* @.str, i32 0, i32 0), i8* getelementptr inbounds ([1 x i8]* @.str, i32 0, i32 0), i8* getelementptr inbounds ([1 x i8]* @.str, i32 0, i32 0)) nounwind, !dbg !12173 ; [debug line = 651:1]
  %173 = getelementptr inbounds [5 x [640 x %struct.ap_uint]]* %buf, i32 0, i32 0, !dbg !12174 ; [#uses=1 type=[640 x %struct.ap_uint]*] [debug line = 652:1]
  call void (...)* @_ssdm_SpecArrayPartition([640 x %struct.ap_uint]* %173, i32 1, i8* getelementptr inbounds ([9 x i8]* @.str9, i32 0, i32 0), i32 0, i8* getelementptr inbounds ([1 x i8]* @.str, i32 0, i32 0)) nounwind, !dbg !12174 ; [debug line = 652:1]
  call void @_ZN7ap_uintILi13EEC1Ei(%struct.ap_uint.9* %6, i32 2), !dbg !12175 ; [debug line = 654:2]
  %174 = call %struct.ap_uint.9* @_ZN7ap_uintILi13EEaSERKS0_(%struct.ap_uint.9* %row_ind, %struct.ap_uint.9* %6), !dbg !12175 ; [#uses=0 type=%struct.ap_uint.9*] [debug line = 654:2]
  br label %175, !dbg !12175                      ; [debug line = 654:2]

; <label>:175                                     ; preds = %171
  call void @_ZN7ap_uintILi13EEC1Ei(%struct.ap_uint.9* %7, i32 0), !dbg !12176 ; [debug line = 657:6]
  %176 = call %struct.ap_uint.9* @_ZN7ap_uintILi13EEaSERKS0_(%struct.ap_uint.9* %col, %struct.ap_uint.9* %7), !dbg !12176 ; [#uses=0 type=%struct.ap_uint.9*] [debug line = 657:6]
  br label %177, !dbg !12176                      ; [debug line = 657:6]

; <label>:177                                     ; preds = %204, %175
  %178 = bitcast %struct.ap_uint.9* %col to %struct.ap_int_base.10*, !dbg !12178 ; [#uses=1 type=%struct.ap_int_base.10*] [debug line = 657:15]
  %179 = load i16* %5, align 2, !dbg !12178       ; [#uses=1 type=i16] [debug line = 657:15]
  %180 = call zeroext i1 @_ZltILi13ELb0EEbRK11ap_int_baseIXT_EXT0_EXleT_Li64EEEt(%struct.ap_int_base.10* %178, i16 zeroext %179), !dbg !12178 ; [#uses=1 type=i1] [debug line = 657:15]
  br i1 %180, label %181, label %207, !dbg !12178 ; [debug line = 657:15]

; <label>:181                                     ; preds = %177
  call void (...)* @_ssdm_op_SpecLoopName(i8* getelementptr inbounds ([15 x i8]* @.str11, i32 0, i32 0)) nounwind, !dbg !12179 ; [debug line = 658:3]
  call void (...)* @_ssdm_RegionBegin(i8* getelementptr inbounds ([15 x i8]* @.str11, i32 0, i32 0)) nounwind, !dbg !12179 ; [debug line = 658:3]
  call void (...)* @_ssdm_op_SpecLoopTripCount(i32 640, i32 640, i32 0, i8* getelementptr inbounds ([1 x i8]* @.str, i32 0, i32 0)) nounwind, !dbg !12181 ; [debug line = 659:1]
  call void (...)* @_ssdm_op_SpecPipeline(i32 -1, i32 1, i32 1, i32 0, i8* getelementptr inbounds ([1 x i8]* @.str, i32 0, i32 0)) nounwind, !dbg !12182 ; [debug line = 660:1]
  %182 = bitcast %struct.ap_uint.9* %col to %struct.ap_int_base.10*, !dbg !12183 ; [#uses=1 type=%struct.ap_int_base.10*] [debug line = 661:9]
  %183 = call zeroext i16 @_ZNK11ap_int_baseILi13ELb0ELb1EEcvtEv(%struct.ap_int_base.10* %182), !dbg !12183 ; [#uses=1 type=i16] [debug line = 661:9]
  %184 = zext i16 %183 to i32, !dbg !12183        ; [#uses=1 type=i32] [debug line = 661:9]
  %185 = getelementptr inbounds [5 x [640 x %struct.ap_uint]]* %buf, i32 0, i32 0, !dbg !12183 ; [#uses=1 type=[640 x %struct.ap_uint]*] [debug line = 661:9]
  %186 = getelementptr inbounds [640 x %struct.ap_uint]* %185, i32 0, i32 %184, !dbg !12183 ; [#uses=1 type=%struct.ap_uint*] [debug line = 661:9]
  call void @_ZN7ap_uintILi8EEC1Ei(%struct.ap_uint* %8, i32 0), !dbg !12183 ; [debug line = 661:9]
  %187 = call %struct.ap_uint* @_ZN7ap_uintILi8EEaSERKS0_(%struct.ap_uint* %186, %struct.ap_uint* %8), !dbg !12183 ; [#uses=0 type=%struct.ap_uint*] [debug line = 661:9]
  %188 = bitcast %struct.ap_uint.9* %col to %struct.ap_int_base.10*, !dbg !12184 ; [#uses=1 type=%struct.ap_int_base.10*] [debug line = 662:10]
  %189 = call zeroext i16 @_ZNK11ap_int_baseILi13ELb0ELb1EEcvtEv(%struct.ap_int_base.10* %188), !dbg !12184 ; [#uses=1 type=i16] [debug line = 662:10]
  %190 = zext i16 %189 to i32, !dbg !12184        ; [#uses=1 type=i32] [debug line = 662:10]
  %191 = getelementptr inbounds [5 x [640 x %struct.ap_uint]]* %buf, i32 0, i32 1, !dbg !12184 ; [#uses=1 type=[640 x %struct.ap_uint]*] [debug line = 662:10]
  %192 = getelementptr inbounds [640 x %struct.ap_uint]* %191, i32 0, i32 %190, !dbg !12184 ; [#uses=1 type=%struct.ap_uint*] [debug line = 662:10]
  call void @_ZN7ap_uintILi8EEC1Ei(%struct.ap_uint* %9, i32 0), !dbg !12184 ; [debug line = 662:10]
  %193 = call %struct.ap_uint* @_ZN7ap_uintILi8EEaSERKS0_(%struct.ap_uint* %192, %struct.ap_uint* %9), !dbg !12184 ; [#uses=0 type=%struct.ap_uint*] [debug line = 662:10]
  %194 = bitcast %struct.ap_uint.9* %col to %struct.ap_int_base.10*, !dbg !12185 ; [#uses=1 type=%struct.ap_int_base.10*] [debug line = 663:16]
  %195 = call zeroext i16 @_ZNK11ap_int_baseILi13ELb0ELb1EEcvtEv(%struct.ap_int_base.10* %194), !dbg !12185 ; [#uses=1 type=i16] [debug line = 663:16]
  %196 = zext i16 %195 to i32, !dbg !12185        ; [#uses=1 type=i32] [debug line = 663:16]
  %197 = bitcast %struct.ap_uint.9* %row_ind to %struct.ap_int_base.10*, !dbg !12186 ; [#uses=1 type=%struct.ap_int_base.10*] [debug line = 663:7]
  %198 = call zeroext i16 @_ZNK11ap_int_baseILi13ELb0ELb1EEcvtEv(%struct.ap_int_base.10* %197), !dbg !12186 ; [#uses=1 type=i16] [debug line = 663:7]
  %199 = zext i16 %198 to i32, !dbg !12186        ; [#uses=1 type=i32] [debug line = 663:7]
  %200 = getelementptr inbounds [5 x [640 x %struct.ap_uint]]* %buf, i32 0, i32 %199, !dbg !12186 ; [#uses=1 type=[640 x %struct.ap_uint]*] [debug line = 663:7]
  %201 = getelementptr inbounds [640 x %struct.ap_uint]* %200, i32 0, i32 %196, !dbg !12186 ; [#uses=1 type=%struct.ap_uint*] [debug line = 663:7]
  %202 = load %"class.hls::stream"** %1, align 4, !dbg !12187 ; [#uses=1 type=%"class.hls::stream"*] [debug line = 663:23]
  call void @_ZN3hls6streamI7ap_uintILi8EEE4readEv(%struct.ap_uint* sret %10, %"class.hls::stream"* %202), !dbg !12187 ; [debug line = 663:23]
  %203 = call %struct.ap_uint* @_ZN7ap_uintILi8EEaSERKS0_(%struct.ap_uint* %201, %struct.ap_uint* %10), !dbg !12187 ; [#uses=0 type=%struct.ap_uint*] [debug line = 663:23]
  call void (...)* @_ssdm_RegionEnd(i8* getelementptr inbounds ([15 x i8]* @.str11, i32 0, i32 0)) nounwind, !dbg !12188 ; [debug line = 664:2]
  br label %204, !dbg !12188                      ; [debug line = 664:2]

; <label>:204                                     ; preds = %181
  %205 = bitcast %struct.ap_uint.9* %col to %struct.ap_int_base.10*, !dbg !12189 ; [#uses=1 type=%struct.ap_int_base.10*] [debug line = 657:32]
  call void @_ZN11ap_int_baseILi13ELb0ELb1EEppEi(%struct.ap_int_base.10* sret %11, %struct.ap_int_base.10* %205, i32 0), !dbg !12189 ; [debug line = 657:32]
  br label %177, !dbg !12189                      ; [debug line = 657:32]

arrayctor.loop78:                                 ; preds = %arrayctor.loop79
  %206 = icmp eq i32 %163, 4, !dbg !12172         ; [#uses=1 type=i1] [debug line = 650:94]
  br i1 %206, label %170, label %arrayctor.loop7, !dbg !12172 ; [debug line = 650:94]

; <label>:207                                     ; preds = %177
  %208 = bitcast %struct.ap_uint.9* %row_ind to %struct.ap_int_base.10*, !dbg !12190 ; [#uses=1 type=%struct.ap_int_base.10*] [debug line = 666:2]
  call void @_ZN11ap_int_baseILi13ELb0ELb1EEppEi(%struct.ap_int_base.10* sret %12, %struct.ap_int_base.10* %208, i32 0), !dbg !12190 ; [debug line = 666:2]
  br label %209, !dbg !12190                      ; [debug line = 666:2]

; <label>:209                                     ; preds = %207
  call void @_ZN7ap_uintILi13EEC1Ei(%struct.ap_uint.9* %13, i32 0), !dbg !12191 ; [debug line = 669:6]
  %210 = call %struct.ap_uint.9* @_ZN7ap_uintILi13EEaSERKS0_(%struct.ap_uint.9* %col, %struct.ap_uint.9* %13), !dbg !12191 ; [#uses=0 type=%struct.ap_uint.9*] [debug line = 669:6]
  br label %211, !dbg !12191                      ; [debug line = 669:6]

; <label>:211                                     ; preds = %226, %209
  %212 = bitcast %struct.ap_uint.9* %col to %struct.ap_int_base.10*, !dbg !12193 ; [#uses=1 type=%struct.ap_int_base.10*] [debug line = 669:15]
  %213 = load i16* %5, align 2, !dbg !12193       ; [#uses=1 type=i16] [debug line = 669:15]
  %214 = call zeroext i1 @_ZltILi13ELb0EEbRK11ap_int_baseIXT_EXT0_EXleT_Li64EEEt(%struct.ap_int_base.10* %212, i16 zeroext %213), !dbg !12193 ; [#uses=1 type=i1] [debug line = 669:15]
  br i1 %214, label %215, label %228, !dbg !12193 ; [debug line = 669:15]

; <label>:215                                     ; preds = %211
  call void (...)* @_ssdm_op_SpecLoopName(i8* getelementptr inbounds ([15 x i8]* @.str13, i32 0, i32 0)) nounwind, !dbg !12194 ; [debug line = 670:3]
  call void (...)* @_ssdm_RegionBegin(i8* getelementptr inbounds ([15 x i8]* @.str13, i32 0, i32 0)) nounwind, !dbg !12194 ; [debug line = 670:3]
  call void (...)* @_ssdm_op_SpecLoopTripCount(i32 640, i32 640, i32 0, i8* getelementptr inbounds ([1 x i8]* @.str, i32 0, i32 0)) nounwind, !dbg !12196 ; [debug line = 671:1]
  call void (...)* @_ssdm_op_SpecPipeline(i32 -1, i32 1, i32 1, i32 0, i8* getelementptr inbounds ([1 x i8]* @.str, i32 0, i32 0)) nounwind, !dbg !12197 ; [debug line = 672:1]
  %216 = bitcast %struct.ap_uint.9* %col to %struct.ap_int_base.10*, !dbg !12198 ; [#uses=1 type=%struct.ap_int_base.10*] [debug line = 674:15]
  %217 = call zeroext i16 @_ZNK11ap_int_baseILi13ELb0ELb1EEcvtEv(%struct.ap_int_base.10* %216), !dbg !12198 ; [#uses=1 type=i16] [debug line = 674:15]
  %218 = zext i16 %217 to i32, !dbg !12198        ; [#uses=1 type=i32] [debug line = 674:15]
  %219 = bitcast %struct.ap_uint.9* %row_ind to %struct.ap_int_base.10*, !dbg !12199 ; [#uses=1 type=%struct.ap_int_base.10*] [debug line = 674:6]
  %220 = call zeroext i16 @_ZNK11ap_int_baseILi13ELb0ELb1EEcvtEv(%struct.ap_int_base.10* %219), !dbg !12199 ; [#uses=1 type=i16] [debug line = 674:6]
  %221 = zext i16 %220 to i32, !dbg !12199        ; [#uses=1 type=i32] [debug line = 674:6]
  %222 = getelementptr inbounds [5 x [640 x %struct.ap_uint]]* %buf, i32 0, i32 %221, !dbg !12199 ; [#uses=1 type=[640 x %struct.ap_uint]*] [debug line = 674:6]
  %223 = getelementptr inbounds [640 x %struct.ap_uint]* %222, i32 0, i32 %218, !dbg !12199 ; [#uses=1 type=%struct.ap_uint*] [debug line = 674:6]
  %224 = load %"class.hls::stream"** %1, align 4, !dbg !12200 ; [#uses=1 type=%"class.hls::stream"*] [debug line = 674:22]
  call void @_ZN3hls6streamI7ap_uintILi8EEE4readEv(%struct.ap_uint* sret %14, %"class.hls::stream"* %224), !dbg !12200 ; [debug line = 674:22]
  %225 = call %struct.ap_uint* @_ZN7ap_uintILi8EEaSERKS0_(%struct.ap_uint* %223, %struct.ap_uint* %14), !dbg !12200 ; [#uses=0 type=%struct.ap_uint*] [debug line = 674:22]
  call void (...)* @_ssdm_RegionEnd(i8* getelementptr inbounds ([15 x i8]* @.str13, i32 0, i32 0)) nounwind, !dbg !12201 ; [debug line = 675:2]
  br label %226, !dbg !12201                      ; [debug line = 675:2]

; <label>:226                                     ; preds = %215
  %227 = bitcast %struct.ap_uint.9* %col to %struct.ap_int_base.10*, !dbg !12202 ; [#uses=1 type=%struct.ap_int_base.10*] [debug line = 669:32]
  call void @_ZN11ap_int_baseILi13ELb0ELb1EEppEi(%struct.ap_int_base.10* sret %15, %struct.ap_int_base.10* %227, i32 0), !dbg !12202 ; [debug line = 669:32]
  br label %211, !dbg !12202                      ; [debug line = 669:32]

; <label>:228                                     ; preds = %211
  %229 = bitcast %struct.ap_uint.9* %row_ind to %struct.ap_int_base.10*, !dbg !12203 ; [#uses=1 type=%struct.ap_int_base.10*] [debug line = 676:2]
  call void @_ZN11ap_int_baseILi13ELb0ELb1EEppEi(%struct.ap_int_base.10* sret %16, %struct.ap_int_base.10* %229, i32 0), !dbg !12203 ; [debug line = 676:2]
  br label %230, !dbg !12203                      ; [debug line = 676:2]

; <label>:230                                     ; preds = %228
  call void @_ZN7ap_uintILi13EEC1Ei(%struct.ap_uint.9* %17, i32 2), !dbg !12204 ; [debug line = 679:6]
  %231 = call %struct.ap_uint.9* @_ZN7ap_uintILi13EEaSERKS0_(%struct.ap_uint.9* %row, %struct.ap_uint.9* %17), !dbg !12204 ; [#uses=0 type=%struct.ap_uint.9*] [debug line = 679:6]
  br label %232, !dbg !12204                      ; [debug line = 679:6]

; <label>:232                                     ; preds = %595, %230
  %233 = bitcast %struct.ap_uint.9* %row to %struct.ap_int_base.10*, !dbg !12206 ; [#uses=1 type=%struct.ap_int_base.10*] [debug line = 679:15]
  %234 = load i16* %4, align 2, !dbg !12206       ; [#uses=1 type=i16] [debug line = 679:15]
  %235 = zext i16 %234 to i32, !dbg !12206        ; [#uses=1 type=i32] [debug line = 679:15]
  %236 = add nsw i32 %235, 2, !dbg !12206         ; [#uses=1 type=i32] [debug line = 679:15]
  %237 = call zeroext i1 @_ZltILi13ELb0EEbRK11ap_int_baseIXT_EXT0_EXleT_Li64EEEi(%struct.ap_int_base.10* %233, i32 %236), !dbg !12206 ; [#uses=1 type=i1] [debug line = 679:15]
  br i1 %237, label %238, label %597, !dbg !12206 ; [debug line = 679:15]

; <label>:238                                     ; preds = %232
  call void (...)* @_ssdm_op_SpecLoopName(i8* getelementptr inbounds ([9 x i8]* @.str14, i32 0, i32 0)) nounwind, !dbg !12207 ; [debug line = 680:3]
  call void (...)* @_ssdm_RegionBegin(i8* getelementptr inbounds ([9 x i8]* @.str14, i32 0, i32 0)) nounwind, !dbg !12207 ; [debug line = 680:3]
  call void (...)* @_ssdm_op_SpecLoopTripCount(i32 480, i32 480, i32 0, i8* getelementptr inbounds ([1 x i8]* @.str, i32 0, i32 0)) nounwind, !dbg !12209 ; [debug line = 681:1]
  %239 = bitcast %struct.ap_uint.9* %row_ind to %struct.ap_int_base.10*, !dbg !12210 ; [#uses=1 type=%struct.ap_int_base.10*] [debug line = 684:5]
  %240 = call zeroext i1 @_ZeqILi13ELb0EEbRK11ap_int_baseIXT_EXT0_EXleT_Li64EEEi(%struct.ap_int_base.10* %239, i32 4), !dbg !12210 ; [#uses=1 type=i1] [debug line = 684:5]
  br i1 %240, label %241, label %247, !dbg !12210 ; [debug line = 684:5]

; <label>:241                                     ; preds = %238
  call void @_ZN7ap_uintILi4EEC1Ei(%struct.ap_uint.12* %18, i32 0), !dbg !12211 ; [debug line = 686:4]
  %242 = call %struct.ap_uint.12* @_ZN7ap_uintILi4EEaSERKS0_(%struct.ap_uint.12* %tp1, %struct.ap_uint.12* %18), !dbg !12211 ; [#uses=0 type=%struct.ap_uint.12*] [debug line = 686:4]
  call void @_ZN7ap_uintILi4EEC1Ei(%struct.ap_uint.12* %19, i32 1), !dbg !12213 ; [debug line = 686:13]
  %243 = call %struct.ap_uint.12* @_ZN7ap_uintILi4EEaSERKS0_(%struct.ap_uint.12* %tp2, %struct.ap_uint.12* %19), !dbg !12213 ; [#uses=0 type=%struct.ap_uint.12*] [debug line = 686:13]
  call void @_ZN7ap_uintILi4EEC1Ei(%struct.ap_uint.12* %20, i32 2), !dbg !12214 ; [debug line = 686:22]
  %244 = call %struct.ap_uint.12* @_ZN7ap_uintILi4EEaSERKS0_(%struct.ap_uint.12* %mid, %struct.ap_uint.12* %20), !dbg !12214 ; [#uses=0 type=%struct.ap_uint.12*] [debug line = 686:22]
  call void @_ZN7ap_uintILi4EEC1Ei(%struct.ap_uint.12* %21, i32 3), !dbg !12215 ; [debug line = 686:31]
  %245 = call %struct.ap_uint.12* @_ZN7ap_uintILi4EEaSERKS0_(%struct.ap_uint.12* %bottom1, %struct.ap_uint.12* %21), !dbg !12215 ; [#uses=0 type=%struct.ap_uint.12*] [debug line = 686:31]
  call void @_ZN7ap_uintILi4EEC1Ei(%struct.ap_uint.12* %22, i32 4), !dbg !12216 ; [debug line = 686:44]
  %246 = call %struct.ap_uint.12* @_ZN7ap_uintILi4EEaSERKS0_(%struct.ap_uint.12* %bottom2, %struct.ap_uint.12* %22), !dbg !12216 ; [#uses=0 type=%struct.ap_uint.12*] [debug line = 686:44]
  br label %287, !dbg !12217                      ; [debug line = 687:3]

; <label>:247                                     ; preds = %238
  %248 = bitcast %struct.ap_uint.9* %row_ind to %struct.ap_int_base.10*, !dbg !12218 ; [#uses=1 type=%struct.ap_int_base.10*] [debug line = 688:11]
  %249 = call zeroext i1 @_ZeqILi13ELb0EEbRK11ap_int_baseIXT_EXT0_EXleT_Li64EEEi(%struct.ap_int_base.10* %248, i32 0), !dbg !12218 ; [#uses=1 type=i1] [debug line = 688:11]
  br i1 %249, label %250, label %256, !dbg !12218 ; [debug line = 688:11]

; <label>:250                                     ; preds = %247
  call void @_ZN7ap_uintILi4EEC1Ei(%struct.ap_uint.12* %23, i32 1), !dbg !12219 ; [debug line = 690:4]
  %251 = call %struct.ap_uint.12* @_ZN7ap_uintILi4EEaSERKS0_(%struct.ap_uint.12* %tp1, %struct.ap_uint.12* %23), !dbg !12219 ; [#uses=0 type=%struct.ap_uint.12*] [debug line = 690:4]
  call void @_ZN7ap_uintILi4EEC1Ei(%struct.ap_uint.12* %24, i32 2), !dbg !12221 ; [debug line = 690:13]
  %252 = call %struct.ap_uint.12* @_ZN7ap_uintILi4EEaSERKS0_(%struct.ap_uint.12* %tp2, %struct.ap_uint.12* %24), !dbg !12221 ; [#uses=0 type=%struct.ap_uint.12*] [debug line = 690:13]
  call void @_ZN7ap_uintILi4EEC1Ei(%struct.ap_uint.12* %25, i32 3), !dbg !12222 ; [debug line = 690:22]
  %253 = call %struct.ap_uint.12* @_ZN7ap_uintILi4EEaSERKS0_(%struct.ap_uint.12* %mid, %struct.ap_uint.12* %25), !dbg !12222 ; [#uses=0 type=%struct.ap_uint.12*] [debug line = 690:22]
  call void @_ZN7ap_uintILi4EEC1Ei(%struct.ap_uint.12* %26, i32 4), !dbg !12223 ; [debug line = 690:31]
  %254 = call %struct.ap_uint.12* @_ZN7ap_uintILi4EEaSERKS0_(%struct.ap_uint.12* %bottom1, %struct.ap_uint.12* %26), !dbg !12223 ; [#uses=0 type=%struct.ap_uint.12*] [debug line = 690:31]
  call void @_ZN7ap_uintILi4EEC1Ei(%struct.ap_uint.12* %27, i32 0), !dbg !12224 ; [debug line = 690:44]
  %255 = call %struct.ap_uint.12* @_ZN7ap_uintILi4EEaSERKS0_(%struct.ap_uint.12* %bottom2, %struct.ap_uint.12* %27), !dbg !12224 ; [#uses=0 type=%struct.ap_uint.12*] [debug line = 690:44]
  br label %286, !dbg !12225                      ; [debug line = 691:3]

; <label>:256                                     ; preds = %247
  %257 = bitcast %struct.ap_uint.9* %row_ind to %struct.ap_int_base.10*, !dbg !12226 ; [#uses=1 type=%struct.ap_int_base.10*] [debug line = 692:11]
  %258 = call zeroext i1 @_ZeqILi13ELb0EEbRK11ap_int_baseIXT_EXT0_EXleT_Li64EEEi(%struct.ap_int_base.10* %257, i32 1), !dbg !12226 ; [#uses=1 type=i1] [debug line = 692:11]
  br i1 %258, label %259, label %265, !dbg !12226 ; [debug line = 692:11]

; <label>:259                                     ; preds = %256
  call void @_ZN7ap_uintILi4EEC1Ei(%struct.ap_uint.12* %28, i32 2), !dbg !12227 ; [debug line = 694:4]
  %260 = call %struct.ap_uint.12* @_ZN7ap_uintILi4EEaSERKS0_(%struct.ap_uint.12* %tp1, %struct.ap_uint.12* %28), !dbg !12227 ; [#uses=0 type=%struct.ap_uint.12*] [debug line = 694:4]
  call void @_ZN7ap_uintILi4EEC1Ei(%struct.ap_uint.12* %29, i32 3), !dbg !12229 ; [debug line = 694:13]
  %261 = call %struct.ap_uint.12* @_ZN7ap_uintILi4EEaSERKS0_(%struct.ap_uint.12* %tp2, %struct.ap_uint.12* %29), !dbg !12229 ; [#uses=0 type=%struct.ap_uint.12*] [debug line = 694:13]
  call void @_ZN7ap_uintILi4EEC1Ei(%struct.ap_uint.12* %30, i32 4), !dbg !12230 ; [debug line = 694:22]
  %262 = call %struct.ap_uint.12* @_ZN7ap_uintILi4EEaSERKS0_(%struct.ap_uint.12* %mid, %struct.ap_uint.12* %30), !dbg !12230 ; [#uses=0 type=%struct.ap_uint.12*] [debug line = 694:22]
  call void @_ZN7ap_uintILi4EEC1Ei(%struct.ap_uint.12* %31, i32 0), !dbg !12231 ; [debug line = 694:31]
  %263 = call %struct.ap_uint.12* @_ZN7ap_uintILi4EEaSERKS0_(%struct.ap_uint.12* %bottom1, %struct.ap_uint.12* %31), !dbg !12231 ; [#uses=0 type=%struct.ap_uint.12*] [debug line = 694:31]
  call void @_ZN7ap_uintILi4EEC1Ei(%struct.ap_uint.12* %32, i32 1), !dbg !12232 ; [debug line = 694:44]
  %264 = call %struct.ap_uint.12* @_ZN7ap_uintILi4EEaSERKS0_(%struct.ap_uint.12* %bottom2, %struct.ap_uint.12* %32), !dbg !12232 ; [#uses=0 type=%struct.ap_uint.12*] [debug line = 694:44]
  br label %285, !dbg !12233                      ; [debug line = 695:3]

; <label>:265                                     ; preds = %256
  %266 = bitcast %struct.ap_uint.9* %row_ind to %struct.ap_int_base.10*, !dbg !12234 ; [#uses=1 type=%struct.ap_int_base.10*] [debug line = 696:11]
  %267 = call zeroext i1 @_ZeqILi13ELb0EEbRK11ap_int_baseIXT_EXT0_EXleT_Li64EEEi(%struct.ap_int_base.10* %266, i32 2), !dbg !12234 ; [#uses=1 type=i1] [debug line = 696:11]
  br i1 %267, label %268, label %274, !dbg !12234 ; [debug line = 696:11]

; <label>:268                                     ; preds = %265
  call void @_ZN7ap_uintILi4EEC1Ei(%struct.ap_uint.12* %33, i32 3), !dbg !12235 ; [debug line = 698:4]
  %269 = call %struct.ap_uint.12* @_ZN7ap_uintILi4EEaSERKS0_(%struct.ap_uint.12* %tp1, %struct.ap_uint.12* %33), !dbg !12235 ; [#uses=0 type=%struct.ap_uint.12*] [debug line = 698:4]
  call void @_ZN7ap_uintILi4EEC1Ei(%struct.ap_uint.12* %34, i32 4), !dbg !12237 ; [debug line = 698:13]
  %270 = call %struct.ap_uint.12* @_ZN7ap_uintILi4EEaSERKS0_(%struct.ap_uint.12* %tp2, %struct.ap_uint.12* %34), !dbg !12237 ; [#uses=0 type=%struct.ap_uint.12*] [debug line = 698:13]
  call void @_ZN7ap_uintILi4EEC1Ei(%struct.ap_uint.12* %35, i32 0), !dbg !12238 ; [debug line = 698:22]
  %271 = call %struct.ap_uint.12* @_ZN7ap_uintILi4EEaSERKS0_(%struct.ap_uint.12* %mid, %struct.ap_uint.12* %35), !dbg !12238 ; [#uses=0 type=%struct.ap_uint.12*] [debug line = 698:22]
  call void @_ZN7ap_uintILi4EEC1Ei(%struct.ap_uint.12* %36, i32 1), !dbg !12239 ; [debug line = 698:31]
  %272 = call %struct.ap_uint.12* @_ZN7ap_uintILi4EEaSERKS0_(%struct.ap_uint.12* %bottom1, %struct.ap_uint.12* %36), !dbg !12239 ; [#uses=0 type=%struct.ap_uint.12*] [debug line = 698:31]
  call void @_ZN7ap_uintILi4EEC1Ei(%struct.ap_uint.12* %37, i32 2), !dbg !12240 ; [debug line = 698:44]
  %273 = call %struct.ap_uint.12* @_ZN7ap_uintILi4EEaSERKS0_(%struct.ap_uint.12* %bottom2, %struct.ap_uint.12* %37), !dbg !12240 ; [#uses=0 type=%struct.ap_uint.12*] [debug line = 698:44]
  br label %284, !dbg !12241                      ; [debug line = 699:3]

; <label>:274                                     ; preds = %265
  %275 = bitcast %struct.ap_uint.9* %row_ind to %struct.ap_int_base.10*, !dbg !12242 ; [#uses=1 type=%struct.ap_int_base.10*] [debug line = 700:11]
  %276 = call zeroext i1 @_ZeqILi13ELb0EEbRK11ap_int_baseIXT_EXT0_EXleT_Li64EEEi(%struct.ap_int_base.10* %275, i32 3), !dbg !12242 ; [#uses=1 type=i1] [debug line = 700:11]
  br i1 %276, label %277, label %283, !dbg !12242 ; [debug line = 700:11]

; <label>:277                                     ; preds = %274
  call void @_ZN7ap_uintILi4EEC1Ei(%struct.ap_uint.12* %38, i32 4), !dbg !12243 ; [debug line = 702:4]
  %278 = call %struct.ap_uint.12* @_ZN7ap_uintILi4EEaSERKS0_(%struct.ap_uint.12* %tp1, %struct.ap_uint.12* %38), !dbg !12243 ; [#uses=0 type=%struct.ap_uint.12*] [debug line = 702:4]
  call void @_ZN7ap_uintILi4EEC1Ei(%struct.ap_uint.12* %39, i32 0), !dbg !12245 ; [debug line = 702:13]
  %279 = call %struct.ap_uint.12* @_ZN7ap_uintILi4EEaSERKS0_(%struct.ap_uint.12* %tp2, %struct.ap_uint.12* %39), !dbg !12245 ; [#uses=0 type=%struct.ap_uint.12*] [debug line = 702:13]
  call void @_ZN7ap_uintILi4EEC1Ei(%struct.ap_uint.12* %40, i32 1), !dbg !12246 ; [debug line = 702:22]
  %280 = call %struct.ap_uint.12* @_ZN7ap_uintILi4EEaSERKS0_(%struct.ap_uint.12* %mid, %struct.ap_uint.12* %40), !dbg !12246 ; [#uses=0 type=%struct.ap_uint.12*] [debug line = 702:22]
  call void @_ZN7ap_uintILi4EEC1Ei(%struct.ap_uint.12* %41, i32 2), !dbg !12247 ; [debug line = 702:31]
  %281 = call %struct.ap_uint.12* @_ZN7ap_uintILi4EEaSERKS0_(%struct.ap_uint.12* %bottom1, %struct.ap_uint.12* %41), !dbg !12247 ; [#uses=0 type=%struct.ap_uint.12*] [debug line = 702:31]
  call void @_ZN7ap_uintILi4EEC1Ei(%struct.ap_uint.12* %42, i32 3), !dbg !12248 ; [debug line = 702:44]
  %282 = call %struct.ap_uint.12* @_ZN7ap_uintILi4EEaSERKS0_(%struct.ap_uint.12* %bottom2, %struct.ap_uint.12* %42), !dbg !12248 ; [#uses=0 type=%struct.ap_uint.12*] [debug line = 702:44]
  br label %283, !dbg !12249                      ; [debug line = 703:3]

; <label>:283                                     ; preds = %277, %274
  br label %284

; <label>:284                                     ; preds = %283, %268
  br label %285

; <label>:285                                     ; preds = %284, %259
  br label %286

; <label>:286                                     ; preds = %285, %250
  br label %287

; <label>:287                                     ; preds = %286, %241
  %288 = getelementptr inbounds [5 x %struct.ap_uint]* %src_buf1, i32 0, i32 0, !dbg !12250 ; [#uses=1 type=%struct.ap_uint*] [debug line = 705:3]
  %289 = getelementptr inbounds [5 x %struct.ap_uint]* %src_buf1, i32 0, i32 1, !dbg !12251 ; [#uses=1 type=%struct.ap_uint*] [debug line = 705:17]
  %290 = getelementptr inbounds [5 x %struct.ap_uint]* %src_buf1, i32 0, i32 2, !dbg !12252 ; [#uses=1 type=%struct.ap_uint*] [debug line = 705:31]
  %291 = getelementptr inbounds [5 x %struct.ap_uint]* %src_buf1, i32 0, i32 3, !dbg !12253 ; [#uses=1 type=%struct.ap_uint*] [debug line = 705:45]
  call void @_ZN7ap_uintILi8EEC1Ei(%struct.ap_uint* %43, i32 0), !dbg !12253 ; [debug line = 705:45]
  %292 = call %struct.ap_uint* @_ZN7ap_uintILi8EEaSERKS0_(%struct.ap_uint* %291, %struct.ap_uint* %43), !dbg !12253 ; [#uses=1 type=%struct.ap_uint*] [debug line = 705:45]
  %293 = call %struct.ap_uint* @_ZN7ap_uintILi8EEaSERKS0_(%struct.ap_uint* %290, %struct.ap_uint* %292), !dbg !12253 ; [#uses=1 type=%struct.ap_uint*] [debug line = 705:45]
  %294 = call %struct.ap_uint* @_ZN7ap_uintILi8EEaSERKS0_(%struct.ap_uint* %289, %struct.ap_uint* %293), !dbg !12253 ; [#uses=1 type=%struct.ap_uint*] [debug line = 705:45]
  %295 = call %struct.ap_uint* @_ZN7ap_uintILi8EEaSERKS0_(%struct.ap_uint* %288, %struct.ap_uint* %294), !dbg !12253 ; [#uses=0 type=%struct.ap_uint*] [debug line = 705:45]
  %296 = getelementptr inbounds [5 x %struct.ap_uint]* %src_buf2, i32 0, i32 0, !dbg !12254 ; [#uses=1 type=%struct.ap_uint*] [debug line = 706:3]
  %297 = getelementptr inbounds [5 x %struct.ap_uint]* %src_buf2, i32 0, i32 1, !dbg !12255 ; [#uses=1 type=%struct.ap_uint*] [debug line = 706:17]
  %298 = getelementptr inbounds [5 x %struct.ap_uint]* %src_buf2, i32 0, i32 2, !dbg !12256 ; [#uses=1 type=%struct.ap_uint*] [debug line = 706:31]
  %299 = getelementptr inbounds [5 x %struct.ap_uint]* %src_buf2, i32 0, i32 3, !dbg !12257 ; [#uses=1 type=%struct.ap_uint*] [debug line = 706:45]
  call void @_ZN7ap_uintILi8EEC1Ei(%struct.ap_uint* %44, i32 0), !dbg !12257 ; [debug line = 706:45]
  %300 = call %struct.ap_uint* @_ZN7ap_uintILi8EEaSERKS0_(%struct.ap_uint* %299, %struct.ap_uint* %44), !dbg !12257 ; [#uses=1 type=%struct.ap_uint*] [debug line = 706:45]
  %301 = call %struct.ap_uint* @_ZN7ap_uintILi8EEaSERKS0_(%struct.ap_uint* %298, %struct.ap_uint* %300), !dbg !12257 ; [#uses=1 type=%struct.ap_uint*] [debug line = 706:45]
  %302 = call %struct.ap_uint* @_ZN7ap_uintILi8EEaSERKS0_(%struct.ap_uint* %297, %struct.ap_uint* %301), !dbg !12257 ; [#uses=1 type=%struct.ap_uint*] [debug line = 706:45]
  %303 = call %struct.ap_uint* @_ZN7ap_uintILi8EEaSERKS0_(%struct.ap_uint* %296, %struct.ap_uint* %302), !dbg !12257 ; [#uses=0 type=%struct.ap_uint*] [debug line = 706:45]
  %304 = getelementptr inbounds [5 x %struct.ap_uint]* %src_buf3, i32 0, i32 0, !dbg !12258 ; [#uses=1 type=%struct.ap_uint*] [debug line = 707:3]
  %305 = getelementptr inbounds [5 x %struct.ap_uint]* %src_buf3, i32 0, i32 1, !dbg !12259 ; [#uses=1 type=%struct.ap_uint*] [debug line = 707:17]
  %306 = getelementptr inbounds [5 x %struct.ap_uint]* %src_buf3, i32 0, i32 2, !dbg !12260 ; [#uses=1 type=%struct.ap_uint*] [debug line = 707:31]
  %307 = getelementptr inbounds [5 x %struct.ap_uint]* %src_buf3, i32 0, i32 3, !dbg !12261 ; [#uses=1 type=%struct.ap_uint*] [debug line = 707:45]
  call void @_ZN7ap_uintILi8EEC1Ei(%struct.ap_uint* %45, i32 0), !dbg !12261 ; [debug line = 707:45]
  %308 = call %struct.ap_uint* @_ZN7ap_uintILi8EEaSERKS0_(%struct.ap_uint* %307, %struct.ap_uint* %45), !dbg !12261 ; [#uses=1 type=%struct.ap_uint*] [debug line = 707:45]
  %309 = call %struct.ap_uint* @_ZN7ap_uintILi8EEaSERKS0_(%struct.ap_uint* %306, %struct.ap_uint* %308), !dbg !12261 ; [#uses=1 type=%struct.ap_uint*] [debug line = 707:45]
  %310 = call %struct.ap_uint* @_ZN7ap_uintILi8EEaSERKS0_(%struct.ap_uint* %305, %struct.ap_uint* %309), !dbg !12261 ; [#uses=1 type=%struct.ap_uint*] [debug line = 707:45]
  %311 = call %struct.ap_uint* @_ZN7ap_uintILi8EEaSERKS0_(%struct.ap_uint* %304, %struct.ap_uint* %310), !dbg !12261 ; [#uses=0 type=%struct.ap_uint*] [debug line = 707:45]
  %312 = getelementptr inbounds [5 x %struct.ap_uint]* %src_buf4, i32 0, i32 0, !dbg !12262 ; [#uses=1 type=%struct.ap_uint*] [debug line = 708:3]
  %313 = getelementptr inbounds [5 x %struct.ap_uint]* %src_buf4, i32 0, i32 1, !dbg !12263 ; [#uses=1 type=%struct.ap_uint*] [debug line = 708:17]
  %314 = getelementptr inbounds [5 x %struct.ap_uint]* %src_buf4, i32 0, i32 2, !dbg !12264 ; [#uses=1 type=%struct.ap_uint*] [debug line = 708:31]
  %315 = getelementptr inbounds [5 x %struct.ap_uint]* %src_buf4, i32 0, i32 3, !dbg !12265 ; [#uses=1 type=%struct.ap_uint*] [debug line = 708:45]
  call void @_ZN7ap_uintILi8EEC1Ei(%struct.ap_uint* %46, i32 0), !dbg !12265 ; [debug line = 708:45]
  %316 = call %struct.ap_uint* @_ZN7ap_uintILi8EEaSERKS0_(%struct.ap_uint* %315, %struct.ap_uint* %46), !dbg !12265 ; [#uses=1 type=%struct.ap_uint*] [debug line = 708:45]
  %317 = call %struct.ap_uint* @_ZN7ap_uintILi8EEaSERKS0_(%struct.ap_uint* %314, %struct.ap_uint* %316), !dbg !12265 ; [#uses=1 type=%struct.ap_uint*] [debug line = 708:45]
  %318 = call %struct.ap_uint* @_ZN7ap_uintILi8EEaSERKS0_(%struct.ap_uint* %313, %struct.ap_uint* %317), !dbg !12265 ; [#uses=1 type=%struct.ap_uint*] [debug line = 708:45]
  %319 = call %struct.ap_uint* @_ZN7ap_uintILi8EEaSERKS0_(%struct.ap_uint* %312, %struct.ap_uint* %318), !dbg !12265 ; [#uses=0 type=%struct.ap_uint*] [debug line = 708:45]
  %320 = getelementptr inbounds [5 x %struct.ap_uint]* %src_buf5, i32 0, i32 0, !dbg !12266 ; [#uses=1 type=%struct.ap_uint*] [debug line = 709:3]
  %321 = getelementptr inbounds [5 x %struct.ap_uint]* %src_buf5, i32 0, i32 1, !dbg !12267 ; [#uses=1 type=%struct.ap_uint*] [debug line = 709:17]
  %322 = getelementptr inbounds [5 x %struct.ap_uint]* %src_buf5, i32 0, i32 2, !dbg !12268 ; [#uses=1 type=%struct.ap_uint*] [debug line = 709:31]
  %323 = getelementptr inbounds [5 x %struct.ap_uint]* %src_buf5, i32 0, i32 3, !dbg !12269 ; [#uses=1 type=%struct.ap_uint*] [debug line = 709:45]
  call void @_ZN7ap_uintILi8EEC1Ei(%struct.ap_uint* %47, i32 0), !dbg !12269 ; [debug line = 709:45]
  %324 = call %struct.ap_uint* @_ZN7ap_uintILi8EEaSERKS0_(%struct.ap_uint* %323, %struct.ap_uint* %47), !dbg !12269 ; [#uses=1 type=%struct.ap_uint*] [debug line = 709:45]
  %325 = call %struct.ap_uint* @_ZN7ap_uintILi8EEaSERKS0_(%struct.ap_uint* %322, %struct.ap_uint* %324), !dbg !12269 ; [#uses=1 type=%struct.ap_uint*] [debug line = 709:45]
  %326 = call %struct.ap_uint* @_ZN7ap_uintILi8EEaSERKS0_(%struct.ap_uint* %321, %struct.ap_uint* %325), !dbg !12269 ; [#uses=1 type=%struct.ap_uint*] [debug line = 709:45]
  %327 = call %struct.ap_uint* @_ZN7ap_uintILi8EEaSERKS0_(%struct.ap_uint* %320, %struct.ap_uint* %326), !dbg !12269 ; [#uses=0 type=%struct.ap_uint*] [debug line = 709:45]
  call void @_ZN7ap_uintILi8EEC1Ei(%struct.ap_uint* %48, i32 0), !dbg !12270 ; [debug line = 711:16]
  %328 = call %struct.ap_uint* @_ZN7ap_uintILi8EEaSERKS0_(%struct.ap_uint* %inter_valy, %struct.ap_uint* %48), !dbg !12270 ; [#uses=1 type=%struct.ap_uint*] [debug line = 711:16]
  %329 = call %struct.ap_uint* @_ZN7ap_uintILi8EEaSERKS0_(%struct.ap_uint* %inter_valx, %struct.ap_uint* %328), !dbg !12270 ; [#uses=0 type=%struct.ap_uint*] [debug line = 711:16]
  %330 = load %"class.hls::stream"** %1, align 4, !dbg !12271 ; [#uses=1 type=%"class.hls::stream"*] [debug line = 713:3]
  %331 = load %"class.hls::stream"** %2, align 4, !dbg !12271 ; [#uses=1 type=%"class.hls::stream"*] [debug line = 713:3]
  %332 = load %"class.hls::stream"** %3, align 4, !dbg !12271 ; [#uses=1 type=%"class.hls::stream"*] [debug line = 713:3]
  %333 = getelementptr inbounds [5 x [640 x %struct.ap_uint]]* %buf, i32 0, i32 0, !dbg !12271 ; [#uses=1 type=[640 x %struct.ap_uint]*] [debug line = 713:3]
  %334 = getelementptr inbounds [5 x %struct.ap_uint]* %src_buf1, i32 0, i32 0, !dbg !12271 ; [#uses=1 type=%struct.ap_uint*] [debug line = 713:3]
  %335 = getelementptr inbounds [5 x %struct.ap_uint]* %src_buf2, i32 0, i32 0, !dbg !12271 ; [#uses=1 type=%struct.ap_uint*] [debug line = 713:3]
  %336 = getelementptr inbounds [5 x %struct.ap_uint]* %src_buf3, i32 0, i32 0, !dbg !12271 ; [#uses=1 type=%struct.ap_uint*] [debug line = 713:3]
  %337 = getelementptr inbounds [5 x %struct.ap_uint]* %src_buf4, i32 0, i32 0, !dbg !12271 ; [#uses=1 type=%struct.ap_uint*] [debug line = 713:3]
  %338 = getelementptr inbounds [5 x %struct.ap_uint]* %src_buf5, i32 0, i32 0, !dbg !12271 ; [#uses=1 type=%struct.ap_uint*] [debug line = 713:3]
  %339 = getelementptr inbounds [1 x %struct.ap_uint]* %GradientValuesX, i32 0, i32 0, !dbg !12271 ; [#uses=1 type=%struct.ap_uint*] [debug line = 713:3]
  %340 = getelementptr inbounds [1 x %struct.ap_uint]* %GradientValuesY, i32 0, i32 0, !dbg !12271 ; [#uses=1 type=%struct.ap_uint*] [debug line = 713:3]
  %341 = load i16* %5, align 2, !dbg !12271       ; [#uses=1 type=i16] [debug line = 713:3]
  %342 = load i16* %4, align 2, !dbg !12271       ; [#uses=1 type=i16] [debug line = 713:3]
  %343 = bitcast %struct.ap_uint.9* %49 to i8*, !dbg !12271 ; [#uses=0 type=i8*] [debug line = 713:3]
  %344 = bitcast %struct.ap_uint.9* %row_ind to i8*, !dbg !12271 ; [#uses=0 type=i8*] [debug line = 713:3]
  %345 = getelementptr inbounds %struct.ap_uint.9* %49, i32 0, i32 0, !dbg !12271 ; [#uses=1 type=%struct.ap_int_base.10*] [debug line = 713:3]
  %346 = getelementptr inbounds %struct.ap_uint.9* %row_ind, i32 0, i32 0, !dbg !12271 ; [#uses=1 type=%struct.ap_int_base.10*] [debug line = 713:3]
  %347 = getelementptr inbounds %struct.ap_int_base.10* %345, i32 0, i32 0, !dbg !12271 ; [#uses=1 type=%struct.ssdm_int.11*] [debug line = 713:3]
  %348 = getelementptr inbounds %struct.ap_int_base.10* %346, i32 0, i32 0, !dbg !12271 ; [#uses=1 type=%struct.ssdm_int.11*] [debug line = 713:3]
  %349 = getelementptr inbounds %struct.ssdm_int.11* %347, i32 0, i32 0, !dbg !12271 ; [#uses=1 type=i13*] [debug line = 713:3]
  %350 = getelementptr inbounds %struct.ssdm_int.11* %348, i32 0, i32 0, !dbg !12271 ; [#uses=1 type=i13*] [debug line = 713:3]
  %351 = load i13* %350, !dbg !12271              ; [#uses=1 type=i13] [debug line = 713:3]
  store i13 %351, i13* %349, !dbg !12271          ; [debug line = 713:3]
  %352 = bitcast %struct.ap_uint.12* %50 to i8*, !dbg !12271 ; [#uses=0 type=i8*] [debug line = 713:3]
  %353 = bitcast %struct.ap_uint.12* %tp1 to i8*, !dbg !12271 ; [#uses=0 type=i8*] [debug line = 713:3]
  %354 = getelementptr inbounds %struct.ap_uint.12* %50, i32 0, i32 0, !dbg !12271 ; [#uses=1 type=%struct.ap_int_base.13*] [debug line = 713:3]
  %355 = getelementptr inbounds %struct.ap_uint.12* %tp1, i32 0, i32 0, !dbg !12271 ; [#uses=1 type=%struct.ap_int_base.13*] [debug line = 713:3]
  %356 = getelementptr inbounds %struct.ap_int_base.13* %354, i32 0, i32 0, !dbg !12271 ; [#uses=1 type=%struct.ssdm_int.14*] [debug line = 713:3]
  %357 = getelementptr inbounds %struct.ap_int_base.13* %355, i32 0, i32 0, !dbg !12271 ; [#uses=1 type=%struct.ssdm_int.14*] [debug line = 713:3]
  %358 = getelementptr inbounds %struct.ssdm_int.14* %356, i32 0, i32 0, !dbg !12271 ; [#uses=1 type=i4*] [debug line = 713:3]
  %359 = getelementptr inbounds %struct.ssdm_int.14* %357, i32 0, i32 0, !dbg !12271 ; [#uses=1 type=i4*] [debug line = 713:3]
  %360 = load i4* %359, !dbg !12271               ; [#uses=1 type=i4] [debug line = 713:3]
  store i4 %360, i4* %358, !dbg !12271            ; [debug line = 713:3]
  %361 = bitcast %struct.ap_uint.12* %51 to i8*, !dbg !12271 ; [#uses=0 type=i8*] [debug line = 713:3]
  %362 = bitcast %struct.ap_uint.12* %tp2 to i8*, !dbg !12271 ; [#uses=0 type=i8*] [debug line = 713:3]
  %363 = getelementptr inbounds %struct.ap_uint.12* %51, i32 0, i32 0, !dbg !12271 ; [#uses=1 type=%struct.ap_int_base.13*] [debug line = 713:3]
  %364 = getelementptr inbounds %struct.ap_uint.12* %tp2, i32 0, i32 0, !dbg !12271 ; [#uses=1 type=%struct.ap_int_base.13*] [debug line = 713:3]
  %365 = getelementptr inbounds %struct.ap_int_base.13* %363, i32 0, i32 0, !dbg !12271 ; [#uses=1 type=%struct.ssdm_int.14*] [debug line = 713:3]
  %366 = getelementptr inbounds %struct.ap_int_base.13* %364, i32 0, i32 0, !dbg !12271 ; [#uses=1 type=%struct.ssdm_int.14*] [debug line = 713:3]
  %367 = getelementptr inbounds %struct.ssdm_int.14* %365, i32 0, i32 0, !dbg !12271 ; [#uses=1 type=i4*] [debug line = 713:3]
  %368 = getelementptr inbounds %struct.ssdm_int.14* %366, i32 0, i32 0, !dbg !12271 ; [#uses=1 type=i4*] [debug line = 713:3]
  %369 = load i4* %368, !dbg !12271               ; [#uses=1 type=i4] [debug line = 713:3]
  store i4 %369, i4* %367, !dbg !12271            ; [debug line = 713:3]
  %370 = bitcast %struct.ap_uint.12* %52 to i8*, !dbg !12271 ; [#uses=0 type=i8*] [debug line = 713:3]
  %371 = bitcast %struct.ap_uint.12* %mid to i8*, !dbg !12271 ; [#uses=0 type=i8*] [debug line = 713:3]
  %372 = getelementptr inbounds %struct.ap_uint.12* %52, i32 0, i32 0, !dbg !12271 ; [#uses=1 type=%struct.ap_int_base.13*] [debug line = 713:3]
  %373 = getelementptr inbounds %struct.ap_uint.12* %mid, i32 0, i32 0, !dbg !12271 ; [#uses=1 type=%struct.ap_int_base.13*] [debug line = 713:3]
  %374 = getelementptr inbounds %struct.ap_int_base.13* %372, i32 0, i32 0, !dbg !12271 ; [#uses=1 type=%struct.ssdm_int.14*] [debug line = 713:3]
  %375 = getelementptr inbounds %struct.ap_int_base.13* %373, i32 0, i32 0, !dbg !12271 ; [#uses=1 type=%struct.ssdm_int.14*] [debug line = 713:3]
  %376 = getelementptr inbounds %struct.ssdm_int.14* %374, i32 0, i32 0, !dbg !12271 ; [#uses=1 type=i4*] [debug line = 713:3]
  %377 = getelementptr inbounds %struct.ssdm_int.14* %375, i32 0, i32 0, !dbg !12271 ; [#uses=1 type=i4*] [debug line = 713:3]
  %378 = load i4* %377, !dbg !12271               ; [#uses=1 type=i4] [debug line = 713:3]
  store i4 %378, i4* %376, !dbg !12271            ; [debug line = 713:3]
  %379 = bitcast %struct.ap_uint.12* %53 to i8*, !dbg !12271 ; [#uses=0 type=i8*] [debug line = 713:3]
  %380 = bitcast %struct.ap_uint.12* %bottom1 to i8*, !dbg !12271 ; [#uses=0 type=i8*] [debug line = 713:3]
  %381 = getelementptr inbounds %struct.ap_uint.12* %53, i32 0, i32 0, !dbg !12271 ; [#uses=1 type=%struct.ap_int_base.13*] [debug line = 713:3]
  %382 = getelementptr inbounds %struct.ap_uint.12* %bottom1, i32 0, i32 0, !dbg !12271 ; [#uses=1 type=%struct.ap_int_base.13*] [debug line = 713:3]
  %383 = getelementptr inbounds %struct.ap_int_base.13* %381, i32 0, i32 0, !dbg !12271 ; [#uses=1 type=%struct.ssdm_int.14*] [debug line = 713:3]
  %384 = getelementptr inbounds %struct.ap_int_base.13* %382, i32 0, i32 0, !dbg !12271 ; [#uses=1 type=%struct.ssdm_int.14*] [debug line = 713:3]
  %385 = getelementptr inbounds %struct.ssdm_int.14* %383, i32 0, i32 0, !dbg !12271 ; [#uses=1 type=i4*] [debug line = 713:3]
  %386 = getelementptr inbounds %struct.ssdm_int.14* %384, i32 0, i32 0, !dbg !12271 ; [#uses=1 type=i4*] [debug line = 713:3]
  %387 = load i4* %386, !dbg !12271               ; [#uses=1 type=i4] [debug line = 713:3]
  store i4 %387, i4* %385, !dbg !12271            ; [debug line = 713:3]
  %388 = bitcast %struct.ap_uint.12* %54 to i8*, !dbg !12271 ; [#uses=0 type=i8*] [debug line = 713:3]
  %389 = bitcast %struct.ap_uint.12* %bottom2 to i8*, !dbg !12271 ; [#uses=0 type=i8*] [debug line = 713:3]
  %390 = getelementptr inbounds %struct.ap_uint.12* %54, i32 0, i32 0, !dbg !12271 ; [#uses=1 type=%struct.ap_int_base.13*] [debug line = 713:3]
  %391 = getelementptr inbounds %struct.ap_uint.12* %bottom2, i32 0, i32 0, !dbg !12271 ; [#uses=1 type=%struct.ap_int_base.13*] [debug line = 713:3]
  %392 = getelementptr inbounds %struct.ap_int_base.13* %390, i32 0, i32 0, !dbg !12271 ; [#uses=1 type=%struct.ssdm_int.14*] [debug line = 713:3]
  %393 = getelementptr inbounds %struct.ap_int_base.13* %391, i32 0, i32 0, !dbg !12271 ; [#uses=1 type=%struct.ssdm_int.14*] [debug line = 713:3]
  %394 = getelementptr inbounds %struct.ssdm_int.14* %392, i32 0, i32 0, !dbg !12271 ; [#uses=1 type=i4*] [debug line = 713:3]
  %395 = getelementptr inbounds %struct.ssdm_int.14* %393, i32 0, i32 0, !dbg !12271 ; [#uses=1 type=i4*] [debug line = 713:3]
  %396 = load i4* %395, !dbg !12271               ; [#uses=1 type=i4] [debug line = 713:3]
  store i4 %396, i4* %394, !dbg !12271            ; [debug line = 713:3]
  %397 = bitcast %struct.ap_uint.9* %55 to i8*, !dbg !12271 ; [#uses=0 type=i8*] [debug line = 713:3]
  %398 = bitcast %struct.ap_uint.9* %row to i8*, !dbg !12271 ; [#uses=0 type=i8*] [debug line = 713:3]
  %399 = getelementptr inbounds %struct.ap_uint.9* %55, i32 0, i32 0, !dbg !12271 ; [#uses=1 type=%struct.ap_int_base.10*] [debug line = 713:3]
  %400 = getelementptr inbounds %struct.ap_uint.9* %row, i32 0, i32 0, !dbg !12271 ; [#uses=1 type=%struct.ap_int_base.10*] [debug line = 713:3]
  %401 = getelementptr inbounds %struct.ap_int_base.10* %399, i32 0, i32 0, !dbg !12271 ; [#uses=1 type=%struct.ssdm_int.11*] [debug line = 713:3]
  %402 = getelementptr inbounds %struct.ap_int_base.10* %400, i32 0, i32 0, !dbg !12271 ; [#uses=1 type=%struct.ssdm_int.11*] [debug line = 713:3]
  %403 = getelementptr inbounds %struct.ssdm_int.11* %401, i32 0, i32 0, !dbg !12271 ; [#uses=1 type=i13*] [debug line = 713:3]
  %404 = getelementptr inbounds %struct.ssdm_int.11* %402, i32 0, i32 0, !dbg !12271 ; [#uses=1 type=i13*] [debug line = 713:3]
  %405 = load i13* %404, !dbg !12271              ; [#uses=1 type=i13] [debug line = 713:3]
  store i13 %405, i13* %403, !dbg !12271          ; [debug line = 713:3]
  call void @_ZN2xf15ProcessSobel5x5ILi480ELi640ELi0ELi0ELi1ELi0ELi0ELi640EEEvRN3hls6streamIN10StreamTypeIXT4_EE4nameEEERNS2_INS3_IXT5_EE4nameEEESB_PArsT0_sr17xfNPixelsPerCycleIXT3_EEE9datashift_S5_PN9PixelTypeIXT1_EE4nameESH_SH_SH_SH_PNSE_IXT2_EE4nameESK_RS9_SL_tt7ap_uintILi13EERtSO_SM_ILi4EESP_SP_SP_SP_SN_(%"class.hls::stream"* %330, %"class.hls::stream"* %331, %"class.hls::stream"* %332, [640 x %struct.ap_uint]* %333, %struct.ap_uint* %334, %struct.ap_uint* %335, %struct.ap_uint* %336, %struct.ap_uint* %337, %struct.ap_uint* %338, %struct.ap_uint* %339, %struct.ap_uint* %340, %struct.ap_uint* %inter_valx, %struct.ap_uint* %inter_valy, i16 zeroext %341, i16 zeroext %342, %struct.ap_uint.9* byval align 4 %49, i16* %shift_x, i16* %shift_y, %struct.ap_uint.12* byval align 4 %50, %struct.ap_uint.12* byval align 4 %51, %struct.ap_uint.12* byval align 4 %52, %struct.ap_uint.12* byval align 4 %53, %struct.ap_uint.12* byval align 4 %54, %struct.ap_uint.9* byval align 4 %55), !dbg !12271 ; [debug line = 713:3]
  call void (...)* @_ssdm_RegionBegin(i8* getelementptr inbounds ([12 x i8]* @.str23, i32 0, i32 0)) nounwind, !dbg !12272 ; [debug line = 739:4]
  call void (...)* @_ssdm_op_SpecResourceLimit(i32 1, i8* getelementptr inbounds ([1 x i8]* @.str, i32 0, i32 0), i8* getelementptr inbounds ([1 x i8]* @.str, i32 0, i32 0), i8* getelementptr inbounds ([15 x i8]* @.str24, i32 0, i32 0), i8* getelementptr inbounds ([1 x i8]* @.str, i32 0, i32 0)) nounwind, !dbg !12274 ; [debug line = 740:1]
  call void (...)* @_ssdm_op_SpecResourceLimit(i32 1, i8* getelementptr inbounds ([1 x i8]* @.str, i32 0, i32 0), i8* getelementptr inbounds ([1 x i8]* @.str, i32 0, i32 0), i8* getelementptr inbounds ([15 x i8]* @.str25, i32 0, i32 0), i8* getelementptr inbounds ([1 x i8]* @.str, i32 0, i32 0)) nounwind, !dbg !12275 ; [debug line = 741:1]
  %406 = bitcast %struct.ap_uint* %buf_size to %struct.ap_int_base*, !dbg !12276 ; [#uses=1 type=%struct.ap_int_base*] [debug line = 743:11]
  call void @_ZmiILi8ELb0EEN11ap_int_baseIXT_EXT0_EXleT_Li64EEE5RTypeIXLi32EEXLb1EEE5minusERKS1_i(%struct.ap_int_base.21* sret %56, %struct.ap_int_base* %406, i32 1), !dbg !12276 ; [debug line = 743:11]
  %407 = call i64 @_ZNK11ap_int_baseILi33ELb1ELb1EEcvxEv(%struct.ap_int_base.21* %56), !dbg !12276 ; [#uses=1 type=i64] [debug line = 743:11]
  %408 = trunc i64 %407 to i32, !dbg !12276       ; [#uses=1 type=i32] [debug line = 743:11]
  %409 = getelementptr inbounds [5 x %struct.ap_uint]* %src_buf1, i32 0, i32 %408, !dbg !12276 ; [#uses=1 type=%struct.ap_uint*] [debug line = 743:11]
  call void @_ZN7ap_uintILi8EEC1Ei(%struct.ap_uint* %57, i32 0), !dbg !12276 ; [debug line = 743:11]
  %410 = call %struct.ap_uint* @_ZN7ap_uintILi8EEaSERKS0_(%struct.ap_uint* %409, %struct.ap_uint* %57), !dbg !12276 ; [#uses=0 type=%struct.ap_uint*] [debug line = 743:11]
  %411 = bitcast %struct.ap_uint* %buf_size to %struct.ap_int_base*, !dbg !12277 ; [#uses=1 type=%struct.ap_int_base*] [debug line = 744:13]
  call void @_ZmiILi8ELb0EEN11ap_int_baseIXT_EXT0_EXleT_Li64EEE5RTypeIXLi32EEXLb1EEE5minusERKS1_i(%struct.ap_int_base.21* sret %58, %struct.ap_int_base* %411, i32 1), !dbg !12277 ; [debug line = 744:13]
  %412 = call i64 @_ZNK11ap_int_baseILi33ELb1ELb1EEcvxEv(%struct.ap_int_base.21* %58), !dbg !12277 ; [#uses=1 type=i64] [debug line = 744:13]
  %413 = trunc i64 %412 to i32, !dbg !12277       ; [#uses=1 type=i32] [debug line = 744:13]
  %414 = getelementptr inbounds [5 x %struct.ap_uint]* %src_buf2, i32 0, i32 %413, !dbg !12277 ; [#uses=1 type=%struct.ap_uint*] [debug line = 744:13]
  call void @_ZN7ap_uintILi8EEC1Ei(%struct.ap_uint* %59, i32 0), !dbg !12277 ; [debug line = 744:13]
  %415 = call %struct.ap_uint* @_ZN7ap_uintILi8EEaSERKS0_(%struct.ap_uint* %414, %struct.ap_uint* %59), !dbg !12277 ; [#uses=0 type=%struct.ap_uint*] [debug line = 744:13]
  %416 = bitcast %struct.ap_uint* %buf_size to %struct.ap_int_base*, !dbg !12278 ; [#uses=1 type=%struct.ap_int_base*] [debug line = 745:13]
  call void @_ZmiILi8ELb0EEN11ap_int_baseIXT_EXT0_EXleT_Li64EEE5RTypeIXLi32EEXLb1EEE5minusERKS1_i(%struct.ap_int_base.21* sret %60, %struct.ap_int_base* %416, i32 1), !dbg !12278 ; [debug line = 745:13]
  %417 = call i64 @_ZNK11ap_int_baseILi33ELb1ELb1EEcvxEv(%struct.ap_int_base.21* %60), !dbg !12278 ; [#uses=1 type=i64] [debug line = 745:13]
  %418 = trunc i64 %417 to i32, !dbg !12278       ; [#uses=1 type=i32] [debug line = 745:13]
  %419 = getelementptr inbounds [5 x %struct.ap_uint]* %src_buf3, i32 0, i32 %418, !dbg !12278 ; [#uses=1 type=%struct.ap_uint*] [debug line = 745:13]
  call void @_ZN7ap_uintILi8EEC1Ei(%struct.ap_uint* %61, i32 0), !dbg !12278 ; [debug line = 745:13]
  %420 = call %struct.ap_uint* @_ZN7ap_uintILi8EEaSERKS0_(%struct.ap_uint* %419, %struct.ap_uint* %61), !dbg !12278 ; [#uses=0 type=%struct.ap_uint*] [debug line = 745:13]
  %421 = bitcast %struct.ap_uint* %buf_size to %struct.ap_int_base*, !dbg !12279 ; [#uses=1 type=%struct.ap_int_base*] [debug line = 746:13]
  call void @_ZmiILi8ELb0EEN11ap_int_baseIXT_EXT0_EXleT_Li64EEE5RTypeIXLi32EEXLb1EEE5minusERKS1_i(%struct.ap_int_base.21* sret %62, %struct.ap_int_base* %421, i32 1), !dbg !12279 ; [debug line = 746:13]
  %422 = call i64 @_ZNK11ap_int_baseILi33ELb1ELb1EEcvxEv(%struct.ap_int_base.21* %62), !dbg !12279 ; [#uses=1 type=i64] [debug line = 746:13]
  %423 = trunc i64 %422 to i32, !dbg !12279       ; [#uses=1 type=i32] [debug line = 746:13]
  %424 = getelementptr inbounds [5 x %struct.ap_uint]* %src_buf4, i32 0, i32 %423, !dbg !12279 ; [#uses=1 type=%struct.ap_uint*] [debug line = 746:13]
  call void @_ZN7ap_uintILi8EEC1Ei(%struct.ap_uint* %63, i32 0), !dbg !12279 ; [debug line = 746:13]
  %425 = call %struct.ap_uint* @_ZN7ap_uintILi8EEaSERKS0_(%struct.ap_uint* %424, %struct.ap_uint* %63), !dbg !12279 ; [#uses=0 type=%struct.ap_uint*] [debug line = 746:13]
  %426 = bitcast %struct.ap_uint* %buf_size to %struct.ap_int_base*, !dbg !12280 ; [#uses=1 type=%struct.ap_int_base*] [debug line = 747:13]
  call void @_ZmiILi8ELb0EEN11ap_int_baseIXT_EXT0_EXleT_Li64EEE5RTypeIXLi32EEXLb1EEE5minusERKS1_i(%struct.ap_int_base.21* sret %64, %struct.ap_int_base* %426, i32 1), !dbg !12280 ; [debug line = 747:13]
  %427 = call i64 @_ZNK11ap_int_baseILi33ELb1ELb1EEcvxEv(%struct.ap_int_base.21* %64), !dbg !12280 ; [#uses=1 type=i64] [debug line = 747:13]
  %428 = trunc i64 %427 to i32, !dbg !12280       ; [#uses=1 type=i32] [debug line = 747:13]
  %429 = getelementptr inbounds [5 x %struct.ap_uint]* %src_buf5, i32 0, i32 %428, !dbg !12280 ; [#uses=1 type=%struct.ap_uint*] [debug line = 747:13]
  call void @_ZN7ap_uintILi8EEC1Ei(%struct.ap_uint* %65, i32 0), !dbg !12280 ; [debug line = 747:13]
  %430 = call %struct.ap_uint* @_ZN7ap_uintILi8EEaSERKS0_(%struct.ap_uint* %429, %struct.ap_uint* %65), !dbg !12280 ; [#uses=0 type=%struct.ap_uint*] [debug line = 747:13]
  %431 = getelementptr inbounds [1 x %struct.ap_uint]* %GradientValuesX, i32 0, i32 0, !dbg !12281 ; [#uses=1 type=%struct.ap_uint*] [debug line = 749:4]
  %432 = getelementptr inbounds [5 x %struct.ap_uint]* %src_buf1, i32 0, i32 0, !dbg !12282 ; [#uses=1 type=%struct.ap_uint*] [debug line = 749:25]
  %433 = getelementptr inbounds [5 x %struct.ap_uint]* %src_buf2, i32 0, i32 0, !dbg !12282 ; [#uses=1 type=%struct.ap_uint*] [debug line = 749:25]
  %434 = getelementptr inbounds [5 x %struct.ap_uint]* %src_buf3, i32 0, i32 0, !dbg !12282 ; [#uses=1 type=%struct.ap_uint*] [debug line = 749:25]
  %435 = getelementptr inbounds [5 x %struct.ap_uint]* %src_buf4, i32 0, i32 0, !dbg !12282 ; [#uses=1 type=%struct.ap_uint*] [debug line = 749:25]
  %436 = getelementptr inbounds [5 x %struct.ap_uint]* %src_buf5, i32 0, i32 0, !dbg !12282 ; [#uses=1 type=%struct.ap_uint*] [debug line = 749:25]
  call void @_ZN2xf14xFGradientX5x5ILi0ELi0EEEN9PixelTypeIXT0_EE4nameEPNS1_IXT_EE4nameES6_S6_S6_S6_(%struct.ap_uint* sret %66, %struct.ap_uint* %432, %struct.ap_uint* %433, %struct.ap_uint* %434, %struct.ap_uint* %435, %struct.ap_uint* %436), !dbg !12282 ; [debug line = 749:25]
  %437 = call %struct.ap_uint* @_ZN7ap_uintILi8EEaSERKS0_(%struct.ap_uint* %431, %struct.ap_uint* %66), !dbg !12282 ; [#uses=0 type=%struct.ap_uint*] [debug line = 749:25]
  %438 = getelementptr inbounds [1 x %struct.ap_uint]* %GradientValuesY, i32 0, i32 0, !dbg !12283 ; [#uses=1 type=%struct.ap_uint*] [debug line = 750:4]
  %439 = getelementptr inbounds [5 x %struct.ap_uint]* %src_buf1, i32 0, i32 0, !dbg !12284 ; [#uses=1 type=%struct.ap_uint*] [debug line = 750:25]
  %440 = getelementptr inbounds [5 x %struct.ap_uint]* %src_buf2, i32 0, i32 0, !dbg !12284 ; [#uses=1 type=%struct.ap_uint*] [debug line = 750:25]
  %441 = getelementptr inbounds [5 x %struct.ap_uint]* %src_buf3, i32 0, i32 0, !dbg !12284 ; [#uses=1 type=%struct.ap_uint*] [debug line = 750:25]
  %442 = getelementptr inbounds [5 x %struct.ap_uint]* %src_buf4, i32 0, i32 0, !dbg !12284 ; [#uses=1 type=%struct.ap_uint*] [debug line = 750:25]
  %443 = getelementptr inbounds [5 x %struct.ap_uint]* %src_buf5, i32 0, i32 0, !dbg !12284 ; [#uses=1 type=%struct.ap_uint*] [debug line = 750:25]
  call void @_ZN2xf14xFGradientY5x5ILi0ELi0EEEN9PixelTypeIXT0_EE4nameEPNS1_IXT_EE4nameES6_S6_S6_S6_(%struct.ap_uint* sret %67, %struct.ap_uint* %439, %struct.ap_uint* %440, %struct.ap_uint* %441, %struct.ap_uint* %442, %struct.ap_uint* %443), !dbg !12284 ; [debug line = 750:25]
  %444 = call %struct.ap_uint* @_ZN7ap_uintILi8EEaSERKS0_(%struct.ap_uint* %438, %struct.ap_uint* %67), !dbg !12284 ; [#uses=0 type=%struct.ap_uint*] [debug line = 750:25]
  %445 = bitcast %struct.ap_uint* %inter_valx to %struct.ap_int_base*, !dbg !12285 ; [#uses=1 type=%struct.ap_int_base*] [debug line = 751:4]
  %446 = bitcast %struct.ap_uint.50* %max_loop to %struct.ap_int_base.31*, !dbg !12286 ; [#uses=1 type=%struct.ap_int_base.31*] [debug line = 751:16]
  call void @_ZmiILi9ELb0EEN11ap_int_baseIXT_EXT0_EXleT_Li64EEE5RTypeIXLi32EEXLb1EEE5minusERKS1_i(%struct.ap_int_base.21* sret %68, %struct.ap_int_base.31* %446, i32 1), !dbg !12286 ; [debug line = 751:16]
  %447 = call i64 @_ZNK11ap_int_baseILi33ELb1ELb1EEcvxEv(%struct.ap_int_base.21* %68), !dbg !12286 ; [#uses=1 type=i64] [debug line = 751:16]
  %448 = trunc i64 %447 to i32, !dbg !12286       ; [#uses=1 type=i32] [debug line = 751:16]
  %449 = bitcast %struct.ap_uint.50* %max_loop to %struct.ap_int_base.31*, !dbg !12287 ; [#uses=1 type=%struct.ap_int_base.31*] [debug line = 751:30]
  %450 = bitcast %struct.ap_uint.50* %step to %struct.ap_int_base.31*, !dbg !12287 ; [#uses=1 type=%struct.ap_int_base.31*] [debug line = 751:30]
  call void @_ZmiILi9ELb0ELi9ELb0EEN11ap_int_baseIXT_EXT0_EXleT_Li64EEE5RTypeIXT1_EXT2_EE5minusERKS1_RKS0_IXT1_EXT2_EXleT1_Li64EEE(%struct.ap_int_base.29* sret %69, %struct.ap_int_base.31* %449, %struct.ap_int_base.31* %450), !dbg !12287 ; [debug line = 751:30]
  %451 = call signext i16 @_ZNK11ap_int_baseILi10ELb1ELb1EEcvsEv(%struct.ap_int_base.29* %69), !dbg !12287 ; [#uses=1 type=i16] [debug line = 751:30]
  %452 = sext i16 %451 to i32, !dbg !12287        ; [#uses=1 type=i32] [debug line = 751:30]
  call void @_ZN11ap_int_baseILi8ELb0ELb1EEclEii(%struct.ap_range_ref* sret %70, %struct.ap_int_base* %445, i32 %448, i32 %452), !dbg !12287 ; [debug line = 751:30]
  %453 = getelementptr inbounds [1 x %struct.ap_uint]* %GradientValuesX, i32 0, i32 0, !dbg !12287 ; [#uses=1 type=%struct.ap_uint*] [debug line = 751:30]
  %454 = bitcast %struct.ap_uint* %453 to %struct.ap_int_base*, !dbg !12287 ; [#uses=1 type=%struct.ap_int_base*] [debug line = 751:30]
  %455 = call %struct.ap_range_ref* @_ZN12ap_range_refILi8ELb0EEaSILi8ELb0EEERS0_RK11ap_int_baseIXT_EXT0_EXleT_Li64EEE(%struct.ap_range_ref* %70, %struct.ap_int_base* %454), !dbg !12287 ; [#uses=0 type=%struct.ap_range_ref*] [debug line = 751:30]
  %456 = bitcast %struct.ap_uint* %inter_valy to %struct.ap_int_base*, !dbg !12288 ; [#uses=1 type=%struct.ap_int_base*] [debug line = 752:4]
  %457 = bitcast %struct.ap_uint.50* %max_loop to %struct.ap_int_base.31*, !dbg !12289 ; [#uses=1 type=%struct.ap_int_base.31*] [debug line = 752:16]
  call void @_ZmiILi9ELb0EEN11ap_int_baseIXT_EXT0_EXleT_Li64EEE5RTypeIXLi32EEXLb1EEE5minusERKS1_i(%struct.ap_int_base.21* sret %71, %struct.ap_int_base.31* %457, i32 1), !dbg !12289 ; [debug line = 752:16]
  %458 = call i64 @_ZNK11ap_int_baseILi33ELb1ELb1EEcvxEv(%struct.ap_int_base.21* %71), !dbg !12289 ; [#uses=1 type=i64] [debug line = 752:16]
  %459 = trunc i64 %458 to i32, !dbg !12289       ; [#uses=1 type=i32] [debug line = 752:16]
  %460 = bitcast %struct.ap_uint.50* %max_loop to %struct.ap_int_base.31*, !dbg !12290 ; [#uses=1 type=%struct.ap_int_base.31*] [debug line = 752:30]
  %461 = bitcast %struct.ap_uint.50* %step to %struct.ap_int_base.31*, !dbg !12290 ; [#uses=1 type=%struct.ap_int_base.31*] [debug line = 752:30]
  call void @_ZmiILi9ELb0ELi9ELb0EEN11ap_int_baseIXT_EXT0_EXleT_Li64EEE5RTypeIXT1_EXT2_EE5minusERKS1_RKS0_IXT1_EXT2_EXleT1_Li64EEE(%struct.ap_int_base.29* sret %72, %struct.ap_int_base.31* %460, %struct.ap_int_base.31* %461), !dbg !12290 ; [debug line = 752:30]
  %462 = call signext i16 @_ZNK11ap_int_baseILi10ELb1ELb1EEcvsEv(%struct.ap_int_base.29* %72), !dbg !12290 ; [#uses=1 type=i16] [debug line = 752:30]
  %463 = sext i16 %462 to i32, !dbg !12290        ; [#uses=1 type=i32] [debug line = 752:30]
  call void @_ZN11ap_int_baseILi8ELb0ELb1EEclEii(%struct.ap_range_ref* sret %73, %struct.ap_int_base* %456, i32 %459, i32 %463), !dbg !12290 ; [debug line = 752:30]
  %464 = getelementptr inbounds [1 x %struct.ap_uint]* %GradientValuesY, i32 0, i32 0, !dbg !12290 ; [#uses=1 type=%struct.ap_uint*] [debug line = 752:30]
  %465 = bitcast %struct.ap_uint* %464 to %struct.ap_int_base*, !dbg !12290 ; [#uses=1 type=%struct.ap_int_base*] [debug line = 752:30]
  %466 = call %struct.ap_range_ref* @_ZN12ap_range_refILi8ELb0EEaSILi8ELb0EEERS0_RK11ap_int_baseIXT_EXT0_EXleT_Li64EEE(%struct.ap_range_ref* %73, %struct.ap_int_base* %465), !dbg !12290 ; [#uses=0 type=%struct.ap_range_ref*] [debug line = 752:30]
  %467 = load %"class.hls::stream"** %2, align 4, !dbg !12291 ; [#uses=1 type=%"class.hls::stream"*] [debug line = 753:4]
  call void @_ZN3hls6streamI7ap_uintILi8EEE5writeERKS2_(%"class.hls::stream"* %467, %struct.ap_uint* %inter_valx), !dbg !12291 ; [debug line = 753:4]
  %468 = load %"class.hls::stream"** %3, align 4, !dbg !12292 ; [#uses=1 type=%"class.hls::stream"*] [debug line = 754:4]
  call void @_ZN3hls6streamI7ap_uintILi8EEE5writeERKS2_(%"class.hls::stream"* %468, %struct.ap_uint* %inter_valy), !dbg !12292 ; [debug line = 754:4]
  call void @llvm.dbg.declare(metadata !{%struct.ap_uint.12* %i11}, metadata !12293), !dbg !12295 ; [debug line = 756:19] [debug variable = i]
  call void @_ZN7ap_uintILi4EEC1Ei(%struct.ap_uint.12* %i11, i32 0), !dbg !12296 ; [debug line = 756:24]
  br label %469, !dbg !12296                      ; [debug line = 756:24]

; <label>:469                                     ; preds = %523, %287
  %470 = bitcast %struct.ap_uint.12* %i11 to %struct.ap_int_base.13*, !dbg !12297 ; [#uses=1 type=%struct.ap_int_base.13*] [debug line = 756:26]
  %471 = call zeroext i1 @_ZltILi4ELb0EEbRK11ap_int_baseIXT_EXT0_EXleT_Li64EEEi(%struct.ap_int_base.13* %470, i32 4), !dbg !12297 ; [#uses=1 type=i1] [debug line = 756:26]
  br i1 %471, label %472, label %525, !dbg !12297 ; [debug line = 756:26]

; <label>:472                                     ; preds = %469
  call void (...)* @_ssdm_RegionBegin(i8* getelementptr inbounds ([12 x i8]* @.str26, i32 0, i32 0)) nounwind, !dbg !12298 ; [debug line = 757:5]
  call void (...)* @_ssdm_Unroll(i32 0, i32 0, i32 0, i8* getelementptr inbounds ([1 x i8]* @.str, i32 0, i32 0)) nounwind, !dbg !12300 ; [debug line = 758:1]
  %473 = bitcast %struct.ap_uint.12* %i11 to %struct.ap_int_base.13*, !dbg !12301 ; [#uses=1 type=%struct.ap_int_base.13*] [debug line = 759:11]
  %474 = call zeroext i8 @_ZNK11ap_int_baseILi4ELb0ELb1EEcvhEv(%struct.ap_int_base.13* %473), !dbg !12301 ; [#uses=1 type=i8] [debug line = 759:11]
  %475 = zext i8 %474 to i32, !dbg !12301         ; [#uses=1 type=i32] [debug line = 759:11]
  %476 = getelementptr inbounds [5 x %struct.ap_uint]* %src_buf1, i32 0, i32 %475, !dbg !12301 ; [#uses=1 type=%struct.ap_uint*] [debug line = 759:11]
  %477 = bitcast %struct.ap_uint* %buf_size to %struct.ap_int_base*, !dbg !12302 ; [#uses=1 type=%struct.ap_int_base*] [debug line = 759:25]
  %478 = bitcast %struct.ap_uint.12* %i11 to %struct.ap_int_base.13*, !dbg !12303 ; [#uses=1 type=%struct.ap_int_base.13*] [debug line = 759:35]
  call void @_ZmiILi4ELb0EEN11ap_int_baseIXT_EXT0_EXleT_Li64EEE5RTypeIXLi32EEXLb1EEE5minusEiRKS1_(%struct.ap_int_base.21* sret %74, i32 4, %struct.ap_int_base.13* %478), !dbg !12303 ; [debug line = 759:35]
  call void @_ZmiILi8ELb0ELi33ELb1EEN11ap_int_baseIXT_EXT0_EXleT_Li64EEE5RTypeIXT1_EXT2_EE5minusERKS1_RKS0_IXT1_EXT2_EXleT1_Li64EEE(%struct.ap_int_base.51* sret %75, %struct.ap_int_base* %477, %struct.ap_int_base.21* %74), !dbg !12303 ; [debug line = 759:35]
  %479 = call i64 @_ZNK11ap_int_baseILi34ELb1ELb1EEcvxEv(%struct.ap_int_base.51* %75), !dbg !12303 ; [#uses=1 type=i64] [debug line = 759:35]
  %480 = trunc i64 %479 to i32, !dbg !12303       ; [#uses=1 type=i32] [debug line = 759:35]
  %481 = getelementptr inbounds [5 x %struct.ap_uint]* %src_buf1, i32 0, i32 %480, !dbg !12303 ; [#uses=1 type=%struct.ap_uint*] [debug line = 759:35]
  %482 = call %struct.ap_uint* @_ZN7ap_uintILi8EEaSERKS0_(%struct.ap_uint* %476, %struct.ap_uint* %481), !dbg !12303 ; [#uses=0 type=%struct.ap_uint*] [debug line = 759:35]
  %483 = bitcast %struct.ap_uint.12* %i11 to %struct.ap_int_base.13*, !dbg !12304 ; [#uses=1 type=%struct.ap_int_base.13*] [debug line = 760:14]
  %484 = call zeroext i8 @_ZNK11ap_int_baseILi4ELb0ELb1EEcvhEv(%struct.ap_int_base.13* %483), !dbg !12304 ; [#uses=1 type=i8] [debug line = 760:14]
  %485 = zext i8 %484 to i32, !dbg !12304         ; [#uses=1 type=i32] [debug line = 760:14]
  %486 = getelementptr inbounds [5 x %struct.ap_uint]* %src_buf2, i32 0, i32 %485, !dbg !12304 ; [#uses=1 type=%struct.ap_uint*] [debug line = 760:14]
  %487 = bitcast %struct.ap_uint* %buf_size to %struct.ap_int_base*, !dbg !12305 ; [#uses=1 type=%struct.ap_int_base*] [debug line = 760:28]
  %488 = bitcast %struct.ap_uint.12* %i11 to %struct.ap_int_base.13*, !dbg !12306 ; [#uses=1 type=%struct.ap_int_base.13*] [debug line = 760:38]
  call void @_ZmiILi4ELb0EEN11ap_int_baseIXT_EXT0_EXleT_Li64EEE5RTypeIXLi32EEXLb1EEE5minusEiRKS1_(%struct.ap_int_base.21* sret %76, i32 4, %struct.ap_int_base.13* %488), !dbg !12306 ; [debug line = 760:38]
  call void @_ZmiILi8ELb0ELi33ELb1EEN11ap_int_baseIXT_EXT0_EXleT_Li64EEE5RTypeIXT1_EXT2_EE5minusERKS1_RKS0_IXT1_EXT2_EXleT1_Li64EEE(%struct.ap_int_base.51* sret %77, %struct.ap_int_base* %487, %struct.ap_int_base.21* %76), !dbg !12306 ; [debug line = 760:38]
  %489 = call i64 @_ZNK11ap_int_baseILi34ELb1ELb1EEcvxEv(%struct.ap_int_base.51* %77), !dbg !12306 ; [#uses=1 type=i64] [debug line = 760:38]
  %490 = trunc i64 %489 to i32, !dbg !12306       ; [#uses=1 type=i32] [debug line = 760:38]
  %491 = getelementptr inbounds [5 x %struct.ap_uint]* %src_buf2, i32 0, i32 %490, !dbg !12306 ; [#uses=1 type=%struct.ap_uint*] [debug line = 760:38]
  %492 = call %struct.ap_uint* @_ZN7ap_uintILi8EEaSERKS0_(%struct.ap_uint* %486, %struct.ap_uint* %491), !dbg !12306 ; [#uses=0 type=%struct.ap_uint*] [debug line = 760:38]
  %493 = bitcast %struct.ap_uint.12* %i11 to %struct.ap_int_base.13*, !dbg !12307 ; [#uses=1 type=%struct.ap_int_base.13*] [debug line = 761:14]
  %494 = call zeroext i8 @_ZNK11ap_int_baseILi4ELb0ELb1EEcvhEv(%struct.ap_int_base.13* %493), !dbg !12307 ; [#uses=1 type=i8] [debug line = 761:14]
  %495 = zext i8 %494 to i32, !dbg !12307         ; [#uses=1 type=i32] [debug line = 761:14]
  %496 = getelementptr inbounds [5 x %struct.ap_uint]* %src_buf3, i32 0, i32 %495, !dbg !12307 ; [#uses=1 type=%struct.ap_uint*] [debug line = 761:14]
  %497 = bitcast %struct.ap_uint* %buf_size to %struct.ap_int_base*, !dbg !12308 ; [#uses=1 type=%struct.ap_int_base*] [debug line = 761:28]
  %498 = bitcast %struct.ap_uint.12* %i11 to %struct.ap_int_base.13*, !dbg !12309 ; [#uses=1 type=%struct.ap_int_base.13*] [debug line = 761:38]
  call void @_ZmiILi4ELb0EEN11ap_int_baseIXT_EXT0_EXleT_Li64EEE5RTypeIXLi32EEXLb1EEE5minusEiRKS1_(%struct.ap_int_base.21* sret %78, i32 4, %struct.ap_int_base.13* %498), !dbg !12309 ; [debug line = 761:38]
  call void @_ZmiILi8ELb0ELi33ELb1EEN11ap_int_baseIXT_EXT0_EXleT_Li64EEE5RTypeIXT1_EXT2_EE5minusERKS1_RKS0_IXT1_EXT2_EXleT1_Li64EEE(%struct.ap_int_base.51* sret %79, %struct.ap_int_base* %497, %struct.ap_int_base.21* %78), !dbg !12309 ; [debug line = 761:38]
  %499 = call i64 @_ZNK11ap_int_baseILi34ELb1ELb1EEcvxEv(%struct.ap_int_base.51* %79), !dbg !12309 ; [#uses=1 type=i64] [debug line = 761:38]
  %500 = trunc i64 %499 to i32, !dbg !12309       ; [#uses=1 type=i32] [debug line = 761:38]
  %501 = getelementptr inbounds [5 x %struct.ap_uint]* %src_buf3, i32 0, i32 %500, !dbg !12309 ; [#uses=1 type=%struct.ap_uint*] [debug line = 761:38]
  %502 = call %struct.ap_uint* @_ZN7ap_uintILi8EEaSERKS0_(%struct.ap_uint* %496, %struct.ap_uint* %501), !dbg !12309 ; [#uses=0 type=%struct.ap_uint*] [debug line = 761:38]
  %503 = bitcast %struct.ap_uint.12* %i11 to %struct.ap_int_base.13*, !dbg !12310 ; [#uses=1 type=%struct.ap_int_base.13*] [debug line = 762:14]
  %504 = call zeroext i8 @_ZNK11ap_int_baseILi4ELb0ELb1EEcvhEv(%struct.ap_int_base.13* %503), !dbg !12310 ; [#uses=1 type=i8] [debug line = 762:14]
  %505 = zext i8 %504 to i32, !dbg !12310         ; [#uses=1 type=i32] [debug line = 762:14]
  %506 = getelementptr inbounds [5 x %struct.ap_uint]* %src_buf4, i32 0, i32 %505, !dbg !12310 ; [#uses=1 type=%struct.ap_uint*] [debug line = 762:14]
  %507 = bitcast %struct.ap_uint* %buf_size to %struct.ap_int_base*, !dbg !12311 ; [#uses=1 type=%struct.ap_int_base*] [debug line = 762:28]
  %508 = bitcast %struct.ap_uint.12* %i11 to %struct.ap_int_base.13*, !dbg !12312 ; [#uses=1 type=%struct.ap_int_base.13*] [debug line = 762:38]
  call void @_ZmiILi4ELb0EEN11ap_int_baseIXT_EXT0_EXleT_Li64EEE5RTypeIXLi32EEXLb1EEE5minusEiRKS1_(%struct.ap_int_base.21* sret %80, i32 4, %struct.ap_int_base.13* %508), !dbg !12312 ; [debug line = 762:38]
  call void @_ZmiILi8ELb0ELi33ELb1EEN11ap_int_baseIXT_EXT0_EXleT_Li64EEE5RTypeIXT1_EXT2_EE5minusERKS1_RKS0_IXT1_EXT2_EXleT1_Li64EEE(%struct.ap_int_base.51* sret %81, %struct.ap_int_base* %507, %struct.ap_int_base.21* %80), !dbg !12312 ; [debug line = 762:38]
  %509 = call i64 @_ZNK11ap_int_baseILi34ELb1ELb1EEcvxEv(%struct.ap_int_base.51* %81), !dbg !12312 ; [#uses=1 type=i64] [debug line = 762:38]
  %510 = trunc i64 %509 to i32, !dbg !12312       ; [#uses=1 type=i32] [debug line = 762:38]
  %511 = getelementptr inbounds [5 x %struct.ap_uint]* %src_buf4, i32 0, i32 %510, !dbg !12312 ; [#uses=1 type=%struct.ap_uint*] [debug line = 762:38]
  %512 = call %struct.ap_uint* @_ZN7ap_uintILi8EEaSERKS0_(%struct.ap_uint* %506, %struct.ap_uint* %511), !dbg !12312 ; [#uses=0 type=%struct.ap_uint*] [debug line = 762:38]
  %513 = bitcast %struct.ap_uint.12* %i11 to %struct.ap_int_base.13*, !dbg !12313 ; [#uses=1 type=%struct.ap_int_base.13*] [debug line = 763:14]
  %514 = call zeroext i8 @_ZNK11ap_int_baseILi4ELb0ELb1EEcvhEv(%struct.ap_int_base.13* %513), !dbg !12313 ; [#uses=1 type=i8] [debug line = 763:14]
  %515 = zext i8 %514 to i32, !dbg !12313         ; [#uses=1 type=i32] [debug line = 763:14]
  %516 = getelementptr inbounds [5 x %struct.ap_uint]* %src_buf5, i32 0, i32 %515, !dbg !12313 ; [#uses=1 type=%struct.ap_uint*] [debug line = 763:14]
  %517 = bitcast %struct.ap_uint* %buf_size to %struct.ap_int_base*, !dbg !12314 ; [#uses=1 type=%struct.ap_int_base*] [debug line = 763:28]
  %518 = bitcast %struct.ap_uint.12* %i11 to %struct.ap_int_base.13*, !dbg !12315 ; [#uses=1 type=%struct.ap_int_base.13*] [debug line = 763:38]
  call void @_ZmiILi4ELb0EEN11ap_int_baseIXT_EXT0_EXleT_Li64EEE5RTypeIXLi32EEXLb1EEE5minusEiRKS1_(%struct.ap_int_base.21* sret %82, i32 4, %struct.ap_int_base.13* %518), !dbg !12315 ; [debug line = 763:38]
  call void @_ZmiILi8ELb0ELi33ELb1EEN11ap_int_baseIXT_EXT0_EXleT_Li64EEE5RTypeIXT1_EXT2_EE5minusERKS1_RKS0_IXT1_EXT2_EXleT1_Li64EEE(%struct.ap_int_base.51* sret %83, %struct.ap_int_base* %517, %struct.ap_int_base.21* %82), !dbg !12315 ; [debug line = 763:38]
  %519 = call i64 @_ZNK11ap_int_baseILi34ELb1ELb1EEcvxEv(%struct.ap_int_base.51* %83), !dbg !12315 ; [#uses=1 type=i64] [debug line = 763:38]
  %520 = trunc i64 %519 to i32, !dbg !12315       ; [#uses=1 type=i32] [debug line = 763:38]
  %521 = getelementptr inbounds [5 x %struct.ap_uint]* %src_buf5, i32 0, i32 %520, !dbg !12315 ; [#uses=1 type=%struct.ap_uint*] [debug line = 763:38]
  %522 = call %struct.ap_uint* @_ZN7ap_uintILi8EEaSERKS0_(%struct.ap_uint* %516, %struct.ap_uint* %521), !dbg !12315 ; [#uses=0 type=%struct.ap_uint*] [debug line = 763:38]
  call void (...)* @_ssdm_RegionEnd(i8* getelementptr inbounds ([12 x i8]* @.str26, i32 0, i32 0)) nounwind, !dbg !12316 ; [debug line = 764:4]
  br label %523, !dbg !12316                      ; [debug line = 764:4]

; <label>:523                                     ; preds = %472
  %524 = bitcast %struct.ap_uint.12* %i11 to %struct.ap_int_base.13*, !dbg !12317 ; [#uses=1 type=%struct.ap_int_base.13*] [debug line = 756:33]
  call void @_ZN11ap_int_baseILi4ELb0ELb1EEppEi(%struct.ap_int_base.13* sret %84, %struct.ap_int_base.13* %524, i32 0), !dbg !12317 ; [debug line = 756:33]
  br label %469, !dbg !12317                      ; [debug line = 756:33]

; <label>:525                                     ; preds = %469
  %526 = bitcast %struct.ap_uint* %buf_size to %struct.ap_int_base*, !dbg !12318 ; [#uses=1 type=%struct.ap_int_base*] [debug line = 765:13]
  call void @_ZmiILi8ELb0EEN11ap_int_baseIXT_EXT0_EXleT_Li64EEE5RTypeIXLi32EEXLb1EEE5minusERKS1_i(%struct.ap_int_base.21* sret %85, %struct.ap_int_base* %526, i32 1), !dbg !12318 ; [debug line = 765:13]
  %527 = call i64 @_ZNK11ap_int_baseILi33ELb1ELb1EEcvxEv(%struct.ap_int_base.21* %85), !dbg !12318 ; [#uses=1 type=i64] [debug line = 765:13]
  %528 = trunc i64 %527 to i32, !dbg !12318       ; [#uses=1 type=i32] [debug line = 765:13]
  %529 = getelementptr inbounds [5 x %struct.ap_uint]* %src_buf1, i32 0, i32 %528, !dbg !12318 ; [#uses=1 type=%struct.ap_uint*] [debug line = 765:13]
  call void @_ZN7ap_uintILi8EEC1Ei(%struct.ap_uint* %86, i32 0), !dbg !12318 ; [debug line = 765:13]
  %530 = call %struct.ap_uint* @_ZN7ap_uintILi8EEaSERKS0_(%struct.ap_uint* %529, %struct.ap_uint* %86), !dbg !12318 ; [#uses=0 type=%struct.ap_uint*] [debug line = 765:13]
  %531 = bitcast %struct.ap_uint* %buf_size to %struct.ap_int_base*, !dbg !12319 ; [#uses=1 type=%struct.ap_int_base*] [debug line = 766:13]
  call void @_ZmiILi8ELb0EEN11ap_int_baseIXT_EXT0_EXleT_Li64EEE5RTypeIXLi32EEXLb1EEE5minusERKS1_i(%struct.ap_int_base.21* sret %87, %struct.ap_int_base* %531, i32 1), !dbg !12319 ; [debug line = 766:13]
  %532 = call i64 @_ZNK11ap_int_baseILi33ELb1ELb1EEcvxEv(%struct.ap_int_base.21* %87), !dbg !12319 ; [#uses=1 type=i64] [debug line = 766:13]
  %533 = trunc i64 %532 to i32, !dbg !12319       ; [#uses=1 type=i32] [debug line = 766:13]
  %534 = getelementptr inbounds [5 x %struct.ap_uint]* %src_buf2, i32 0, i32 %533, !dbg !12319 ; [#uses=1 type=%struct.ap_uint*] [debug line = 766:13]
  call void @_ZN7ap_uintILi8EEC1Ei(%struct.ap_uint* %88, i32 0), !dbg !12319 ; [debug line = 766:13]
  %535 = call %struct.ap_uint* @_ZN7ap_uintILi8EEaSERKS0_(%struct.ap_uint* %534, %struct.ap_uint* %88), !dbg !12319 ; [#uses=0 type=%struct.ap_uint*] [debug line = 766:13]
  %536 = bitcast %struct.ap_uint* %buf_size to %struct.ap_int_base*, !dbg !12320 ; [#uses=1 type=%struct.ap_int_base*] [debug line = 767:13]
  call void @_ZmiILi8ELb0EEN11ap_int_baseIXT_EXT0_EXleT_Li64EEE5RTypeIXLi32EEXLb1EEE5minusERKS1_i(%struct.ap_int_base.21* sret %89, %struct.ap_int_base* %536, i32 1), !dbg !12320 ; [debug line = 767:13]
  %537 = call i64 @_ZNK11ap_int_baseILi33ELb1ELb1EEcvxEv(%struct.ap_int_base.21* %89), !dbg !12320 ; [#uses=1 type=i64] [debug line = 767:13]
  %538 = trunc i64 %537 to i32, !dbg !12320       ; [#uses=1 type=i32] [debug line = 767:13]
  %539 = getelementptr inbounds [5 x %struct.ap_uint]* %src_buf3, i32 0, i32 %538, !dbg !12320 ; [#uses=1 type=%struct.ap_uint*] [debug line = 767:13]
  call void @_ZN7ap_uintILi8EEC1Ei(%struct.ap_uint* %90, i32 0), !dbg !12320 ; [debug line = 767:13]
  %540 = call %struct.ap_uint* @_ZN7ap_uintILi8EEaSERKS0_(%struct.ap_uint* %539, %struct.ap_uint* %90), !dbg !12320 ; [#uses=0 type=%struct.ap_uint*] [debug line = 767:13]
  %541 = bitcast %struct.ap_uint* %buf_size to %struct.ap_int_base*, !dbg !12321 ; [#uses=1 type=%struct.ap_int_base*] [debug line = 768:13]
  call void @_ZmiILi8ELb0EEN11ap_int_baseIXT_EXT0_EXleT_Li64EEE5RTypeIXLi32EEXLb1EEE5minusERKS1_i(%struct.ap_int_base.21* sret %91, %struct.ap_int_base* %541, i32 1), !dbg !12321 ; [debug line = 768:13]
  %542 = call i64 @_ZNK11ap_int_baseILi33ELb1ELb1EEcvxEv(%struct.ap_int_base.21* %91), !dbg !12321 ; [#uses=1 type=i64] [debug line = 768:13]
  %543 = trunc i64 %542 to i32, !dbg !12321       ; [#uses=1 type=i32] [debug line = 768:13]
  %544 = getelementptr inbounds [5 x %struct.ap_uint]* %src_buf4, i32 0, i32 %543, !dbg !12321 ; [#uses=1 type=%struct.ap_uint*] [debug line = 768:13]
  call void @_ZN7ap_uintILi8EEC1Ei(%struct.ap_uint* %92, i32 0), !dbg !12321 ; [debug line = 768:13]
  %545 = call %struct.ap_uint* @_ZN7ap_uintILi8EEaSERKS0_(%struct.ap_uint* %544, %struct.ap_uint* %92), !dbg !12321 ; [#uses=0 type=%struct.ap_uint*] [debug line = 768:13]
  %546 = bitcast %struct.ap_uint* %buf_size to %struct.ap_int_base*, !dbg !12322 ; [#uses=1 type=%struct.ap_int_base*] [debug line = 769:13]
  call void @_ZmiILi8ELb0EEN11ap_int_baseIXT_EXT0_EXleT_Li64EEE5RTypeIXLi32EEXLb1EEE5minusERKS1_i(%struct.ap_int_base.21* sret %93, %struct.ap_int_base* %546, i32 1), !dbg !12322 ; [debug line = 769:13]
  %547 = call i64 @_ZNK11ap_int_baseILi33ELb1ELb1EEcvxEv(%struct.ap_int_base.21* %93), !dbg !12322 ; [#uses=1 type=i64] [debug line = 769:13]
  %548 = trunc i64 %547 to i32, !dbg !12322       ; [#uses=1 type=i32] [debug line = 769:13]
  %549 = getelementptr inbounds [5 x %struct.ap_uint]* %src_buf5, i32 0, i32 %548, !dbg !12322 ; [#uses=1 type=%struct.ap_uint*] [debug line = 769:13]
  call void @_ZN7ap_uintILi8EEC1Ei(%struct.ap_uint* %94, i32 0), !dbg !12322 ; [debug line = 769:13]
  %550 = call %struct.ap_uint* @_ZN7ap_uintILi8EEaSERKS0_(%struct.ap_uint* %549, %struct.ap_uint* %94), !dbg !12322 ; [#uses=0 type=%struct.ap_uint*] [debug line = 769:13]
  %551 = getelementptr inbounds [1 x %struct.ap_uint]* %GradientValuesX, i32 0, i32 0, !dbg !12323 ; [#uses=1 type=%struct.ap_uint*] [debug line = 771:4]
  %552 = getelementptr inbounds [5 x %struct.ap_uint]* %src_buf1, i32 0, i32 0, !dbg !12324 ; [#uses=1 type=%struct.ap_uint*] [debug line = 771:25]
  %553 = getelementptr inbounds [5 x %struct.ap_uint]* %src_buf2, i32 0, i32 0, !dbg !12324 ; [#uses=1 type=%struct.ap_uint*] [debug line = 771:25]
  %554 = getelementptr inbounds [5 x %struct.ap_uint]* %src_buf3, i32 0, i32 0, !dbg !12324 ; [#uses=1 type=%struct.ap_uint*] [debug line = 771:25]
  %555 = getelementptr inbounds [5 x %struct.ap_uint]* %src_buf4, i32 0, i32 0, !dbg !12324 ; [#uses=1 type=%struct.ap_uint*] [debug line = 771:25]
  %556 = getelementptr inbounds [5 x %struct.ap_uint]* %src_buf5, i32 0, i32 0, !dbg !12324 ; [#uses=1 type=%struct.ap_uint*] [debug line = 771:25]
  call void @_ZN2xf14xFGradientX5x5ILi0ELi0EEEN9PixelTypeIXT0_EE4nameEPNS1_IXT_EE4nameES6_S6_S6_S6_(%struct.ap_uint* sret %95, %struct.ap_uint* %552, %struct.ap_uint* %553, %struct.ap_uint* %554, %struct.ap_uint* %555, %struct.ap_uint* %556), !dbg !12324 ; [debug line = 771:25]
  %557 = call %struct.ap_uint* @_ZN7ap_uintILi8EEaSERKS0_(%struct.ap_uint* %551, %struct.ap_uint* %95), !dbg !12324 ; [#uses=0 type=%struct.ap_uint*] [debug line = 771:25]
  %558 = getelementptr inbounds [1 x %struct.ap_uint]* %GradientValuesY, i32 0, i32 0, !dbg !12325 ; [#uses=1 type=%struct.ap_uint*] [debug line = 772:4]
  %559 = getelementptr inbounds [5 x %struct.ap_uint]* %src_buf1, i32 0, i32 0, !dbg !12326 ; [#uses=1 type=%struct.ap_uint*] [debug line = 772:25]
  %560 = getelementptr inbounds [5 x %struct.ap_uint]* %src_buf2, i32 0, i32 0, !dbg !12326 ; [#uses=1 type=%struct.ap_uint*] [debug line = 772:25]
  %561 = getelementptr inbounds [5 x %struct.ap_uint]* %src_buf3, i32 0, i32 0, !dbg !12326 ; [#uses=1 type=%struct.ap_uint*] [debug line = 772:25]
  %562 = getelementptr inbounds [5 x %struct.ap_uint]* %src_buf4, i32 0, i32 0, !dbg !12326 ; [#uses=1 type=%struct.ap_uint*] [debug line = 772:25]
  %563 = getelementptr inbounds [5 x %struct.ap_uint]* %src_buf5, i32 0, i32 0, !dbg !12326 ; [#uses=1 type=%struct.ap_uint*] [debug line = 772:25]
  call void @_ZN2xf14xFGradientY5x5ILi0ELi0EEEN9PixelTypeIXT0_EE4nameEPNS1_IXT_EE4nameES6_S6_S6_S6_(%struct.ap_uint* sret %96, %struct.ap_uint* %559, %struct.ap_uint* %560, %struct.ap_uint* %561, %struct.ap_uint* %562, %struct.ap_uint* %563), !dbg !12326 ; [debug line = 772:25]
  %564 = call %struct.ap_uint* @_ZN7ap_uintILi8EEaSERKS0_(%struct.ap_uint* %558, %struct.ap_uint* %96), !dbg !12326 ; [#uses=0 type=%struct.ap_uint*] [debug line = 772:25]
  %565 = bitcast %struct.ap_uint* %inter_valx to %struct.ap_int_base*, !dbg !12327 ; [#uses=1 type=%struct.ap_int_base*] [debug line = 774:4]
  %566 = bitcast %struct.ap_uint.50* %max_loop to %struct.ap_int_base.31*, !dbg !12328 ; [#uses=1 type=%struct.ap_int_base.31*] [debug line = 774:16]
  call void @_ZmiILi9ELb0EEN11ap_int_baseIXT_EXT0_EXleT_Li64EEE5RTypeIXLi32EEXLb1EEE5minusERKS1_i(%struct.ap_int_base.21* sret %97, %struct.ap_int_base.31* %566, i32 1), !dbg !12328 ; [debug line = 774:16]
  %567 = call i64 @_ZNK11ap_int_baseILi33ELb1ELb1EEcvxEv(%struct.ap_int_base.21* %97), !dbg !12328 ; [#uses=1 type=i64] [debug line = 774:16]
  %568 = trunc i64 %567 to i32, !dbg !12328       ; [#uses=1 type=i32] [debug line = 774:16]
  %569 = bitcast %struct.ap_uint.50* %max_loop to %struct.ap_int_base.31*, !dbg !12329 ; [#uses=1 type=%struct.ap_int_base.31*] [debug line = 774:30]
  %570 = bitcast %struct.ap_uint.50* %step to %struct.ap_int_base.31*, !dbg !12329 ; [#uses=1 type=%struct.ap_int_base.31*] [debug line = 774:30]
  call void @_ZmiILi9ELb0ELi9ELb0EEN11ap_int_baseIXT_EXT0_EXleT_Li64EEE5RTypeIXT1_EXT2_EE5minusERKS1_RKS0_IXT1_EXT2_EXleT1_Li64EEE(%struct.ap_int_base.29* sret %98, %struct.ap_int_base.31* %569, %struct.ap_int_base.31* %570), !dbg !12329 ; [debug line = 774:30]
  %571 = call signext i16 @_ZNK11ap_int_baseILi10ELb1ELb1EEcvsEv(%struct.ap_int_base.29* %98), !dbg !12329 ; [#uses=1 type=i16] [debug line = 774:30]
  %572 = sext i16 %571 to i32, !dbg !12329        ; [#uses=1 type=i32] [debug line = 774:30]
  call void @_ZN11ap_int_baseILi8ELb0ELb1EEclEii(%struct.ap_range_ref* sret %99, %struct.ap_int_base* %565, i32 %568, i32 %572), !dbg !12329 ; [debug line = 774:30]
  %573 = getelementptr inbounds [1 x %struct.ap_uint]* %GradientValuesX, i32 0, i32 0, !dbg !12329 ; [#uses=1 type=%struct.ap_uint*] [debug line = 774:30]
  %574 = bitcast %struct.ap_uint* %573 to %struct.ap_int_base*, !dbg !12329 ; [#uses=1 type=%struct.ap_int_base*] [debug line = 774:30]
  %575 = call %struct.ap_range_ref* @_ZN12ap_range_refILi8ELb0EEaSILi8ELb0EEERS0_RK11ap_int_baseIXT_EXT0_EXleT_Li64EEE(%struct.ap_range_ref* %99, %struct.ap_int_base* %574), !dbg !12329 ; [#uses=0 type=%struct.ap_range_ref*] [debug line = 774:30]
  %576 = bitcast %struct.ap_uint* %inter_valy to %struct.ap_int_base*, !dbg !12330 ; [#uses=1 type=%struct.ap_int_base*] [debug line = 775:4]
  %577 = bitcast %struct.ap_uint.50* %max_loop to %struct.ap_int_base.31*, !dbg !12331 ; [#uses=1 type=%struct.ap_int_base.31*] [debug line = 775:16]
  call void @_ZmiILi9ELb0EEN11ap_int_baseIXT_EXT0_EXleT_Li64EEE5RTypeIXLi32EEXLb1EEE5minusERKS1_i(%struct.ap_int_base.21* sret %100, %struct.ap_int_base.31* %577, i32 1), !dbg !12331 ; [debug line = 775:16]
  %578 = call i64 @_ZNK11ap_int_baseILi33ELb1ELb1EEcvxEv(%struct.ap_int_base.21* %100), !dbg !12331 ; [#uses=1 type=i64] [debug line = 775:16]
  %579 = trunc i64 %578 to i32, !dbg !12331       ; [#uses=1 type=i32] [debug line = 775:16]
  %580 = bitcast %struct.ap_uint.50* %max_loop to %struct.ap_int_base.31*, !dbg !12332 ; [#uses=1 type=%struct.ap_int_base.31*] [debug line = 775:30]
  %581 = bitcast %struct.ap_uint.50* %step to %struct.ap_int_base.31*, !dbg !12332 ; [#uses=1 type=%struct.ap_int_base.31*] [debug line = 775:30]
  call void @_ZmiILi9ELb0ELi9ELb0EEN11ap_int_baseIXT_EXT0_EXleT_Li64EEE5RTypeIXT1_EXT2_EE5minusERKS1_RKS0_IXT1_EXT2_EXleT1_Li64EEE(%struct.ap_int_base.29* sret %101, %struct.ap_int_base.31* %580, %struct.ap_int_base.31* %581), !dbg !12332 ; [debug line = 775:30]
  %582 = call signext i16 @_ZNK11ap_int_baseILi10ELb1ELb1EEcvsEv(%struct.ap_int_base.29* %101), !dbg !12332 ; [#uses=1 type=i16] [debug line = 775:30]
  %583 = sext i16 %582 to i32, !dbg !12332        ; [#uses=1 type=i32] [debug line = 775:30]
  call void @_ZN11ap_int_baseILi8ELb0ELb1EEclEii(%struct.ap_range_ref* sret %102, %struct.ap_int_base* %576, i32 %579, i32 %583), !dbg !12332 ; [debug line = 775:30]
  %584 = getelementptr inbounds [1 x %struct.ap_uint]* %GradientValuesY, i32 0, i32 0, !dbg !12332 ; [#uses=1 type=%struct.ap_uint*] [debug line = 775:30]
  %585 = bitcast %struct.ap_uint* %584 to %struct.ap_int_base*, !dbg !12332 ; [#uses=1 type=%struct.ap_int_base*] [debug line = 775:30]
  %586 = call %struct.ap_range_ref* @_ZN12ap_range_refILi8ELb0EEaSILi8ELb0EEERS0_RK11ap_int_baseIXT_EXT0_EXleT_Li64EEE(%struct.ap_range_ref* %102, %struct.ap_int_base* %585), !dbg !12332 ; [#uses=0 type=%struct.ap_range_ref*] [debug line = 775:30]
  %587 = load %"class.hls::stream"** %2, align 4, !dbg !12333 ; [#uses=1 type=%"class.hls::stream"*] [debug line = 776:4]
  call void @_ZN3hls6streamI7ap_uintILi8EEE5writeERKS2_(%"class.hls::stream"* %587, %struct.ap_uint* %inter_valx), !dbg !12333 ; [debug line = 776:4]
  %588 = load %"class.hls::stream"** %3, align 4, !dbg !12334 ; [#uses=1 type=%"class.hls::stream"*] [debug line = 777:4]
  call void @_ZN3hls6streamI7ap_uintILi8EEE5writeERKS2_(%"class.hls::stream"* %588, %struct.ap_uint* %inter_valy), !dbg !12334 ; [debug line = 777:4]
  call void (...)* @_ssdm_RegionEnd(i8* getelementptr inbounds ([12 x i8]* @.str23, i32 0, i32 0)) nounwind, !dbg !12335 ; [debug line = 778:3]
  %589 = bitcast %struct.ap_uint.9* %row_ind to %struct.ap_int_base.10*, !dbg !12336 ; [#uses=1 type=%struct.ap_int_base.10*] [debug line = 780:3]
  call void @_ZN11ap_int_baseILi13ELb0ELb1EEppEi(%struct.ap_int_base.10* sret %103, %struct.ap_int_base.10* %589, i32 0), !dbg !12336 ; [debug line = 780:3]
  %590 = bitcast %struct.ap_uint.9* %row_ind to %struct.ap_int_base.10*, !dbg !12337 ; [#uses=1 type=%struct.ap_int_base.10*] [debug line = 782:6]
  %591 = call zeroext i1 @_ZeqILi13ELb0EEbRK11ap_int_baseIXT_EXT0_EXleT_Li64EEEi(%struct.ap_int_base.10* %590, i32 5), !dbg !12337 ; [#uses=1 type=i1] [debug line = 782:6]
  br i1 %591, label %592, label %594, !dbg !12337 ; [debug line = 782:6]

; <label>:592                                     ; preds = %525
  call void @_ZN7ap_uintILi13EEC1Ei(%struct.ap_uint.9* %104, i32 0), !dbg !12338 ; [debug line = 784:4]
  %593 = call %struct.ap_uint.9* @_ZN7ap_uintILi13EEaSERKS0_(%struct.ap_uint.9* %row_ind, %struct.ap_uint.9* %104), !dbg !12338 ; [#uses=0 type=%struct.ap_uint.9*] [debug line = 784:4]
  br label %594, !dbg !12340                      ; [debug line = 785:3]

; <label>:594                                     ; preds = %592, %525
  call void (...)* @_ssdm_RegionEnd(i8* getelementptr inbounds ([9 x i8]* @.str14, i32 0, i32 0)) nounwind, !dbg !12341 ; [debug line = 786:2]
  br label %595, !dbg !12341                      ; [debug line = 786:2]

; <label>:595                                     ; preds = %594
  %596 = bitcast %struct.ap_uint.9* %row to %struct.ap_int_base.10*, !dbg !12342 ; [#uses=1 type=%struct.ap_int_base.10*] [debug line = 679:35]
  call void @_ZN11ap_int_baseILi13ELb0ELb1EEppEi(%struct.ap_int_base.10* sret %105, %struct.ap_int_base.10* %596, i32 0), !dbg !12342 ; [debug line = 679:35]
  br label %232, !dbg !12342                      ; [debug line = 679:35]

; <label>:597                                     ; preds = %232
  ret void, !dbg !12343                           ; [debug line = 787:1]
}

; [#uses=1]
define internal void @_ZN2xf16xFSobelFilter7x7ILi480ELi640ELi0ELi0ELi1ELi0ELi0ELi640EEEvRN3hls6streamIN10StreamTypeIXT4_EE4nameEEERNS2_INS3_IXT5_EE4nameEEESB_tt(%"class.hls::stream"* %_src_mat, %"class.hls::stream"* %_gradx_mat, %"class.hls::stream"* %_grady_mat, i16 zeroext %img_height, i16 zeroext %img_width) nounwind {
  %1 = alloca %"class.hls::stream"*, align 4      ; [#uses=6 type=%"class.hls::stream"**]
  %2 = alloca %"class.hls::stream"*, align 4      ; [#uses=3 type=%"class.hls::stream"**]
  %3 = alloca %"class.hls::stream"*, align 4      ; [#uses=3 type=%"class.hls::stream"**]
  %4 = alloca i16, align 2                        ; [#uses=3 type=i16*]
  %5 = alloca i16, align 2                        ; [#uses=5 type=i16*]
  %row_ind = alloca %struct.ap_uint.9, align 2    ; [#uses=20 type=%struct.ap_uint.9*]
  %row = alloca %struct.ap_uint.9, align 2        ; [#uses=6 type=%struct.ap_uint.9*]
  %col = alloca %struct.ap_uint.9, align 2        ; [#uses=16 type=%struct.ap_uint.9*]
  %tp1 = alloca %struct.ap_uint.12, align 1       ; [#uses=10 type=%struct.ap_uint.12*]
  %tp2 = alloca %struct.ap_uint.12, align 1       ; [#uses=10 type=%struct.ap_uint.12*]
  %tp3 = alloca %struct.ap_uint.12, align 1       ; [#uses=10 type=%struct.ap_uint.12*]
  %mid = alloca %struct.ap_uint.12, align 1       ; [#uses=10 type=%struct.ap_uint.12*]
  %bottom1 = alloca %struct.ap_uint.12, align 1   ; [#uses=10 type=%struct.ap_uint.12*]
  %bottom2 = alloca %struct.ap_uint.12, align 1   ; [#uses=10 type=%struct.ap_uint.12*]
  %bottom3 = alloca %struct.ap_uint.12, align 1   ; [#uses=10 type=%struct.ap_uint.12*]
  %i = alloca %struct.ap_uint.15, align 1         ; [#uses=11 type=%struct.ap_uint.15*]
  %GradientValuesX = alloca [1 x %struct.ap_uint], align 1 ; [#uses=5 type=[1 x %struct.ap_uint]*]
  %GradientValuesY = alloca [1 x %struct.ap_uint], align 1 ; [#uses=5 type=[1 x %struct.ap_uint]*]
  %src_buf1 = alloca [7 x %struct.ap_uint], align 1 ; [#uses=6 type=[7 x %struct.ap_uint]*]
  %src_buf2 = alloca [7 x %struct.ap_uint], align 1 ; [#uses=6 type=[7 x %struct.ap_uint]*]
  %src_buf3 = alloca [7 x %struct.ap_uint], align 1 ; [#uses=6 type=[7 x %struct.ap_uint]*]
  %src_buf4 = alloca [7 x %struct.ap_uint], align 1 ; [#uses=6 type=[7 x %struct.ap_uint]*]
  %src_buf5 = alloca [7 x %struct.ap_uint], align 1 ; [#uses=6 type=[7 x %struct.ap_uint]*]
  %src_buf6 = alloca [7 x %struct.ap_uint], align 1 ; [#uses=6 type=[7 x %struct.ap_uint]*]
  %src_buf7 = alloca [7 x %struct.ap_uint], align 1 ; [#uses=6 type=[7 x %struct.ap_uint]*]
  %inter_valx = alloca %struct.ap_uint, align 1   ; [#uses=4 type=%struct.ap_uint*]
  %inter_valy = alloca %struct.ap_uint, align 1   ; [#uses=4 type=%struct.ap_uint*]
  %shiftx = alloca i16, align 2                   ; [#uses=3 type=i16*]
  %shifty = alloca i16, align 2                   ; [#uses=3 type=i16*]
  %buf = alloca [7 x [640 x %struct.ap_uint]], align 1 ; [#uses=11 type=[7 x [640 x %struct.ap_uint]]*]
  %6 = alloca %struct.ap_uint.9, align 2          ; [#uses=2 type=%struct.ap_uint.9*]
  %7 = alloca %struct.ap_uint.9, align 2          ; [#uses=2 type=%struct.ap_uint.9*]
  %8 = alloca %struct.ap_uint, align 1            ; [#uses=2 type=%struct.ap_uint*]
  %9 = alloca %struct.ap_uint, align 1            ; [#uses=2 type=%struct.ap_uint*]
  %10 = alloca %struct.ap_uint, align 1           ; [#uses=2 type=%struct.ap_uint*]
  %11 = alloca %struct.ap_uint, align 1           ; [#uses=2 type=%struct.ap_uint*]
  %12 = alloca %struct.ap_int_base.10, align 2    ; [#uses=1 type=%struct.ap_int_base.10*]
  %13 = alloca %struct.ap_int_base.10, align 2    ; [#uses=1 type=%struct.ap_int_base.10*]
  %14 = alloca %struct.ap_uint.9, align 2         ; [#uses=2 type=%struct.ap_uint.9*]
  %15 = alloca %struct.ap_uint, align 1           ; [#uses=2 type=%struct.ap_uint*]
  %16 = alloca %struct.ap_int_base.10, align 2    ; [#uses=1 type=%struct.ap_int_base.10*]
  %17 = alloca %struct.ap_int_base.10, align 2    ; [#uses=1 type=%struct.ap_int_base.10*]
  %18 = alloca %struct.ap_uint.9, align 2         ; [#uses=2 type=%struct.ap_uint.9*]
  %19 = alloca %struct.ap_uint, align 1           ; [#uses=2 type=%struct.ap_uint*]
  %20 = alloca %struct.ap_int_base.10, align 2    ; [#uses=1 type=%struct.ap_int_base.10*]
  %21 = alloca %struct.ap_int_base.10, align 2    ; [#uses=1 type=%struct.ap_int_base.10*]
  %22 = alloca %struct.ap_uint.9, align 2         ; [#uses=2 type=%struct.ap_uint.9*]
  %23 = alloca %struct.ap_uint.12, align 1        ; [#uses=2 type=%struct.ap_uint.12*]
  %24 = alloca %struct.ap_uint.12, align 1        ; [#uses=2 type=%struct.ap_uint.12*]
  %25 = alloca %struct.ap_uint.12, align 1        ; [#uses=2 type=%struct.ap_uint.12*]
  %26 = alloca %struct.ap_uint.12, align 1        ; [#uses=2 type=%struct.ap_uint.12*]
  %27 = alloca %struct.ap_uint.12, align 1        ; [#uses=2 type=%struct.ap_uint.12*]
  %28 = alloca %struct.ap_uint.12, align 1        ; [#uses=2 type=%struct.ap_uint.12*]
  %29 = alloca %struct.ap_uint.12, align 1        ; [#uses=2 type=%struct.ap_uint.12*]
  %30 = alloca %struct.ap_uint.12, align 1        ; [#uses=2 type=%struct.ap_uint.12*]
  %31 = alloca %struct.ap_uint.12, align 1        ; [#uses=2 type=%struct.ap_uint.12*]
  %32 = alloca %struct.ap_uint.12, align 1        ; [#uses=2 type=%struct.ap_uint.12*]
  %33 = alloca %struct.ap_uint.12, align 1        ; [#uses=2 type=%struct.ap_uint.12*]
  %34 = alloca %struct.ap_uint.12, align 1        ; [#uses=2 type=%struct.ap_uint.12*]
  %35 = alloca %struct.ap_uint.12, align 1        ; [#uses=2 type=%struct.ap_uint.12*]
  %36 = alloca %struct.ap_uint.12, align 1        ; [#uses=2 type=%struct.ap_uint.12*]
  %37 = alloca %struct.ap_uint.12, align 1        ; [#uses=2 type=%struct.ap_uint.12*]
  %38 = alloca %struct.ap_uint.12, align 1        ; [#uses=2 type=%struct.ap_uint.12*]
  %39 = alloca %struct.ap_uint.12, align 1        ; [#uses=2 type=%struct.ap_uint.12*]
  %40 = alloca %struct.ap_uint.12, align 1        ; [#uses=2 type=%struct.ap_uint.12*]
  %41 = alloca %struct.ap_uint.12, align 1        ; [#uses=2 type=%struct.ap_uint.12*]
  %42 = alloca %struct.ap_uint.12, align 1        ; [#uses=2 type=%struct.ap_uint.12*]
  %43 = alloca %struct.ap_uint.12, align 1        ; [#uses=2 type=%struct.ap_uint.12*]
  %44 = alloca %struct.ap_uint.12, align 1        ; [#uses=2 type=%struct.ap_uint.12*]
  %45 = alloca %struct.ap_uint.12, align 1        ; [#uses=2 type=%struct.ap_uint.12*]
  %46 = alloca %struct.ap_uint.12, align 1        ; [#uses=2 type=%struct.ap_uint.12*]
  %47 = alloca %struct.ap_uint.12, align 1        ; [#uses=2 type=%struct.ap_uint.12*]
  %48 = alloca %struct.ap_uint.12, align 1        ; [#uses=2 type=%struct.ap_uint.12*]
  %49 = alloca %struct.ap_uint.12, align 1        ; [#uses=2 type=%struct.ap_uint.12*]
  %50 = alloca %struct.ap_uint.12, align 1        ; [#uses=2 type=%struct.ap_uint.12*]
  %51 = alloca %struct.ap_uint.12, align 1        ; [#uses=2 type=%struct.ap_uint.12*]
  %52 = alloca %struct.ap_uint.12, align 1        ; [#uses=2 type=%struct.ap_uint.12*]
  %53 = alloca %struct.ap_uint.12, align 1        ; [#uses=2 type=%struct.ap_uint.12*]
  %54 = alloca %struct.ap_uint.12, align 1        ; [#uses=2 type=%struct.ap_uint.12*]
  %55 = alloca %struct.ap_uint.12, align 1        ; [#uses=2 type=%struct.ap_uint.12*]
  %56 = alloca %struct.ap_uint.12, align 1        ; [#uses=2 type=%struct.ap_uint.12*]
  %57 = alloca %struct.ap_uint.12, align 1        ; [#uses=2 type=%struct.ap_uint.12*]
  %58 = alloca %struct.ap_uint.12, align 1        ; [#uses=2 type=%struct.ap_uint.12*]
  %59 = alloca %struct.ap_uint.12, align 1        ; [#uses=2 type=%struct.ap_uint.12*]
  %60 = alloca %struct.ap_uint.12, align 1        ; [#uses=2 type=%struct.ap_uint.12*]
  %61 = alloca %struct.ap_uint.12, align 1        ; [#uses=2 type=%struct.ap_uint.12*]
  %62 = alloca %struct.ap_uint.12, align 1        ; [#uses=2 type=%struct.ap_uint.12*]
  %63 = alloca %struct.ap_uint.12, align 1        ; [#uses=2 type=%struct.ap_uint.12*]
  %64 = alloca %struct.ap_uint.12, align 1        ; [#uses=2 type=%struct.ap_uint.12*]
  %65 = alloca %struct.ap_uint.12, align 1        ; [#uses=2 type=%struct.ap_uint.12*]
  %66 = alloca %struct.ap_uint.12, align 1        ; [#uses=2 type=%struct.ap_uint.12*]
  %67 = alloca %struct.ap_uint.12, align 1        ; [#uses=2 type=%struct.ap_uint.12*]
  %68 = alloca %struct.ap_uint.12, align 1        ; [#uses=2 type=%struct.ap_uint.12*]
  %69 = alloca %struct.ap_uint.12, align 1        ; [#uses=2 type=%struct.ap_uint.12*]
  %70 = alloca %struct.ap_uint.12, align 1        ; [#uses=2 type=%struct.ap_uint.12*]
  %71 = alloca %struct.ap_uint.12, align 1        ; [#uses=2 type=%struct.ap_uint.12*]
  %72 = alloca %struct.ap_uint.15, align 1        ; [#uses=2 type=%struct.ap_uint.15*]
  %73 = alloca %struct.ap_uint, align 1           ; [#uses=2 type=%struct.ap_uint*]
  %74 = alloca %struct.ap_uint, align 1           ; [#uses=2 type=%struct.ap_uint*]
  %75 = alloca %struct.ap_uint, align 1           ; [#uses=2 type=%struct.ap_uint*]
  %76 = alloca %struct.ap_uint, align 1           ; [#uses=2 type=%struct.ap_uint*]
  %77 = alloca %struct.ap_uint, align 1           ; [#uses=2 type=%struct.ap_uint*]
  %78 = alloca %struct.ap_uint, align 1           ; [#uses=2 type=%struct.ap_uint*]
  %79 = alloca %struct.ap_uint, align 1           ; [#uses=2 type=%struct.ap_uint*]
  %80 = alloca %struct.ap_int_base.16, align 1    ; [#uses=1 type=%struct.ap_int_base.16*]
  %81 = alloca %struct.ap_uint, align 1           ; [#uses=2 type=%struct.ap_uint*]
  %82 = alloca %struct.ap_uint.9, align 2         ; [#uses=3 type=%struct.ap_uint.9*]
  %83 = alloca %struct.ap_uint.12, align 1        ; [#uses=3 type=%struct.ap_uint.12*]
  %84 = alloca %struct.ap_uint.12, align 1        ; [#uses=3 type=%struct.ap_uint.12*]
  %85 = alloca %struct.ap_uint.12, align 1        ; [#uses=3 type=%struct.ap_uint.12*]
  %86 = alloca %struct.ap_uint.12, align 1        ; [#uses=3 type=%struct.ap_uint.12*]
  %87 = alloca %struct.ap_uint.12, align 1        ; [#uses=3 type=%struct.ap_uint.12*]
  %88 = alloca %struct.ap_uint.12, align 1        ; [#uses=3 type=%struct.ap_uint.12*]
  %89 = alloca %struct.ap_uint.12, align 1        ; [#uses=3 type=%struct.ap_uint.12*]
  %90 = alloca %struct.ap_uint.9, align 2         ; [#uses=3 type=%struct.ap_uint.9*]
  %91 = alloca %struct.ap_int_base.10, align 2    ; [#uses=1 type=%struct.ap_int_base.10*]
  %92 = alloca %struct.ap_uint.9, align 2         ; [#uses=2 type=%struct.ap_uint.9*]
  %93 = alloca %struct.ap_int_base.10, align 2    ; [#uses=1 type=%struct.ap_int_base.10*]
  store %"class.hls::stream"* %_src_mat, %"class.hls::stream"** %1, align 4
  call void @llvm.dbg.declare(metadata !{%"class.hls::stream"** %1}, metadata !12344), !dbg !12345 ; [debug line = 1260:81] [debug variable = _src_mat]
  store %"class.hls::stream"* %_gradx_mat, %"class.hls::stream"** %2, align 4
  call void @llvm.dbg.declare(metadata !{%"class.hls::stream"** %2}, metadata !12346), !dbg !12347 ; [debug line = 1261:61] [debug variable = _gradx_mat]
  store %"class.hls::stream"* %_grady_mat, %"class.hls::stream"** %3, align 4
  call void @llvm.dbg.declare(metadata !{%"class.hls::stream"** %3}, metadata !12348), !dbg !12349 ; [debug line = 1262:61] [debug variable = _grady_mat]
  store i16 %img_height, i16* %4, align 2
  call void @llvm.dbg.declare(metadata !{i16* %4}, metadata !12350), !dbg !12351 ; [debug line = 1262:82] [debug variable = img_height]
  store i16 %img_width, i16* %5, align 2
  call void @llvm.dbg.declare(metadata !{i16* %5}, metadata !12352), !dbg !12353 ; [debug line = 1262:103] [debug variable = img_width]
  call void @llvm.dbg.declare(metadata !{%struct.ap_uint.9* %row_ind}, metadata !12354), !dbg !12356 ; [debug line = 1264:14] [debug variable = row_ind]
  call void @_ZN7ap_uintILi13EEC1Ev(%struct.ap_uint.9* %row_ind), !dbg !12357 ; [debug line = 1264:31]
  call void @llvm.dbg.declare(metadata !{%struct.ap_uint.9* %row}, metadata !12358), !dbg !12359 ; [debug line = 1264:23] [debug variable = row]
  call void @_ZN7ap_uintILi13EEC1Ev(%struct.ap_uint.9* %row), !dbg !12357 ; [debug line = 1264:31]
  call void @llvm.dbg.declare(metadata !{%struct.ap_uint.9* %col}, metadata !12360), !dbg !12361 ; [debug line = 1264:28] [debug variable = col]
  call void @_ZN7ap_uintILi13EEC1Ev(%struct.ap_uint.9* %col), !dbg !12357 ; [debug line = 1264:31]
  call void @llvm.dbg.declare(metadata !{%struct.ap_uint.12* %tp1}, metadata !12362), !dbg !12363 ; [debug line = 1265:13] [debug variable = tp1]
  call void @_ZN7ap_uintILi4EEC1Ev(%struct.ap_uint.12* %tp1), !dbg !12364 ; [debug line = 1265:57]
  call void @llvm.dbg.declare(metadata !{%struct.ap_uint.12* %tp2}, metadata !12365), !dbg !12366 ; [debug line = 1265:17] [debug variable = tp2]
  call void @_ZN7ap_uintILi4EEC1Ev(%struct.ap_uint.12* %tp2), !dbg !12364 ; [debug line = 1265:57]
  call void @llvm.dbg.declare(metadata !{%struct.ap_uint.12* %tp3}, metadata !12367), !dbg !12368 ; [debug line = 1265:22] [debug variable = tp3]
  call void @_ZN7ap_uintILi4EEC1Ev(%struct.ap_uint.12* %tp3), !dbg !12364 ; [debug line = 1265:57]
